

Microchip MPLAB XC8 Assembler V2.45 build 20230818022343 
                                                                                               Wed Oct 18 22:05:35 2023

Microchip MPLAB XC8 C Compiler v2.45 (Free license) build 20230818022343 Og1 
     1                           	processor	16F877A
     2                           	pagewidth 120
     3                           	opt	flic
     4                           	psect	nvBANK1,global,class=BANK1,space=1,delta=1,noexec
     5                           	psect	cinit,global,class=CODE,merge=1,delta=2
     6                           	psect	cstackBANK1,global,class=BANK1,space=1,delta=1,noexec
     7                           	psect	cstackCOMMON,global,class=COMMON,space=1,delta=1,noexec
     8                           	psect	cstackBANK0,global,class=BANK0,space=1,delta=1,noexec
     9                           	psect	maintext,global,class=CODE,split=1,delta=2
    10                           	psect	text1,local,class=CODE,merge=1,delta=2
    11                           	psect	text2,local,class=CODE,merge=1,delta=2,group=1
    12                           	psect	text3,local,class=CODE,merge=1,delta=2
    13                           	psect	text4,local,class=CODE,merge=1,delta=2,group=1
    14                           	psect	text5,local,class=CODE,merge=1,delta=2,group=1
    15                           	psect	text6,local,class=CODE,merge=1,delta=2,group=1
    16                           	psect	text7,local,class=CODE,merge=1,delta=2,group=1
    17                           	psect	text8,local,class=CODE,merge=1,delta=2,group=1
    18                           	psect	text9,local,class=CODE,merge=1,delta=2
    19                           	psect	idloc,global,abs,ovrld,class=IDLOC,space=5,delta=2,noexec
    20                           	psect	config,global,abs,ovrld,class=CONFIG,space=4,delta=2,noexec
    21                           	dabs	1,0x7E,2
    22     0000                     
    23                           ; Generated 22/03/2023 GMT
    24                           ; 
    25                           ; Copyright © 2023, Microchip Technology Inc. and its subsidiaries ("Microchip")
    26                           ; All rights reserved.
    27                           ; 
    28                           ; This software is developed by Microchip Technology Inc. and its subsidiaries ("Microch
      +                          ip").
    29                           ; 
    30                           ; Redistribution and use in source and binary forms, with or without modification, are
    31                           ; permitted provided that the following conditions are met:
    32                           ; 
    33                           ;     1. Redistributions of source code must retain the above copyright notice, this lis
      +                          t of
    34                           ;        conditions and the following disclaimer.
    35                           ; 
    36                           ;     2. Redistributions in binary form must reproduce the above copyright notice, this 
      +                          list
    37                           ;        of conditions and the following disclaimer in the documentation and/or other
    38                           ;        materials provided with the distribution. Publication is not required when
    39                           ;        this file is used in an embedded application.
    40                           ; 
    41                           ;     3. Microchip's name may not be used to endorse or promote products derived from th
      +                          is
    42                           ;        software without specific prior written permission.
    43                           ; 
    44                           ; THIS SOFTWARE IS PROVIDED BY MICROCHIP "AS IS" AND ANY EXPRESS OR IMPLIED WARRANTIES,
    45                           ; INCLUDING, BUT NOT LIMITED TO, THE IMPLIED WARRANTIES OF MERCHANTABILITY AND FITNESS F
      +                          OR
    46                           ; PURPOSE ARE DISCLAIMED.  IN NO EVENT SHALL MICROCHIP BE LIABLE FOR ANY DIRECT, INDIREC
      +                          T,
    47                           ; INCIDENTAL, SPECIAL, EXEMPLARY, OR CONSEQUENTIAL DAMAGES (INCLUDING BUT NOT LIMITED TO
    48                           ; PROCUREMENT OF SUBSTITUTE GOODS OR SERVICES; LOSS OF USE, DATA OR PROFITS; OR BUSINESS
    49                           ; INTERRUPTION) HOWSOEVER CAUSED AND ON ANY THEORY OF LIABILITY, WHETHER IN CONTRACT, ST
      +                          RICT
    50                           ; LIABILITY, OR TORT (INCLUDING NEGLIGENCE OR OTHERWISE) ARISING IN ANY WAY OUT OF THE U
      +                          SE OF
    51                           ; THIS SOFTWARE, EVEN IF ADVISED OF THE POSSIBILITY OF SUCH DAMAGE.
    52                           ; 
    53                           ; 
    54                           ; Code-generator required, PIC16F877A Definitions
    55                           ; 
    56                           ; SFR Addresses
    57     0000                     	;# 
    58     0001                     	;# 
    59     0002                     	;# 
    60     0003                     	;# 
    61     0004                     	;# 
    62     0005                     	;# 
    63     0006                     	;# 
    64     0007                     	;# 
    65     0008                     	;# 
    66     0009                     	;# 
    67     000A                     	;# 
    68     000B                     	;# 
    69     000C                     	;# 
    70     000D                     	;# 
    71     000E                     	;# 
    72     000E                     	;# 
    73     000F                     	;# 
    74     0010                     	;# 
    75     0011                     	;# 
    76     0012                     	;# 
    77     0013                     	;# 
    78     0014                     	;# 
    79     0015                     	;# 
    80     0015                     	;# 
    81     0016                     	;# 
    82     0017                     	;# 
    83     0018                     	;# 
    84     0019                     	;# 
    85     001A                     	;# 
    86     001B                     	;# 
    87     001B                     	;# 
    88     001C                     	;# 
    89     001D                     	;# 
    90     001E                     	;# 
    91     001F                     	;# 
    92     0081                     	;# 
    93     0085                     	;# 
    94     0086                     	;# 
    95     0087                     	;# 
    96     0088                     	;# 
    97     0089                     	;# 
    98     008C                     	;# 
    99     008D                     	;# 
   100     008E                     	;# 
   101     0091                     	;# 
   102     0092                     	;# 
   103     0093                     	;# 
   104     0094                     	;# 
   105     0098                     	;# 
   106     0099                     	;# 
   107     009C                     	;# 
   108     009D                     	;# 
   109     009E                     	;# 
   110     009F                     	;# 
   111     010C                     	;# 
   112     010D                     	;# 
   113     010E                     	;# 
   114     010F                     	;# 
   115     018C                     	;# 
   116     018D                     	;# 
   117     0000                     	;# 
   118     0001                     	;# 
   119     0002                     	;# 
   120     0003                     	;# 
   121     0004                     	;# 
   122     0005                     	;# 
   123     0006                     	;# 
   124     0007                     	;# 
   125     0008                     	;# 
   126     0009                     	;# 
   127     000A                     	;# 
   128     000B                     	;# 
   129     000C                     	;# 
   130     000D                     	;# 
   131     000E                     	;# 
   132     000E                     	;# 
   133     000F                     	;# 
   134     0010                     	;# 
   135     0011                     	;# 
   136     0012                     	;# 
   137     0013                     	;# 
   138     0014                     	;# 
   139     0015                     	;# 
   140     0015                     	;# 
   141     0016                     	;# 
   142     0017                     	;# 
   143     0018                     	;# 
   144     0019                     	;# 
   145     001A                     	;# 
   146     001B                     	;# 
   147     001B                     	;# 
   148     001C                     	;# 
   149     001D                     	;# 
   150     001E                     	;# 
   151     001F                     	;# 
   152     0081                     	;# 
   153     0085                     	;# 
   154     0086                     	;# 
   155     0087                     	;# 
   156     0088                     	;# 
   157     0089                     	;# 
   158     008C                     	;# 
   159     008D                     	;# 
   160     008E                     	;# 
   161     0091                     	;# 
   162     0092                     	;# 
   163     0093                     	;# 
   164     0094                     	;# 
   165     0098                     	;# 
   166     0099                     	;# 
   167     009C                     	;# 
   168     009D                     	;# 
   169     009E                     	;# 
   170     009F                     	;# 
   171     010C                     	;# 
   172     010D                     	;# 
   173     010E                     	;# 
   174     010F                     	;# 
   175     018C                     	;# 
   176     018D                     	;# 
   177                           
   178                           	psect	nvBANK1
   179     00AE                     __pnvBANK1:
   180     00AE                     _PWM_PERIOD:
   181     00AE                     	ds	4
   182     00B2                     _counter:
   183     00B2                     	ds	2
   184     00B4                     _PWM_FREQ:
   185     00B4                     	ds	4
   186     0015                     _CCPR1L	set	21
   187     0017                     _CCP1CONbits	set	23
   188     0012                     _T2CONbits	set	18
   189     0087                     _TRISCbits	set	135
   190     0092                     _PR2	set	146
   191                           
   192                           	psect	cinit
   193     07FC                     start_initialization:	
   194                           ; #config settings
   195                           
   196     07FC                     __initialization:
   197     07FC                     end_of_initialization:	
   198                           ;End of C runtime variable initialization code
   199                           
   200     07FC                     __end_of__initialization:
   201     07FC  0183               	clrf	3
   202     07FD  120A  118A  2804   	ljmp	_main	;jump to C main() function
   203                           
   204                           	psect	cstackBANK1
   205     00A0                     __pcstackBANK1:
   206     00A0                     ??___set_duty_cycle:
   207     00A0                     ___set_pwm_freq@PR2_value:	
   208                           ; 1 bytes @ 0x0
   209                           
   210                           
   211                           ; 2 bytes @ 0x0
   212     00A0                     	ds	2
   213     00A2                     ___set_duty_cycle@dc:
   214                           
   215                           ; 4 bytes @ 0x2
   216     00A2                     	ds	4
   217     00A6                     ___set_duty_cycle@dc_period:
   218                           
   219                           ; 4 bytes @ 0x6
   220     00A6                     	ds	4
   221     00AA                     ___set_duty_cycle@reg_value:
   222                           
   223                           ; 2 bytes @ 0xA
   224     00AA                     	ds	2
   225     00AC                     ??_main:
   226                           
   227                           ; 1 bytes @ 0xC
   228     00AC                     	ds	2
   229                           
   230                           	psect	cstackCOMMON
   231     0070                     __pcstackCOMMON:
   232     0070                     ?___init_pwm:
   233     0070                     ??___init_pwm:	
   234                           ; 1 bytes @ 0x0
   235                           
   236     0070                     ?_main:	
   237                           ; 1 bytes @ 0x0
   238                           
   239     0070                     ?__Umul8_16:	
   240                           ; 1 bytes @ 0x0
   241                           
   242     0070                     ?___xxtofl:	
   243                           ; 2 bytes @ 0x0
   244                           
   245     0070                     __Umul8_16@multiplicand:	
   246                           ; 4 bytes @ 0x0
   247                           
   248     0070                     ___xxtofl@val:	
   249                           ; 1 bytes @ 0x0
   250                           
   251                           
   252                           ; 4 bytes @ 0x0
   253     0070                     	ds	2
   254     0072                     ??__Umul8_16:
   255                           
   256                           ; 1 bytes @ 0x2
   257     0072                     	ds	2
   258     0074                     ??___xxtofl:
   259     0074                     __Umul8_16@product:	
   260                           ; 1 bytes @ 0x4
   261                           
   262                           
   263                           ; 2 bytes @ 0x4
   264     0074                     	ds	2
   265     0076                     __Umul8_16@word_mpld:
   266                           
   267                           ; 2 bytes @ 0x6
   268     0076                     	ds	2
   269     0078                     __Umul8_16@multiplier:
   270     0078                     ___xxtofl@sign:	
   271                           ; 1 bytes @ 0x8
   272                           
   273                           
   274                           ; 1 bytes @ 0x8
   275     0078                     	ds	1
   276     0079                     ??___flmul:
   277     0079                     ___xxtofl@exp:	
   278                           ; 1 bytes @ 0x9
   279                           
   280                           
   281                           ; 1 bytes @ 0x9
   282     0079                     	ds	1
   283     007A                     ___xxtofl@arg:
   284                           
   285                           ; 4 bytes @ 0xA
   286     007A                     	ds	4
   287     007E                     ??___set_pwm_freq:
   288                           
   289                           	psect	cstackBANK0
   290     0020                     __pcstackBANK0:	
   291                           ; 1 bytes @ 0xE
   292                           
   293     0020                     ?___flmul:
   294     0020                     ___flmul@b:	
   295                           ; 4 bytes @ 0x0
   296                           
   297                           
   298                           ; 4 bytes @ 0x0
   299     0020                     	ds	4
   300     0024                     ___flmul@a:
   301                           
   302                           ; 4 bytes @ 0x4
   303     0024                     	ds	4
   304     0028                     ___flmul@sign:
   305                           
   306                           ; 1 bytes @ 0x8
   307     0028                     	ds	1
   308     0029                     ___flmul@grs:
   309                           
   310                           ; 4 bytes @ 0x9
   311     0029                     	ds	4
   312     002D                     ___flmul@aexp:
   313                           
   314                           ; 1 bytes @ 0xD
   315     002D                     	ds	1
   316     002E                     ___flmul@bexp:
   317                           
   318                           ; 1 bytes @ 0xE
   319     002E                     	ds	1
   320     002F                     ___flmul@prod:
   321                           
   322                           ; 4 bytes @ 0xF
   323     002F                     	ds	4
   324     0033                     ___flmul@temp:
   325                           
   326                           ; 2 bytes @ 0x13
   327     0033                     	ds	2
   328     0035                     ?___fldiv:
   329     0035                     ___fldiv@a:	
   330                           ; 4 bytes @ 0x15
   331                           
   332                           
   333                           ; 4 bytes @ 0x15
   334     0035                     	ds	4
   335     0039                     ___fldiv@b:
   336                           
   337                           ; 4 bytes @ 0x19
   338     0039                     	ds	4
   339     003D                     ??___fldiv:
   340                           
   341                           ; 1 bytes @ 0x1D
   342     003D                     	ds	5
   343     0042                     ___fldiv@rem:
   344                           
   345                           ; 4 bytes @ 0x22
   346     0042                     	ds	4
   347     0046                     ___fldiv@sign:
   348                           
   349                           ; 1 bytes @ 0x26
   350     0046                     	ds	1
   351     0047                     ___fldiv@new_exp:
   352                           
   353                           ; 2 bytes @ 0x27
   354     0047                     	ds	2
   355     0049                     ___fldiv@grs:
   356                           
   357                           ; 4 bytes @ 0x29
   358     0049                     	ds	4
   359     004D                     ___fldiv@bexp:
   360                           
   361                           ; 1 bytes @ 0x2D
   362     004D                     	ds	1
   363     004E                     ___fldiv@aexp:
   364                           
   365                           ; 1 bytes @ 0x2E
   366     004E                     	ds	1
   367     004F                     ?___fladd:
   368     004F                     ___fladd@b:	
   369                           ; 4 bytes @ 0x2F
   370                           
   371                           
   372                           ; 4 bytes @ 0x2F
   373     004F                     	ds	4
   374     0053                     ___fladd@a:
   375                           
   376                           ; 4 bytes @ 0x33
   377     0053                     	ds	4
   378     0057                     ??___fladd:
   379                           
   380                           ; 1 bytes @ 0x37
   381     0057                     	ds	8
   382     005F                     ___fladd@signs:
   383                           
   384                           ; 1 bytes @ 0x3F
   385     005F                     	ds	1
   386     0060                     ___fladd@aexp:
   387                           
   388                           ; 1 bytes @ 0x40
   389     0060                     	ds	1
   390     0061                     ___fladd@bexp:
   391                           
   392                           ; 1 bytes @ 0x41
   393     0061                     	ds	1
   394     0062                     ___fladd@grs:
   395                           
   396                           ; 1 bytes @ 0x42
   397     0062                     	ds	1
   398     0063                     ?___fltol:
   399     0063                     ___fltol@f1:	
   400                           ; 4 bytes @ 0x43
   401                           
   402                           
   403                           ; 4 bytes @ 0x43
   404     0063                     	ds	4
   405     0067                     ??___fltol:
   406                           
   407                           ; 1 bytes @ 0x47
   408     0067                     	ds	4
   409     006B                     ___fltol@sign1:
   410                           
   411                           ; 1 bytes @ 0x4B
   412     006B                     	ds	1
   413     006C                     ___fltol@exp1:
   414                           
   415                           ; 1 bytes @ 0x4C
   416     006C                     	ds	1
   417     006D                     ?___set_pwm_freq:
   418     006D                     ?___set_duty_cycle:	
   419                           ; 1 bytes @ 0x4D
   420                           
   421     006D                     ___set_pwm_freq@f:	
   422                           ; 1 bytes @ 0x4D
   423                           
   424     006D                     ___set_duty_cycle@duty_cycle:	
   425                           ; 2 bytes @ 0x4D
   426                           
   427                           
   428                           ; 2 bytes @ 0x4D
   429     006D                     	ds	2
   430                           
   431                           	psect	maintext
   432     0004                     __pmaintext:	
   433 ;;
   434 ;;Main: autosize = 0, tempsize = 2, incstack = 0, save=0
   435 ;;
   436 ;; *************** function _main *****************
   437 ;; Defined at:
   438 ;;		line 78 in file "main.c"
   439 ;; Parameters:    Size  Location     Type
   440 ;;		None
   441 ;; Auto vars:     Size  Location     Type
   442 ;;		None
   443 ;; Return value:  Size  Location     Type
   444 ;;                  1    wreg      void 
   445 ;; Registers used:
   446 ;;		wreg, status,2, status,0, btemp+1, pclath, cstack
   447 ;; Tracked objects:
   448 ;;		On entry : B00/0
   449 ;;		On exit  : 0/0
   450 ;;		Unchanged: 0/0
   451 ;; Data sizes:     COMMON   BANK0   BANK1   BANK3   BANK2
   452 ;;      Params:         0       0       0       0       0
   453 ;;      Locals:         0       0       0       0       0
   454 ;;      Temps:          0       0       2       0       0
   455 ;;      Totals:         0       0       2       0       0
   456 ;;Total ram usage:        2 bytes
   457 ;; Hardware stack levels required when called: 3
   458 ;; This function calls:
   459 ;;		___init_pwm
   460 ;;		___set_duty_cycle
   461 ;;		___set_pwm_freq
   462 ;; This function is called by:
   463 ;;		Startup code after reset
   464 ;; This function uses a non-reentrant model
   465 ;;
   466                           
   467     0004                     _main:	
   468                           ;psect for function _main
   469                           
   470     0004                     l1797:	
   471                           ;incstack = 0
   472                           ; Regs used in _main: [wreg+status,2+status,0+btemp+1+pclath+cstack]
   473                           
   474                           
   475                           ;main.c: 79:     __set_pwm_freq(2000);
   476     0004  30D0               	movlw	208
   477     0005  1283               	bcf	3,5	;RP0=0, select bank0
   478     0006  1303               	bcf	3,6	;RP1=0, select bank0
   479     0007  00ED               	movwf	___set_pwm_freq@f
   480     0008  3007               	movlw	7
   481     0009  00EE               	movwf	___set_pwm_freq@f+1
   482     000A  120A  158A  2629  120A  118A  	fcall	___set_pwm_freq
   483     000F                     l1799:
   484                           
   485                           ;main.c: 80:     __init_pwm();
   486     000F  120A  158A  24C3  120A  118A  	fcall	___init_pwm
   487     0014                     l1801:
   488                           
   489                           ;main.c: 81:     __set_duty_cycle(0);
   490     0014  3000               	movlw	0
   491     0015  1283               	bcf	3,5	;RP0=0, select bank0
   492     0016  1303               	bcf	3,6	;RP1=0, select bank0
   493     0017  00ED               	movwf	___set_duty_cycle@duty_cycle
   494     0018  00EE               	movwf	___set_duty_cycle@duty_cycle+1
   495     0019  120A  158A  26EE  120A  118A  	fcall	___set_duty_cycle
   496     001E                     l1803:
   497                           
   498                           ;main.c: 86:         for(counter = 0; counter < 100; counter++) {
   499     001E  1683               	bsf	3,5	;RP0=1, select bank1
   500     001F  1303               	bcf	3,6	;RP1=0, select bank1
   501     0020  01B2               	clrf	_counter^(0+128)
   502     0021  01B3               	clrf	(_counter+1)^(0+128)
   503     0022                     l1809:
   504                           
   505                           ;main.c: 87:             __set_duty_cycle(counter);
   506     0022  1683               	bsf	3,5	;RP0=1, select bank1
   507     0023  1303               	bcf	3,6	;RP1=0, select bank1
   508     0024  0833               	movf	(_counter+1)^(0+128),w
   509     0025  1283               	bcf	3,5	;RP0=0, select bank0
   510     0026  1303               	bcf	3,6	;RP1=0, select bank0
   511     0027  00EE               	movwf	___set_duty_cycle@duty_cycle+1
   512     0028  1683               	bsf	3,5	;RP0=1, select bank1
   513     0029  1303               	bcf	3,6	;RP1=0, select bank1
   514     002A  0832               	movf	_counter^(0+128),w
   515     002B  1283               	bcf	3,5	;RP0=0, select bank0
   516     002C  1303               	bcf	3,6	;RP1=0, select bank0
   517     002D  00ED               	movwf	___set_duty_cycle@duty_cycle
   518     002E  120A  158A  26EE  120A  118A  	fcall	___set_duty_cycle
   519     0033                     l1811:
   520                           
   521                           ;main.c: 88:             _delay((unsigned long)((10)*(16000000/4000.0)));
   522     0033  3034               	movlw	52
   523     0034  1683               	bsf	3,5	;RP0=1, select bank1
   524     0035  1303               	bcf	3,6	;RP1=0, select bank1
   525     0036  00AD               	movwf	(??_main^(0+128)+1)
   526     0037  30F1               	movlw	241
   527     0038  00AC               	movwf	??_main^(0+128)
   528     0039                     u2837:
   529     0039  0BAC               	decfsz	??_main^(0+128),f
   530     003A  2839               	goto	u2837
   531     003B  0BAD               	decfsz	(??_main^(0+128)+1),f
   532     003C  2839               	goto	u2837
   533     003D                     l1813:
   534                           
   535                           ;main.c: 89:         }
   536     003D  3001               	movlw	1
   537     003E  1683               	bsf	3,5	;RP0=1, select bank1
   538     003F  1303               	bcf	3,6	;RP1=0, select bank1
   539     0040  07B2               	addwf	_counter^(0+128),f
   540     0041  1803               	skipnc
   541     0042  0AB3               	incf	(_counter+1)^(0+128),f
   542     0043  3000               	movlw	0
   543     0044  07B3               	addwf	(_counter+1)^(0+128),f
   544     0045                     l1815:
   545     0045  0833               	movf	(_counter+1)^(0+128),w
   546     0046  3A80               	xorlw	128
   547     0047  00FF               	movwf	btemp+1
   548     0048  3080               	movlw	128
   549     0049  027F               	subwf	btemp+1,w
   550     004A  1D03               	skipz
   551     004B  284E               	goto	u2815
   552     004C  3064               	movlw	100
   553     004D  0232               	subwf	_counter^(0+128),w
   554     004E                     u2815:
   555     004E  1C03               	skipc
   556     004F  2851               	goto	u2811
   557     0050  2852               	goto	u2810
   558     0051                     u2811:
   559     0051  2822               	goto	l1809
   560     0052                     u2810:
   561     0052                     l1817:
   562                           
   563                           ;main.c: 90:         for(counter = 100; counter > 0; counter--) {
   564     0052  3064               	movlw	100
   565     0053  1683               	bsf	3,5	;RP0=1, select bank1
   566     0054  1303               	bcf	3,6	;RP1=0, select bank1
   567     0055  00B2               	movwf	_counter^(0+128)
   568     0056  3000               	movlw	0
   569     0057  00B3               	movwf	(_counter^(0+128)+1)
   570     0058                     l1823:
   571                           
   572                           ;main.c: 91:             __set_duty_cycle(counter);
   573     0058  1683               	bsf	3,5	;RP0=1, select bank1
   574     0059  1303               	bcf	3,6	;RP1=0, select bank1
   575     005A  0833               	movf	(_counter+1)^(0+128),w
   576     005B  1283               	bcf	3,5	;RP0=0, select bank0
   577     005C  1303               	bcf	3,6	;RP1=0, select bank0
   578     005D  00EE               	movwf	___set_duty_cycle@duty_cycle+1
   579     005E  1683               	bsf	3,5	;RP0=1, select bank1
   580     005F  1303               	bcf	3,6	;RP1=0, select bank1
   581     0060  0832               	movf	_counter^(0+128),w
   582     0061  1283               	bcf	3,5	;RP0=0, select bank0
   583     0062  1303               	bcf	3,6	;RP1=0, select bank0
   584     0063  00ED               	movwf	___set_duty_cycle@duty_cycle
   585     0064  120A  158A  26EE  120A  118A  	fcall	___set_duty_cycle
   586     0069                     l1825:
   587                           
   588                           ;main.c: 92:             _delay((unsigned long)((10)*(16000000/4000.0)));
   589     0069  3034               	movlw	52
   590     006A  1683               	bsf	3,5	;RP0=1, select bank1
   591     006B  1303               	bcf	3,6	;RP1=0, select bank1
   592     006C  00AD               	movwf	(??_main^(0+128)+1)
   593     006D  30F1               	movlw	241
   594     006E  00AC               	movwf	??_main^(0+128)
   595     006F                     u2847:
   596     006F  0BAC               	decfsz	??_main^(0+128),f
   597     0070  286F               	goto	u2847
   598     0071  0BAD               	decfsz	(??_main^(0+128)+1),f
   599     0072  286F               	goto	u2847
   600     0073                     l1827:
   601                           
   602                           ;main.c: 93:         }
   603     0073  30FF               	movlw	255
   604     0074  1683               	bsf	3,5	;RP0=1, select bank1
   605     0075  1303               	bcf	3,6	;RP1=0, select bank1
   606     0076  07B2               	addwf	_counter^(0+128),f
   607     0077  1803               	skipnc
   608     0078  0AB3               	incf	(_counter+1)^(0+128),f
   609     0079  30FF               	movlw	255
   610     007A  07B3               	addwf	(_counter+1)^(0+128),f
   611     007B                     l1829:
   612     007B  0833               	movf	(_counter+1)^(0+128),w
   613     007C  3A80               	xorlw	128
   614     007D  00FF               	movwf	btemp+1
   615     007E  3080               	movlw	128
   616     007F  027F               	subwf	btemp+1,w
   617     0080  1D03               	skipz
   618     0081  2884               	goto	u2825
   619     0082  3001               	movlw	1
   620     0083  0232               	subwf	_counter^(0+128),w
   621     0084                     u2825:
   622     0084  1803               	skipnc
   623     0085  2887               	goto	u2821
   624     0086  2888               	goto	u2820
   625     0087                     u2821:
   626     0087  2858               	goto	l1823
   627     0088                     u2820:
   628     0088  281E               	goto	l1803
   629     0089  120A  118A  2800   	ljmp	start
   630     008C                     __end_of_main:
   631                           
   632                           	psect	text1
   633     0E29                     __ptext1:	
   634 ;; *************** function ___set_pwm_freq *****************
   635 ;; Defined at:
   636 ;;		line 31 in file "main.c"
   637 ;; Parameters:    Size  Location     Type
   638 ;;  f               2   77[BANK0 ] int 
   639 ;; Auto vars:     Size  Location     Type
   640 ;;  PR2_value       2    0[BANK1 ] int 
   641 ;; Return value:  Size  Location     Type
   642 ;;                  1    wreg      void 
   643 ;; Registers used:
   644 ;;		wreg, status,2, status,0, btemp+1, pclath, cstack
   645 ;; Tracked objects:
   646 ;;		On entry : 0/0
   647 ;;		On exit  : 0/0
   648 ;;		Unchanged: 0/0
   649 ;; Data sizes:     COMMON   BANK0   BANK1   BANK3   BANK2
   650 ;;      Params:         0       2       0       0       0
   651 ;;      Locals:         0       0       2       0       0
   652 ;;      Temps:          0       0       0       0       0
   653 ;;      Totals:         0       2       2       0       0
   654 ;;Total ram usage:        4 bytes
   655 ;; Hardware stack levels used: 1
   656 ;; Hardware stack levels required when called: 2
   657 ;; This function calls:
   658 ;;		___fladd
   659 ;;		___fldiv
   660 ;;		___flmul
   661 ;;		___fltol
   662 ;;		___xxtofl
   663 ;; This function is called by:
   664 ;;		_main
   665 ;; This function uses a non-reentrant model
   666 ;;
   667                           
   668     0E29                     ___set_pwm_freq:	
   669                           ;psect for function ___set_pwm_freq
   670                           
   671     0E29                     l1777:	
   672                           ;incstack = 0
   673                           ; Regs used in ___set_pwm_freq: [wreg+status,2+status,0+btemp+1+pclath+cstack]
   674                           
   675                           
   676                           ;main.c: 32:     PWM_FREQ = f;
   677     0E29  1283               	bcf	3,5	;RP0=0, select bank0
   678     0E2A  1303               	bcf	3,6	;RP1=0, select bank0
   679     0E2B  086D               	movf	___set_pwm_freq@f,w
   680     0E2C  00F0               	movwf	___xxtofl@val
   681     0E2D  086E               	movf	___set_pwm_freq@f+1,w
   682     0E2E  00F1               	movwf	___xxtofl@val+1
   683     0E2F  3000               	movlw	0
   684     0E30  1BF1               	btfsc	___xxtofl@val+1,7
   685     0E31  30FF               	movlw	255
   686     0E32  00F2               	movwf	___xxtofl@val+2
   687     0E33  00F3               	movwf	___xxtofl@val+3
   688     0E34  3001               	movlw	1
   689     0E35  120A  158A  2571  120A  158A  	fcall	___xxtofl
   690     0E3A  0873               	movf	?___xxtofl+3,w
   691     0E3B  1683               	bsf	3,5	;RP0=1, select bank1
   692     0E3C  1303               	bcf	3,6	;RP1=0, select bank1
   693     0E3D  00B7               	movwf	(_PWM_FREQ+3)^(0+128)
   694     0E3E  0872               	movf	?___xxtofl+2,w
   695     0E3F  00B6               	movwf	(_PWM_FREQ+2)^(0+128)
   696     0E40  0871               	movf	?___xxtofl+1,w
   697     0E41  00B5               	movwf	(_PWM_FREQ+1)^(0+128)
   698     0E42  0870               	movf	?___xxtofl,w
   699     0E43  00B4               	movwf	_PWM_FREQ^(0+128)
   700     0E44                     l1779:
   701                           
   702                           ;main.c: 33:     PWM_PERIOD = 1 / PWM_FREQ;
   703     0E44  0837               	movf	(_PWM_FREQ+3)^(0+128),w
   704     0E45  1283               	bcf	3,5	;RP0=0, select bank0
   705     0E46  1303               	bcf	3,6	;RP1=0, select bank0
   706     0E47  00B8               	movwf	___fldiv@a+3
   707     0E48  1683               	bsf	3,5	;RP0=1, select bank1
   708     0E49  1303               	bcf	3,6	;RP1=0, select bank1
   709     0E4A  0836               	movf	(_PWM_FREQ+2)^(0+128),w
   710     0E4B  1283               	bcf	3,5	;RP0=0, select bank0
   711     0E4C  1303               	bcf	3,6	;RP1=0, select bank0
   712     0E4D  00B7               	movwf	___fldiv@a+2
   713     0E4E  1683               	bsf	3,5	;RP0=1, select bank1
   714     0E4F  1303               	bcf	3,6	;RP1=0, select bank1
   715     0E50  0835               	movf	(_PWM_FREQ+1)^(0+128),w
   716     0E51  1283               	bcf	3,5	;RP0=0, select bank0
   717     0E52  1303               	bcf	3,6	;RP1=0, select bank0
   718     0E53  00B6               	movwf	___fldiv@a+1
   719     0E54  1683               	bsf	3,5	;RP0=1, select bank1
   720     0E55  1303               	bcf	3,6	;RP1=0, select bank1
   721     0E56  0834               	movf	_PWM_FREQ^(0+128),w
   722     0E57  1283               	bcf	3,5	;RP0=0, select bank0
   723     0E58  1303               	bcf	3,6	;RP1=0, select bank0
   724     0E59  00B5               	movwf	___fldiv@a
   725     0E5A  303F               	movlw	63
   726     0E5B  00BC               	movwf	___fldiv@b+3
   727     0E5C  3080               	movlw	128
   728     0E5D  00BB               	movwf	___fldiv@b+2
   729     0E5E  3000               	movlw	0
   730     0E5F  00BA               	movwf	___fldiv@b+1
   731     0E60  3000               	movlw	0
   732     0E61  00B9               	movwf	___fldiv@b
   733     0E62  120A  118A  208C  120A  158A  	fcall	___fldiv
   734     0E67  1283               	bcf	3,5	;RP0=0, select bank0
   735     0E68  1303               	bcf	3,6	;RP1=0, select bank0
   736     0E69  0838               	movf	?___fldiv+3,w
   737     0E6A  1683               	bsf	3,5	;RP0=1, select bank1
   738     0E6B  1303               	bcf	3,6	;RP1=0, select bank1
   739     0E6C  00B1               	movwf	(_PWM_PERIOD+3)^(0+128)
   740     0E6D  1283               	bcf	3,5	;RP0=0, select bank0
   741     0E6E  1303               	bcf	3,6	;RP1=0, select bank0
   742     0E6F  0837               	movf	?___fldiv+2,w
   743     0E70  1683               	bsf	3,5	;RP0=1, select bank1
   744     0E71  1303               	bcf	3,6	;RP1=0, select bank1
   745     0E72  00B0               	movwf	(_PWM_PERIOD+2)^(0+128)
   746     0E73  1283               	bcf	3,5	;RP0=0, select bank0
   747     0E74  1303               	bcf	3,6	;RP1=0, select bank0
   748     0E75  0836               	movf	?___fldiv+1,w
   749     0E76  1683               	bsf	3,5	;RP0=1, select bank1
   750     0E77  1303               	bcf	3,6	;RP1=0, select bank1
   751     0E78  00AF               	movwf	(_PWM_PERIOD+1)^(0+128)
   752     0E79  1283               	bcf	3,5	;RP0=0, select bank0
   753     0E7A  1303               	bcf	3,6	;RP1=0, select bank0
   754     0E7B  0835               	movf	?___fldiv,w
   755     0E7C  1683               	bsf	3,5	;RP0=1, select bank1
   756     0E7D  1303               	bcf	3,6	;RP1=0, select bank1
   757     0E7E  00AE               	movwf	_PWM_PERIOD^(0+128)
   758     0E7F                     l1781:
   759                           
   760                           ;main.c: 34:     int PR2_value = ((PWM_PERIOD * 16000000) / (4 * 16) - 1);
   761     0E7F  0831               	movf	(_PWM_PERIOD+3)^(0+128),w
   762     0E80  1283               	bcf	3,5	;RP0=0, select bank0
   763     0E81  1303               	bcf	3,6	;RP1=0, select bank0
   764     0E82  00A7               	movwf	___flmul@a+3
   765     0E83  1683               	bsf	3,5	;RP0=1, select bank1
   766     0E84  1303               	bcf	3,6	;RP1=0, select bank1
   767     0E85  0830               	movf	(_PWM_PERIOD+2)^(0+128),w
   768     0E86  1283               	bcf	3,5	;RP0=0, select bank0
   769     0E87  1303               	bcf	3,6	;RP1=0, select bank0
   770     0E88  00A6               	movwf	___flmul@a+2
   771     0E89  1683               	bsf	3,5	;RP0=1, select bank1
   772     0E8A  1303               	bcf	3,6	;RP1=0, select bank1
   773     0E8B  082F               	movf	(_PWM_PERIOD+1)^(0+128),w
   774     0E8C  1283               	bcf	3,5	;RP0=0, select bank0
   775     0E8D  1303               	bcf	3,6	;RP1=0, select bank0
   776     0E8E  00A5               	movwf	___flmul@a+1
   777     0E8F  1683               	bsf	3,5	;RP0=1, select bank1
   778     0E90  1303               	bcf	3,6	;RP1=0, select bank1
   779     0E91  082E               	movf	_PWM_PERIOD^(0+128),w
   780     0E92  1283               	bcf	3,5	;RP0=0, select bank0
   781     0E93  1303               	bcf	3,6	;RP1=0, select bank0
   782     0E94  00A4               	movwf	___flmul@a
   783     0E95  304B               	movlw	75
   784     0E96  00A3               	movwf	___flmul@b+3
   785     0E97  3074               	movlw	116
   786     0E98  00A2               	movwf	___flmul@b+2
   787     0E99  3024               	movlw	36
   788     0E9A  00A1               	movwf	___flmul@b+1
   789     0E9B  3000               	movlw	0
   790     0E9C  00A0               	movwf	___flmul@b
   791     0E9D  120A  118A  24B7  120A  158A  	fcall	___flmul
   792     0EA2  1283               	bcf	3,5	;RP0=0, select bank0
   793     0EA3  1303               	bcf	3,6	;RP1=0, select bank0
   794     0EA4  0823               	movf	?___flmul+3,w
   795     0EA5  00BC               	movwf	___fldiv@b+3
   796     0EA6  0822               	movf	?___flmul+2,w
   797     0EA7  00BB               	movwf	___fldiv@b+2
   798     0EA8  0821               	movf	?___flmul+1,w
   799     0EA9  00BA               	movwf	___fldiv@b+1
   800     0EAA  0820               	movf	?___flmul,w
   801     0EAB  00B9               	movwf	___fldiv@b
   802     0EAC  3042               	movlw	66
   803     0EAD  00B8               	movwf	___fldiv@a+3
   804     0EAE  3080               	movlw	128
   805     0EAF  00B7               	movwf	___fldiv@a+2
   806     0EB0  3000               	movlw	0
   807     0EB1  00B6               	movwf	___fldiv@a+1
   808     0EB2  3000               	movlw	0
   809     0EB3  00B5               	movwf	___fldiv@a
   810     0EB4  120A  118A  208C  120A  158A  	fcall	___fldiv
   811     0EB9  1283               	bcf	3,5	;RP0=0, select bank0
   812     0EBA  1303               	bcf	3,6	;RP1=0, select bank0
   813     0EBB  0838               	movf	?___fldiv+3,w
   814     0EBC  00D6               	movwf	___fladd@a+3
   815     0EBD  0837               	movf	?___fldiv+2,w
   816     0EBE  00D5               	movwf	___fladd@a+2
   817     0EBF  0836               	movf	?___fldiv+1,w
   818     0EC0  00D4               	movwf	___fladd@a+1
   819     0EC1  0835               	movf	?___fldiv,w
   820     0EC2  00D3               	movwf	___fladd@a
   821     0EC3  30BF               	movlw	191
   822     0EC4  00D2               	movwf	___fladd@b+3
   823     0EC5  3080               	movlw	128
   824     0EC6  00D1               	movwf	___fladd@b+2
   825     0EC7  3000               	movlw	0
   826     0EC8  00D0               	movwf	___fladd@b+1
   827     0EC9  3000               	movlw	0
   828     0ECA  00CF               	movwf	___fladd@b
   829     0ECB  120A  118A  225F  120A  158A  	fcall	___fladd
   830     0ED0  1283               	bcf	3,5	;RP0=0, select bank0
   831     0ED1  1303               	bcf	3,6	;RP1=0, select bank0
   832     0ED2  0852               	movf	?___fladd+3,w
   833     0ED3  00E6               	movwf	___fltol@f1+3
   834     0ED4  0851               	movf	?___fladd+2,w
   835     0ED5  00E5               	movwf	___fltol@f1+2
   836     0ED6  0850               	movf	?___fladd+1,w
   837     0ED7  00E4               	movwf	___fltol@f1+1
   838     0ED8  084F               	movf	?___fladd,w
   839     0ED9  00E3               	movwf	___fltol@f1
   840     0EDA  120A  158A  24F9  120A  158A  	fcall	___fltol
   841     0EDF  1283               	bcf	3,5	;RP0=0, select bank0
   842     0EE0  1303               	bcf	3,6	;RP1=0, select bank0
   843     0EE1  0864               	movf	?___fltol+1,w
   844     0EE2  1683               	bsf	3,5	;RP0=1, select bank1
   845     0EE3  1303               	bcf	3,6	;RP1=0, select bank1
   846     0EE4  00A1               	movwf	(___set_pwm_freq@PR2_value+1)^(0+128)
   847     0EE5  1283               	bcf	3,5	;RP0=0, select bank0
   848     0EE6  1303               	bcf	3,6	;RP1=0, select bank0
   849     0EE7  0863               	movf	?___fltol,w
   850     0EE8  1683               	bsf	3,5	;RP0=1, select bank1
   851     0EE9  1303               	bcf	3,6	;RP1=0, select bank1
   852     0EEA  00A0               	movwf	___set_pwm_freq@PR2_value^(0+128)
   853     0EEB                     l1783:
   854                           
   855                           ;main.c: 35:     PR2 = PR2_value;
   856     0EEB  0820               	movf	___set_pwm_freq@PR2_value^(0+128),w
   857     0EEC  0092               	movwf	18	;volatile
   858     0EED                     l21:
   859     0EED  0008               	return
   860     0EEE                     __end_of___set_pwm_freq:
   861                           
   862                           	psect	text2
   863     025F                     __ptext2:	
   864 ;; *************** function ___fladd *****************
   865 ;; Defined at:
   866 ;;		line 10 in file "/opt/microchip/xc8/v2.45/pic/sources/c99/common/sprcadd.c"
   867 ;; Parameters:    Size  Location     Type
   868 ;;  b               4   47[BANK0 ] void 
   869 ;;  a               4   51[BANK0 ] void 
   870 ;; Auto vars:     Size  Location     Type
   871 ;;  grs             1   66[BANK0 ] unsigned char 
   872 ;;  bexp            1   65[BANK0 ] unsigned char 
   873 ;;  aexp            1   64[BANK0 ] unsigned char 
   874 ;;  signs           1   63[BANK0 ] unsigned char 
   875 ;; Return value:  Size  Location     Type
   876 ;;                  4   47[BANK0 ] unsigned char 
   877 ;; Registers used:
   878 ;;		wreg, status,2, status,0, btemp+1
   879 ;; Tracked objects:
   880 ;;		On entry : 0/0
   881 ;;		On exit  : 0/0
   882 ;;		Unchanged: 0/0
   883 ;; Data sizes:     COMMON   BANK0   BANK1   BANK3   BANK2
   884 ;;      Params:         0       8       0       0       0
   885 ;;      Locals:         0       4       0       0       0
   886 ;;      Temps:          0       8       0       0       0
   887 ;;      Totals:         0      20       0       0       0
   888 ;;Total ram usage:       20 bytes
   889 ;; Hardware stack levels used: 1
   890 ;; This function calls:
   891 ;;		Nothing
   892 ;; This function is called by:
   893 ;;		___set_pwm_freq
   894 ;; This function uses a non-reentrant model
   895 ;;
   896                           
   897     025F                     ___fladd:	
   898                           ;psect for function ___fladd
   899                           
   900     025F                     l1257:	
   901                           ;incstack = 0
   902                           ; Regs used in ___fladd: [wreg+status,2+status,0+btemp+1]
   903                           
   904     025F  1283               	bcf	3,5	;RP0=0, select bank0
   905     0260  1303               	bcf	3,6	;RP1=0, select bank0
   906     0261  0852               	movf	___fladd@b+3,w
   907     0262  3980               	andlw	128
   908     0263  00DF               	movwf	___fladd@signs
   909     0264                     l1259:
   910     0264  0852               	movf	___fladd@b+3,w
   911     0265  00D7               	movwf	??___fladd
   912     0266  0757               	addwf	??___fladd,w
   913     0267  00E1               	movwf	___fladd@bexp
   914     0268                     l1261:
   915     0268  1FD1               	btfss	___fladd@b+2,7
   916     0269  2A6B               	goto	u1551
   917     026A  2A6C               	goto	u1550
   918     026B                     u1551:
   919     026B  2A6D               	goto	l1265
   920     026C                     u1550:
   921     026C                     l1263:
   922     026C  1461               	bsf	___fladd@bexp,0
   923     026D                     l1265:
   924     026D  0861               	movf	___fladd@bexp,w
   925     026E  1903               	btfsc	3,2
   926     026F  2A71               	goto	u1561
   927     0270  2A72               	goto	u1560
   928     0271                     u1561:
   929     0271  2A82               	goto	l1275
   930     0272                     u1560:
   931     0272                     l1267:
   932     0272  0A61               	incf	___fladd@bexp,w
   933     0273  1D03               	btfss	3,2
   934     0274  2A76               	goto	u1571
   935     0275  2A77               	goto	u1570
   936     0276                     u1571:
   937     0276  2A7F               	goto	l1271
   938     0277                     u1570:
   939     0277                     l1269:
   940     0277  3000               	movlw	0
   941     0278  00D2               	movwf	___fladd@b+3
   942     0279  3000               	movlw	0
   943     027A  00D1               	movwf	___fladd@b+2
   944     027B  3000               	movlw	0
   945     027C  00D0               	movwf	___fladd@b+1
   946     027D  3000               	movlw	0
   947     027E  00CF               	movwf	___fladd@b
   948     027F                     l1271:
   949     027F  17D1               	bsf	___fladd@b+2,7
   950     0280                     l1273:
   951     0280  01D2               	clrf	___fladd@b+3
   952     0281  2A8A               	goto	l1277
   953     0282                     l1275:
   954     0282  3000               	movlw	0
   955     0283  00D2               	movwf	___fladd@b+3
   956     0284  3000               	movlw	0
   957     0285  00D1               	movwf	___fladd@b+2
   958     0286  3000               	movlw	0
   959     0287  00D0               	movwf	___fladd@b+1
   960     0288  3000               	movlw	0
   961     0289  00CF               	movwf	___fladd@b
   962     028A                     l1277:
   963     028A  0856               	movf	___fladd@a+3,w
   964     028B  3980               	andlw	128
   965     028C  00E0               	movwf	___fladd@aexp
   966     028D                     l1279:
   967     028D  0860               	movf	___fladd@aexp,w
   968     028E  065F               	xorwf	___fladd@signs,w
   969     028F  1903               	skipnz
   970     0290  2A92               	goto	u1581
   971     0291  2A93               	goto	u1580
   972     0292                     u1581:
   973     0292  2A94               	goto	l1283
   974     0293                     u1580:
   975     0293                     l1281:
   976     0293  175F               	bsf	___fladd@signs,6
   977     0294                     l1283:
   978     0294  0856               	movf	___fladd@a+3,w
   979     0295  00D7               	movwf	??___fladd
   980     0296  0757               	addwf	??___fladd,w
   981     0297  00E0               	movwf	___fladd@aexp
   982     0298                     l1285:
   983     0298  1FD5               	btfss	___fladd@a+2,7
   984     0299  2A9B               	goto	u1591
   985     029A  2A9C               	goto	u1590
   986     029B                     u1591:
   987     029B  2A9D               	goto	l1289
   988     029C                     u1590:
   989     029C                     l1287:
   990     029C  1460               	bsf	___fladd@aexp,0
   991     029D                     l1289:
   992     029D  0860               	movf	___fladd@aexp,w
   993     029E  1903               	btfsc	3,2
   994     029F  2AA1               	goto	u1601
   995     02A0  2AA2               	goto	u1600
   996     02A1                     u1601:
   997     02A1  2AB2               	goto	l1299
   998     02A2                     u1600:
   999     02A2                     l1291:
  1000     02A2  0A60               	incf	___fladd@aexp,w
  1001     02A3  1D03               	btfss	3,2
  1002     02A4  2AA6               	goto	u1611
  1003     02A5  2AA7               	goto	u1610
  1004     02A6                     u1611:
  1005     02A6  2AAF               	goto	l1295
  1006     02A7                     u1610:
  1007     02A7                     l1293:
  1008     02A7  3000               	movlw	0
  1009     02A8  00D6               	movwf	___fladd@a+3
  1010     02A9  3000               	movlw	0
  1011     02AA  00D5               	movwf	___fladd@a+2
  1012     02AB  3000               	movlw	0
  1013     02AC  00D4               	movwf	___fladd@a+1
  1014     02AD  3000               	movlw	0
  1015     02AE  00D3               	movwf	___fladd@a
  1016     02AF                     l1295:
  1017     02AF  17D5               	bsf	___fladd@a+2,7
  1018     02B0                     l1297:
  1019     02B0  01D6               	clrf	___fladd@a+3
  1020     02B1  2ABA               	goto	l426
  1021     02B2                     l1299:
  1022     02B2  3000               	movlw	0
  1023     02B3  00D6               	movwf	___fladd@a+3
  1024     02B4  3000               	movlw	0
  1025     02B5  00D5               	movwf	___fladd@a+2
  1026     02B6  3000               	movlw	0
  1027     02B7  00D4               	movwf	___fladd@a+1
  1028     02B8  3000               	movlw	0
  1029     02B9  00D3               	movwf	___fladd@a
  1030     02BA                     l426:
  1031     02BA  0861               	movf	___fladd@bexp,w
  1032     02BB  0260               	subwf	___fladd@aexp,w
  1033     02BC  1803               	skipnc
  1034     02BD  2ABF               	goto	u1621
  1035     02BE  2AC0               	goto	u1620
  1036     02BF                     u1621:
  1037     02BF  2AE6               	goto	l1335
  1038     02C0                     u1620:
  1039     02C0                     l1301:
  1040     02C0  1F5F               	btfss	___fladd@signs,6
  1041     02C1  2AC3               	goto	u1631
  1042     02C2  2AC4               	goto	u1630
  1043     02C3                     u1631:
  1044     02C3  2AC8               	goto	l1305
  1045     02C4                     u1630:
  1046     02C4                     l1303:
  1047     02C4  3080               	movlw	128
  1048     02C5  00D7               	movwf	??___fladd
  1049     02C6  0857               	movf	??___fladd,w
  1050     02C7  06DF               	xorwf	___fladd@signs,f
  1051     02C8                     l1305:
  1052     02C8  0861               	movf	___fladd@bexp,w
  1053     02C9  00E2               	movwf	___fladd@grs
  1054     02CA                     l1307:
  1055     02CA  0860               	movf	___fladd@aexp,w
  1056     02CB  00E1               	movwf	___fladd@bexp
  1057     02CC                     l1309:
  1058     02CC  0862               	movf	___fladd@grs,w
  1059     02CD  00E0               	movwf	___fladd@aexp
  1060     02CE                     l1311:
  1061     02CE  084F               	movf	___fladd@b,w
  1062     02CF  00E2               	movwf	___fladd@grs
  1063     02D0                     l1313:
  1064     02D0  0853               	movf	___fladd@a,w
  1065     02D1  00CF               	movwf	___fladd@b
  1066     02D2                     l1315:
  1067     02D2  0862               	movf	___fladd@grs,w
  1068     02D3  00D3               	movwf	___fladd@a
  1069     02D4                     l1317:
  1070     02D4  0850               	movf	___fladd@b+1,w
  1071     02D5  00E2               	movwf	___fladd@grs
  1072     02D6                     l1319:
  1073     02D6  0854               	movf	___fladd@a+1,w
  1074     02D7  00D0               	movwf	___fladd@b+1
  1075     02D8                     l1321:
  1076     02D8  0862               	movf	___fladd@grs,w
  1077     02D9  00D4               	movwf	___fladd@a+1
  1078     02DA                     l1323:
  1079     02DA  0851               	movf	___fladd@b+2,w
  1080     02DB  00E2               	movwf	___fladd@grs
  1081     02DC                     l1325:
  1082     02DC  0855               	movf	___fladd@a+2,w
  1083     02DD  00D1               	movwf	___fladd@b+2
  1084     02DE                     l1327:
  1085     02DE  0862               	movf	___fladd@grs,w
  1086     02DF  00D5               	movwf	___fladd@a+2
  1087     02E0                     l1329:
  1088     02E0  0852               	movf	___fladd@b+3,w
  1089     02E1  00E2               	movwf	___fladd@grs
  1090     02E2                     l1331:
  1091     02E2  0856               	movf	___fladd@a+3,w
  1092     02E3  00D2               	movwf	___fladd@b+3
  1093     02E4                     l1333:
  1094     02E4  0862               	movf	___fladd@grs,w
  1095     02E5  00D6               	movwf	___fladd@a+3
  1096     02E6                     l1335:
  1097     02E6  01E2               	clrf	___fladd@grs
  1098     02E7                     l1337:
  1099     02E7  0860               	movf	___fladd@aexp,w
  1100     02E8  00D7               	movwf	??___fladd
  1101     02E9  01D8               	clrf	??___fladd+1
  1102     02EA  0858               	movf	??___fladd+1,w
  1103     02EB  00DA               	movwf	??___fladd+3
  1104     02EC  0861               	movf	___fladd@bexp,w
  1105     02ED  0257               	subwf	??___fladd,w
  1106     02EE  00D9               	movwf	??___fladd+2
  1107     02EF  1C03               	skipc
  1108     02F0  03DA               	decf	??___fladd+3,f
  1109     02F1  085A               	movf	??___fladd+3,w
  1110     02F2  3A80               	xorlw	128
  1111     02F3  00FF               	movwf	btemp+1
  1112     02F4  3080               	movlw	128
  1113     02F5  027F               	subwf	btemp+1,w
  1114     02F6  1D03               	skipz
  1115     02F7  2AFA               	goto	u1645
  1116     02F8  301A               	movlw	26
  1117     02F9  0259               	subwf	??___fladd+2,w
  1118     02FA                     u1645:
  1119     02FA  1C03               	skipc
  1120     02FB  2AFD               	goto	u1641
  1121     02FC  2AFE               	goto	u1640
  1122     02FD                     u1641:
  1123     02FD  2B35               	goto	l1353
  1124     02FE                     u1640:
  1125     02FE                     l1339:
  1126     02FE  1283               	bcf	3,5	;RP0=0, select bank0
  1127     02FF  1303               	bcf	3,6	;RP1=0, select bank0
  1128     0300  0852               	movf	___fladd@b+3,w
  1129     0301  0451               	iorwf	___fladd@b+2,w
  1130     0302  0450               	iorwf	___fladd@b+1,w
  1131     0303  044F               	iorwf	___fladd@b,w
  1132     0304  1D03               	skipz
  1133     0305  2B07               	goto	u1651
  1134     0306  2B09               	goto	u1650
  1135     0307                     u1651:
  1136     0307  3001               	movlw	1
  1137     0308  2B0A               	goto	u1660
  1138     0309                     u1650:
  1139     0309  3000               	movlw	0
  1140     030A                     u1660:
  1141     030A  00E2               	movwf	___fladd@grs
  1142     030B  3000               	movlw	0
  1143     030C  00D2               	movwf	___fladd@b+3
  1144     030D  3000               	movlw	0
  1145     030E  00D1               	movwf	___fladd@b+2
  1146     030F  3000               	movlw	0
  1147     0310  00D0               	movwf	___fladd@b+1
  1148     0311  3000               	movlw	0
  1149     0312  00CF               	movwf	___fladd@b
  1150     0313  0860               	movf	___fladd@aexp,w
  1151     0314  00E1               	movwf	___fladd@bexp
  1152     0315  2B3D               	goto	l430
  1153     0316                     l432:
  1154     0316  1C62               	btfss	___fladd@grs,0
  1155     0317  2B19               	goto	u1671
  1156     0318  2B1A               	goto	u1670
  1157     0319                     u1671:
  1158     0319  2B21               	goto	l1343
  1159     031A                     u1670:
  1160     031A                     l1341:
  1161     031A  0862               	movf	___fladd@grs,w
  1162     031B  00D7               	movwf	??___fladd
  1163     031C  1003               	clrc
  1164     031D  0C57               	rrf	??___fladd,w
  1165     031E  3801               	iorlw	1
  1166     031F  00E2               	movwf	___fladd@grs
  1167     0320  2B23               	goto	l1345
  1168     0321                     l1343:
  1169     0321  1003               	clrc
  1170     0322  0CE2               	rrf	___fladd@grs,f
  1171     0323                     l1345:
  1172     0323  1C4F               	btfss	___fladd@b,0
  1173     0324  2B26               	goto	u1681
  1174     0325  2B27               	goto	u1680
  1175     0326                     u1681:
  1176     0326  2B28               	goto	l1349
  1177     0327                     u1680:
  1178     0327                     l1347:
  1179     0327  17E2               	bsf	___fladd@grs,7
  1180     0328                     l1349:
  1181     0328  3001               	movlw	1
  1182     0329  00D7               	movwf	??___fladd
  1183     032A                     u1695:
  1184     032A  0D52               	rlf	___fladd@b+3,w
  1185     032B  0CD2               	rrf	___fladd@b+3,f
  1186     032C  0CD1               	rrf	___fladd@b+2,f
  1187     032D  0CD0               	rrf	___fladd@b+1,f
  1188     032E  0CCF               	rrf	___fladd@b,f
  1189     032F  0BD7               	decfsz	??___fladd& (0+127),f
  1190     0330  2B2A               	goto	u1695
  1191     0331                     l1351:
  1192     0331  3001               	movlw	1
  1193     0332  00D7               	movwf	??___fladd
  1194     0333  0857               	movf	??___fladd,w
  1195     0334  07E1               	addwf	___fladd@bexp,f
  1196     0335                     l1353:
  1197     0335  1283               	bcf	3,5	;RP0=0, select bank0
  1198     0336  1303               	bcf	3,6	;RP1=0, select bank0
  1199     0337  0860               	movf	___fladd@aexp,w
  1200     0338  0261               	subwf	___fladd@bexp,w
  1201     0339  1C03               	skipc
  1202     033A  2B3C               	goto	u1701
  1203     033B  2B3D               	goto	u1700
  1204     033C                     u1701:
  1205     033C  2B16               	goto	l432
  1206     033D                     u1700:
  1207     033D                     l430:
  1208     033D  1B5F               	btfsc	___fladd@signs,6
  1209     033E  2B40               	goto	u1711
  1210     033F  2B41               	goto	u1710
  1211     0340                     u1711:
  1212     0340  2B8A               	goto	l1379
  1213     0341                     u1710:
  1214     0341                     l1355:
  1215     0341  0861               	movf	___fladd@bexp,w
  1216     0342  1D03               	btfss	3,2
  1217     0343  2B45               	goto	u1721
  1218     0344  2B46               	goto	u1720
  1219     0345                     u1721:
  1220     0345  2B4F               	goto	l1361
  1221     0346                     u1720:
  1222     0346                     l1357:
  1223     0346  3000               	movlw	0
  1224     0347  00D2               	movwf	?___fladd+3
  1225     0348  3000               	movlw	0
  1226     0349  00D1               	movwf	?___fladd+2
  1227     034A  3000               	movlw	0
  1228     034B  00D0               	movwf	?___fladd+1
  1229     034C  3000               	movlw	0
  1230     034D  00CF               	movwf	?___fladd
  1231     034E  2CB6               	goto	l439
  1232     034F                     l1361:
  1233     034F  0853               	movf	___fladd@a,w
  1234     0350  07CF               	addwf	___fladd@b,f
  1235     0351  0854               	movf	___fladd@a+1,w
  1236     0352  1103               	clrz
  1237     0353  1803               	skipnc
  1238     0354  3E01               	addlw	1
  1239     0355  1903               	skipnz
  1240     0356  2B58               	goto	u1731
  1241     0357  07D0               	addwf	___fladd@b+1,f
  1242     0358                     u1731:
  1243     0358  0855               	movf	___fladd@a+2,w
  1244     0359  1103               	clrz
  1245     035A  1803               	skipnc
  1246     035B  3E01               	addlw	1
  1247     035C  1903               	skipnz
  1248     035D  2B5F               	goto	u1732
  1249     035E  07D1               	addwf	___fladd@b+2,f
  1250     035F                     u1732:
  1251     035F  0856               	movf	___fladd@a+3,w
  1252     0360  1103               	clrz
  1253     0361  1803               	skipnc
  1254     0362  3E01               	addlw	1
  1255     0363  1903               	skipnz
  1256     0364  2B66               	goto	u1733
  1257     0365  07D2               	addwf	___fladd@b+3,f
  1258     0366                     u1733:
  1259     0366                     l1363:
  1260     0366  1C52               	btfss	___fladd@b+3,0
  1261     0367  2B69               	goto	u1741
  1262     0368  2B6A               	goto	u1740
  1263     0369                     u1741:
  1264     0369  2C3E               	goto	l1413
  1265     036A                     u1740:
  1266     036A                     l1365:
  1267     036A  1C62               	btfss	___fladd@grs,0
  1268     036B  2B6D               	goto	u1751
  1269     036C  2B6E               	goto	u1750
  1270     036D                     u1751:
  1271     036D  2B75               	goto	l1369
  1272     036E                     u1750:
  1273     036E                     l1367:
  1274     036E  0862               	movf	___fladd@grs,w
  1275     036F  00D7               	movwf	??___fladd
  1276     0370  1003               	clrc
  1277     0371  0C57               	rrf	??___fladd,w
  1278     0372  3801               	iorlw	1
  1279     0373  00E2               	movwf	___fladd@grs
  1280     0374  2B77               	goto	l1371
  1281     0375                     l1369:
  1282     0375  1003               	clrc
  1283     0376  0CE2               	rrf	___fladd@grs,f
  1284     0377                     l1371:
  1285     0377  1C4F               	btfss	___fladd@b,0
  1286     0378  2B7A               	goto	u1761
  1287     0379  2B7B               	goto	u1760
  1288     037A                     u1761:
  1289     037A  2B7C               	goto	l1375
  1290     037B                     u1760:
  1291     037B                     l1373:
  1292     037B  17E2               	bsf	___fladd@grs,7
  1293     037C                     l1375:
  1294     037C  3001               	movlw	1
  1295     037D  00D7               	movwf	??___fladd
  1296     037E                     u1775:
  1297     037E  0D52               	rlf	___fladd@b+3,w
  1298     037F  0CD2               	rrf	___fladd@b+3,f
  1299     0380  0CD1               	rrf	___fladd@b+2,f
  1300     0381  0CD0               	rrf	___fladd@b+1,f
  1301     0382  0CCF               	rrf	___fladd@b,f
  1302     0383  0BD7               	decfsz	??___fladd& (0+127),f
  1303     0384  2B7E               	goto	u1775
  1304     0385                     l1377:
  1305     0385  3001               	movlw	1
  1306     0386  00D7               	movwf	??___fladd
  1307     0387  0857               	movf	??___fladd,w
  1308     0388  07E1               	addwf	___fladd@bexp,f
  1309     0389  2C3E               	goto	l1413
  1310     038A                     l1379:
  1311     038A  0852               	movf	___fladd@b+3,w
  1312     038B  3A80               	xorlw	128
  1313     038C  00FF               	movwf	btemp+1
  1314     038D  0856               	movf	___fladd@a+3,w
  1315     038E  3A80               	xorlw	128
  1316     038F  027F               	subwf	btemp+1,w
  1317     0390  1D03               	skipz
  1318     0391  2B9C               	goto	u1783
  1319     0392  0855               	movf	___fladd@a+2,w
  1320     0393  0251               	subwf	___fladd@b+2,w
  1321     0394  1D03               	skipz
  1322     0395  2B9C               	goto	u1783
  1323     0396  0854               	movf	___fladd@a+1,w
  1324     0397  0250               	subwf	___fladd@b+1,w
  1325     0398  1D03               	skipz
  1326     0399  2B9C               	goto	u1783
  1327     039A  0853               	movf	___fladd@a,w
  1328     039B  024F               	subwf	___fladd@b,w
  1329     039C                     u1783:
  1330     039C  1803               	skipnc
  1331     039D  2B9F               	goto	u1781
  1332     039E  2BA0               	goto	u1780
  1333     039F                     u1781:
  1334     039F  2BF8               	goto	l1389
  1335     03A0                     u1780:
  1336     03A0                     l1381:
  1337     03A0  30FF               	movlw	255
  1338     03A1  00D7               	movwf	??___fladd
  1339     03A2  30FF               	movlw	255
  1340     03A3  00D8               	movwf	??___fladd+1
  1341     03A4  30FF               	movlw	255
  1342     03A5  00D9               	movwf	??___fladd+2
  1343     03A6  30FF               	movlw	255
  1344     03A7  00DA               	movwf	??___fladd+3
  1345     03A8  0853               	movf	___fladd@a,w
  1346     03A9  00DB               	movwf	??___fladd+4
  1347     03AA  0854               	movf	___fladd@a+1,w
  1348     03AB  00DC               	movwf	??___fladd+5
  1349     03AC  0855               	movf	___fladd@a+2,w
  1350     03AD  00DD               	movwf	??___fladd+6
  1351     03AE  0856               	movf	___fladd@a+3,w
  1352     03AF  00DE               	movwf	??___fladd+7
  1353     03B0  084F               	movf	___fladd@b,w
  1354     03B1  02DB               	subwf	??___fladd+4,f
  1355     03B2  0850               	movf	___fladd@b+1,w
  1356     03B3  1C03               	skipc
  1357     03B4  0F50               	incfsz	___fladd@b+1,w
  1358     03B5  2BB7               	goto	u1791
  1359     03B6  2BB8               	goto	u1792
  1360     03B7                     u1791:
  1361     03B7  02DC               	subwf	??___fladd+5,f
  1362     03B8                     u1792:
  1363     03B8  0851               	movf	___fladd@b+2,w
  1364     03B9  1C03               	skipc
  1365     03BA  0F51               	incfsz	___fladd@b+2,w
  1366     03BB  2BBD               	goto	u1793
  1367     03BC  2BBE               	goto	u1794
  1368     03BD                     u1793:
  1369     03BD  02DD               	subwf	??___fladd+6,f
  1370     03BE                     u1794:
  1371     03BE  0852               	movf	___fladd@b+3,w
  1372     03BF  1C03               	skipc
  1373     03C0  0F52               	incfsz	___fladd@b+3,w
  1374     03C1  2BC3               	goto	u1795
  1375     03C2  2BC4               	goto	u1796
  1376     03C3                     u1795:
  1377     03C3  02DE               	subwf	??___fladd+7,f
  1378     03C4                     u1796:
  1379     03C4  085B               	movf	??___fladd+4,w
  1380     03C5  07D7               	addwf	??___fladd,f
  1381     03C6  085C               	movf	??___fladd+5,w
  1382     03C7  1803               	skipnc
  1383     03C8  0F5C               	incfsz	??___fladd+5,w
  1384     03C9  2BCB               	goto	u1800
  1385     03CA  2BCC               	goto	u1801
  1386     03CB                     u1800:
  1387     03CB  07D8               	addwf	??___fladd+1,f
  1388     03CC                     u1801:
  1389     03CC  085D               	movf	??___fladd+6,w
  1390     03CD  1803               	skipnc
  1391     03CE  0F5D               	incfsz	??___fladd+6,w
  1392     03CF  2BD1               	goto	u1802
  1393     03D0  2BD2               	goto	u1803
  1394     03D1                     u1802:
  1395     03D1  07D9               	addwf	??___fladd+2,f
  1396     03D2                     u1803:
  1397     03D2  085E               	movf	??___fladd+7,w
  1398     03D3  1803               	skipnc
  1399     03D4  0A5E               	incf	??___fladd+7,w
  1400     03D5  07DA               	addwf	??___fladd+3,f
  1401     03D6  085A               	movf	??___fladd+3,w
  1402     03D7  00D2               	movwf	___fladd@b+3
  1403     03D8  0859               	movf	??___fladd+2,w
  1404     03D9  00D1               	movwf	___fladd@b+2
  1405     03DA  0858               	movf	??___fladd+1,w
  1406     03DB  00D0               	movwf	___fladd@b+1
  1407     03DC  0857               	movf	??___fladd,w
  1408     03DD  00CF               	movwf	___fladd@b
  1409     03DE                     l1383:
  1410     03DE  3080               	movlw	128
  1411     03DF  00D7               	movwf	??___fladd
  1412     03E0  0857               	movf	??___fladd,w
  1413     03E1  06DF               	xorwf	___fladd@signs,f
  1414     03E2  09E2               	comf	___fladd@grs,f
  1415     03E3  0AE2               	incf	___fladd@grs,f
  1416     03E4                     l1385:
  1417     03E4  0862               	movf	___fladd@grs,w
  1418     03E5  1D03               	btfss	3,2
  1419     03E6  2BE8               	goto	u1811
  1420     03E7  2BE9               	goto	u1810
  1421     03E8                     u1811:
  1422     03E8  2C06               	goto	l447
  1423     03E9                     u1810:
  1424     03E9                     l1387:
  1425     03E9  3001               	movlw	1
  1426     03EA  07CF               	addwf	___fladd@b,f
  1427     03EB  3000               	movlw	0
  1428     03EC  1803               	skipnc
  1429     03ED  3001               	movlw	1
  1430     03EE  07D0               	addwf	___fladd@b+1,f
  1431     03EF  3000               	movlw	0
  1432     03F0  1803               	skipnc
  1433     03F1  3001               	movlw	1
  1434     03F2  07D1               	addwf	___fladd@b+2,f
  1435     03F3  3000               	movlw	0
  1436     03F4  1803               	skipnc
  1437     03F5  3001               	movlw	1
  1438     03F6  07D2               	addwf	___fladd@b+3,f
  1439     03F7  2C06               	goto	l447
  1440     03F8                     l1389:
  1441     03F8  0853               	movf	___fladd@a,w
  1442     03F9  02CF               	subwf	___fladd@b,f
  1443     03FA  0854               	movf	___fladd@a+1,w
  1444     03FB  1C03               	skipc
  1445     03FC  0F54               	incfsz	___fladd@a+1,w
  1446     03FD  02D0               	subwf	___fladd@b+1,f
  1447     03FE  0855               	movf	___fladd@a+2,w
  1448     03FF  1C03               	skipc
  1449     0400  0F55               	incfsz	___fladd@a+2,w
  1450     0401  02D1               	subwf	___fladd@b+2,f
  1451     0402  0856               	movf	___fladd@a+3,w
  1452     0403  1C03               	skipc
  1453     0404  0F56               	incfsz	___fladd@a+3,w
  1454     0405  02D2               	subwf	___fladd@b+3,f
  1455     0406                     l447:
  1456     0406  0852               	movf	___fladd@b+3,w
  1457     0407  0451               	iorwf	___fladd@b+2,w
  1458     0408  0450               	iorwf	___fladd@b+1,w
  1459     0409  044F               	iorwf	___fladd@b,w
  1460     040A  1D03               	skipz
  1461     040B  2C0D               	goto	u1821
  1462     040C  2C0E               	goto	u1820
  1463     040D                     u1821:
  1464     040D  2C3A               	goto	l1411
  1465     040E                     u1820:
  1466     040E                     l1391:
  1467     040E  0862               	movf	___fladd@grs,w
  1468     040F  1D03               	btfss	3,2
  1469     0410  2C12               	goto	u1831
  1470     0411  2C13               	goto	u1830
  1471     0412                     u1831:
  1472     0412  2C3A               	goto	l1411
  1473     0413                     u1830:
  1474     0413                     l1393:
  1475     0413  3000               	movlw	0
  1476     0414  00D2               	movwf	?___fladd+3
  1477     0415  3000               	movlw	0
  1478     0416  00D1               	movwf	?___fladd+2
  1479     0417  3000               	movlw	0
  1480     0418  00D0               	movwf	?___fladd+1
  1481     0419  3000               	movlw	0
  1482     041A  00CF               	movwf	?___fladd
  1483     041B  2CB6               	goto	l439
  1484     041C                     l1397:
  1485     041C  3001               	movlw	1
  1486     041D  00D7               	movwf	??___fladd
  1487     041E                     u1845:
  1488     041E  1003               	clrc
  1489     041F  0DCF               	rlf	___fladd@b,f
  1490     0420  0DD0               	rlf	___fladd@b+1,f
  1491     0421  0DD1               	rlf	___fladd@b+2,f
  1492     0422  0DD2               	rlf	___fladd@b+3,f
  1493     0423  0BD7               	decfsz	??___fladd,f
  1494     0424  2C1E               	goto	u1845
  1495     0425                     l1399:
  1496     0425  1FE2               	btfss	___fladd@grs,7
  1497     0426  2C28               	goto	u1851
  1498     0427  2C29               	goto	u1850
  1499     0428                     u1851:
  1500     0428  2C2A               	goto	l451
  1501     0429                     u1850:
  1502     0429                     l1401:
  1503     0429  144F               	bsf	___fladd@b,0
  1504     042A                     l451:
  1505     042A  1C62               	btfss	___fladd@grs,0
  1506     042B  2C2D               	goto	u1861
  1507     042C  2C2E               	goto	u1860
  1508     042D                     u1861:
  1509     042D  2C31               	goto	l1405
  1510     042E                     u1860:
  1511     042E                     l1403:
  1512     042E  1403               	setc
  1513     042F  0DE2               	rlf	___fladd@grs,f
  1514     0430  2C33               	goto	l1407
  1515     0431                     l1405:
  1516     0431  1003               	clrc
  1517     0432  0DE2               	rlf	___fladd@grs,f
  1518     0433                     l1407:
  1519     0433  0861               	movf	___fladd@bexp,w
  1520     0434  1903               	btfsc	3,2
  1521     0435  2C37               	goto	u1871
  1522     0436  2C38               	goto	u1870
  1523     0437                     u1871:
  1524     0437  2C3A               	goto	l1411
  1525     0438                     u1870:
  1526     0438                     l1409:
  1527     0438  3001               	movlw	1
  1528     0439  02E1               	subwf	___fladd@bexp,f
  1529     043A                     l1411:
  1530     043A  1FD1               	btfss	___fladd@b+2,7
  1531     043B  2C3D               	goto	u1881
  1532     043C  2C3E               	goto	u1880
  1533     043D                     u1881:
  1534     043D  2C1C               	goto	l1397
  1535     043E                     u1880:
  1536     043E                     l1413:
  1537     043E  01E0               	clrf	___fladd@aexp
  1538     043F                     l1415:
  1539     043F  1FE2               	btfss	___fladd@grs,7
  1540     0440  2C42               	goto	u1891
  1541     0441  2C43               	goto	u1890
  1542     0442                     u1891:
  1543     0442  2C51               	goto	l1423
  1544     0443                     u1890:
  1545     0443                     l1417:
  1546     0443  0862               	movf	___fladd@grs,w
  1547     0444  397F               	andlw	127
  1548     0445  1903               	btfsc	3,2
  1549     0446  2C48               	goto	u1901
  1550     0447  2C49               	goto	u1900
  1551     0448                     u1901:
  1552     0448  2C4C               	goto	l457
  1553     0449                     u1900:
  1554     0449                     l1419:
  1555     0449  01E0               	clrf	___fladd@aexp
  1556     044A  0AE0               	incf	___fladd@aexp,f
  1557     044B  2C51               	goto	l1423
  1558     044C                     l457:
  1559     044C  1C4F               	btfss	___fladd@b,0
  1560     044D  2C4F               	goto	u1911
  1561     044E  2C50               	goto	u1910
  1562     044F                     u1911:
  1563     044F  2C51               	goto	l1423
  1564     0450                     u1910:
  1565     0450  2C49               	goto	l1419
  1566     0451                     l1423:
  1567     0451  0860               	movf	___fladd@aexp,w
  1568     0452  1903               	btfsc	3,2
  1569     0453  2C55               	goto	u1921
  1570     0454  2C56               	goto	u1920
  1571     0455                     u1921:
  1572     0455  2C8A               	goto	l460
  1573     0456                     u1920:
  1574     0456                     l1425:
  1575     0456  3001               	movlw	1
  1576     0457  07CF               	addwf	___fladd@b,f
  1577     0458  3000               	movlw	0
  1578     0459  1803               	skipnc
  1579     045A  3001               	movlw	1
  1580     045B  07D0               	addwf	___fladd@b+1,f
  1581     045C  3000               	movlw	0
  1582     045D  1803               	skipnc
  1583     045E  3001               	movlw	1
  1584     045F  07D1               	addwf	___fladd@b+2,f
  1585     0460  3000               	movlw	0
  1586     0461  1803               	skipnc
  1587     0462  3001               	movlw	1
  1588     0463  07D2               	addwf	___fladd@b+3,f
  1589     0464                     l1427:
  1590     0464  1C52               	btfss	___fladd@b+3,0
  1591     0465  2C67               	goto	u1931
  1592     0466  2C68               	goto	u1930
  1593     0467                     u1931:
  1594     0467  2C8A               	goto	l460
  1595     0468                     u1930:
  1596     0468                     l1429:
  1597     0468  084F               	movf	___fladd@b,w
  1598     0469  00D7               	movwf	??___fladd
  1599     046A  0850               	movf	___fladd@b+1,w
  1600     046B  00D8               	movwf	??___fladd+1
  1601     046C  0851               	movf	___fladd@b+2,w
  1602     046D  00D9               	movwf	??___fladd+2
  1603     046E  0852               	movf	___fladd@b+3,w
  1604     046F  00DA               	movwf	??___fladd+3
  1605     0470  3001               	movlw	1
  1606     0471  00DB               	movwf	??___fladd+4
  1607     0472                     u1945:
  1608     0472  0D5A               	rlf	??___fladd+3,w
  1609     0473  0CDA               	rrf	??___fladd+3,f
  1610     0474  0CD9               	rrf	??___fladd+2,f
  1611     0475  0CD8               	rrf	??___fladd+1,f
  1612     0476  0CD7               	rrf	??___fladd,f
  1613     0477                     u1940:
  1614     0477  0BDB               	decfsz	??___fladd+4,f
  1615     0478  2C72               	goto	u1945
  1616     0479  085A               	movf	??___fladd+3,w
  1617     047A  00D2               	movwf	___fladd@b+3
  1618     047B  0859               	movf	??___fladd+2,w
  1619     047C  00D1               	movwf	___fladd@b+2
  1620     047D  0858               	movf	??___fladd+1,w
  1621     047E  00D0               	movwf	___fladd@b+1
  1622     047F  0857               	movf	??___fladd,w
  1623     0480  00CF               	movwf	___fladd@b
  1624     0481  0A61               	incf	___fladd@bexp,w
  1625     0482  1903               	btfsc	3,2
  1626     0483  2C85               	goto	u1951
  1627     0484  2C86               	goto	u1950
  1628     0485                     u1951:
  1629     0485  2C8A               	goto	l460
  1630     0486                     u1950:
  1631     0486                     l1431:
  1632     0486  3001               	movlw	1
  1633     0487  00D7               	movwf	??___fladd
  1634     0488  0857               	movf	??___fladd,w
  1635     0489  07E1               	addwf	___fladd@bexp,f
  1636     048A                     l460:
  1637     048A  0A61               	incf	___fladd@bexp,w
  1638     048B  1903               	btfsc	3,2
  1639     048C  2C8E               	goto	u1961
  1640     048D  2C8F               	goto	u1960
  1641     048E                     u1961:
  1642     048E  2C94               	goto	l1435
  1643     048F                     u1960:
  1644     048F                     l1433:
  1645     048F  0861               	movf	___fladd@bexp,w
  1646     0490  1D03               	btfss	3,2
  1647     0491  2C93               	goto	u1971
  1648     0492  2C94               	goto	u1970
  1649     0493                     u1971:
  1650     0493  2CA2               	goto	l1441
  1651     0494                     u1970:
  1652     0494                     l1435:
  1653     0494  3000               	movlw	0
  1654     0495  00D2               	movwf	___fladd@b+3
  1655     0496  3000               	movlw	0
  1656     0497  00D1               	movwf	___fladd@b+2
  1657     0498  3000               	movlw	0
  1658     0499  00D0               	movwf	___fladd@b+1
  1659     049A  3000               	movlw	0
  1660     049B  00CF               	movwf	___fladd@b
  1661     049C                     l1437:
  1662     049C  0861               	movf	___fladd@bexp,w
  1663     049D  1D03               	btfss	3,2
  1664     049E  2CA0               	goto	u1981
  1665     049F  2CA1               	goto	u1980
  1666     04A0                     u1981:
  1667     04A0  2CA2               	goto	l1441
  1668     04A1                     u1980:
  1669     04A1                     l1439:
  1670     04A1  01DF               	clrf	___fladd@signs
  1671     04A2                     l1441:
  1672     04A2  1C61               	btfss	___fladd@bexp,0
  1673     04A3  2CA5               	goto	u1991
  1674     04A4  2CA6               	goto	u1990
  1675     04A5                     u1991:
  1676     04A5  2CA8               	goto	l1445
  1677     04A6                     u1990:
  1678     04A6                     l1443:
  1679     04A6  17D1               	bsf	___fladd@b+2,7
  1680     04A7  2CAC               	goto	l468
  1681     04A8                     l1445:
  1682     04A8  307F               	movlw	127
  1683     04A9  00D7               	movwf	??___fladd
  1684     04AA  0857               	movf	??___fladd,w
  1685     04AB  05D1               	andwf	___fladd@b+2,f
  1686     04AC                     l468:
  1687     04AC  0861               	movf	___fladd@bexp,w
  1688     04AD  00D7               	movwf	??___fladd
  1689     04AE  1003               	clrc
  1690     04AF  0C57               	rrf	??___fladd,w
  1691     04B0  00D2               	movwf	___fladd@b+3
  1692     04B1                     l1447:
  1693     04B1  1FDF               	btfss	___fladd@signs,7
  1694     04B2  2CB4               	goto	u2001
  1695     04B3  2CB5               	goto	u2000
  1696     04B4                     u2001:
  1697     04B4  2CB6               	goto	l469
  1698     04B5                     u2000:
  1699     04B5                     l1449:
  1700     04B5  17D2               	bsf	___fladd@b+3,7
  1701     04B6                     l469:
  1702     04B6                     l439:
  1703     04B6  0008               	return
  1704     04B7                     __end_of___fladd:
  1705                           
  1706                           	psect	text3
  1707     0EEE                     __ptext3:	
  1708 ;; *************** function ___set_duty_cycle *****************
  1709 ;; Defined at:
  1710 ;;		line 64 in file "main.c"
  1711 ;; Parameters:    Size  Location     Type
  1712 ;;  duty_cycle      2   77[BANK0 ] int 
  1713 ;; Auto vars:     Size  Location     Type
  1714 ;;  dc_period       4    6[BANK1 ] float 
  1715 ;;  dc              4    2[BANK1 ] float 
  1716 ;;  reg_value       2   10[BANK1 ] int 
  1717 ;; Return value:  Size  Location     Type
  1718 ;;                  1    wreg      void 
  1719 ;; Registers used:
  1720 ;;		wreg, status,2, status,0, btemp+1, pclath, cstack
  1721 ;; Tracked objects:
  1722 ;;		On entry : 0/0
  1723 ;;		On exit  : 0/0
  1724 ;;		Unchanged: 0/0
  1725 ;; Data sizes:     COMMON   BANK0   BANK1   BANK3   BANK2
  1726 ;;      Params:         0       2       0       0       0
  1727 ;;      Locals:         0       0      10       0       0
  1728 ;;      Temps:          0       0       2       0       0
  1729 ;;      Totals:         0       2      12       0       0
  1730 ;;Total ram usage:       14 bytes
  1731 ;; Hardware stack levels used: 1
  1732 ;; Hardware stack levels required when called: 2
  1733 ;; This function calls:
  1734 ;;		___fldiv
  1735 ;;		___flmul
  1736 ;;		___fltol
  1737 ;;		___xxtofl
  1738 ;; This function is called by:
  1739 ;;		_main
  1740 ;; This function uses a non-reentrant model
  1741 ;;
  1742                           
  1743     0EEE                     ___set_duty_cycle:	
  1744                           ;psect for function ___set_duty_cycle
  1745                           
  1746     0EEE                     l1789:	
  1747                           ;incstack = 0
  1748                           ; Regs used in ___set_duty_cycle: [wreg+status,2+status,0+btemp+1+pclath+cstack]
  1749                           
  1750                           
  1751                           ;main.c: 65:     float dc = (float) duty_cycle / 100;
  1752     0EEE  3042               	movlw	66
  1753     0EEF  1283               	bcf	3,5	;RP0=0, select bank0
  1754     0EF0  1303               	bcf	3,6	;RP1=0, select bank0
  1755     0EF1  00B8               	movwf	___fldiv@a+3
  1756     0EF2  30C8               	movlw	200
  1757     0EF3  00B7               	movwf	___fldiv@a+2
  1758     0EF4  3000               	movlw	0
  1759     0EF5  00B6               	movwf	___fldiv@a+1
  1760     0EF6  3000               	movlw	0
  1761     0EF7  00B5               	movwf	___fldiv@a
  1762     0EF8  086D               	movf	___set_duty_cycle@duty_cycle,w
  1763     0EF9  00F0               	movwf	___xxtofl@val
  1764     0EFA  086E               	movf	___set_duty_cycle@duty_cycle+1,w
  1765     0EFB  00F1               	movwf	___xxtofl@val+1
  1766     0EFC  3000               	movlw	0
  1767     0EFD  1BF1               	btfsc	___xxtofl@val+1,7
  1768     0EFE  30FF               	movlw	255
  1769     0EFF  00F2               	movwf	___xxtofl@val+2
  1770     0F00  00F3               	movwf	___xxtofl@val+3
  1771     0F01  3001               	movlw	1
  1772     0F02  120A  158A  2571  120A  158A  	fcall	___xxtofl
  1773     0F07  0873               	movf	?___xxtofl+3,w
  1774     0F08  1283               	bcf	3,5	;RP0=0, select bank0
  1775     0F09  1303               	bcf	3,6	;RP1=0, select bank0
  1776     0F0A  00BC               	movwf	___fldiv@b+3
  1777     0F0B  0872               	movf	?___xxtofl+2,w
  1778     0F0C  00BB               	movwf	___fldiv@b+2
  1779     0F0D  0871               	movf	?___xxtofl+1,w
  1780     0F0E  00BA               	movwf	___fldiv@b+1
  1781     0F0F  0870               	movf	?___xxtofl,w
  1782     0F10  00B9               	movwf	___fldiv@b
  1783     0F11  120A  118A  208C  120A  158A  	fcall	___fldiv
  1784     0F16  1283               	bcf	3,5	;RP0=0, select bank0
  1785     0F17  1303               	bcf	3,6	;RP1=0, select bank0
  1786     0F18  0838               	movf	?___fldiv+3,w
  1787     0F19  1683               	bsf	3,5	;RP0=1, select bank1
  1788     0F1A  1303               	bcf	3,6	;RP1=0, select bank1
  1789     0F1B  00A5               	movwf	(___set_duty_cycle@dc+3)^(0+128)
  1790     0F1C  1283               	bcf	3,5	;RP0=0, select bank0
  1791     0F1D  1303               	bcf	3,6	;RP1=0, select bank0
  1792     0F1E  0837               	movf	?___fldiv+2,w
  1793     0F1F  1683               	bsf	3,5	;RP0=1, select bank1
  1794     0F20  1303               	bcf	3,6	;RP1=0, select bank1
  1795     0F21  00A4               	movwf	(___set_duty_cycle@dc+2)^(0+128)
  1796     0F22  1283               	bcf	3,5	;RP0=0, select bank0
  1797     0F23  1303               	bcf	3,6	;RP1=0, select bank0
  1798     0F24  0836               	movf	?___fldiv+1,w
  1799     0F25  1683               	bsf	3,5	;RP0=1, select bank1
  1800     0F26  1303               	bcf	3,6	;RP1=0, select bank1
  1801     0F27  00A3               	movwf	(___set_duty_cycle@dc+1)^(0+128)
  1802     0F28  1283               	bcf	3,5	;RP0=0, select bank0
  1803     0F29  1303               	bcf	3,6	;RP1=0, select bank0
  1804     0F2A  0835               	movf	?___fldiv,w
  1805     0F2B  1683               	bsf	3,5	;RP0=1, select bank1
  1806     0F2C  1303               	bcf	3,6	;RP1=0, select bank1
  1807     0F2D  00A2               	movwf	___set_duty_cycle@dc^(0+128)
  1808                           
  1809                           ;main.c: 66:     float dc_period = dc * PWM_PERIOD;
  1810     0F2E  0831               	movf	(_PWM_PERIOD+3)^(0+128),w
  1811     0F2F  1283               	bcf	3,5	;RP0=0, select bank0
  1812     0F30  1303               	bcf	3,6	;RP1=0, select bank0
  1813     0F31  00A3               	movwf	___flmul@b+3
  1814     0F32  1683               	bsf	3,5	;RP0=1, select bank1
  1815     0F33  1303               	bcf	3,6	;RP1=0, select bank1
  1816     0F34  0830               	movf	(_PWM_PERIOD+2)^(0+128),w
  1817     0F35  1283               	bcf	3,5	;RP0=0, select bank0
  1818     0F36  1303               	bcf	3,6	;RP1=0, select bank0
  1819     0F37  00A2               	movwf	___flmul@b+2
  1820     0F38  1683               	bsf	3,5	;RP0=1, select bank1
  1821     0F39  1303               	bcf	3,6	;RP1=0, select bank1
  1822     0F3A  082F               	movf	(_PWM_PERIOD+1)^(0+128),w
  1823     0F3B  1283               	bcf	3,5	;RP0=0, select bank0
  1824     0F3C  1303               	bcf	3,6	;RP1=0, select bank0
  1825     0F3D  00A1               	movwf	___flmul@b+1
  1826     0F3E  1683               	bsf	3,5	;RP0=1, select bank1
  1827     0F3F  1303               	bcf	3,6	;RP1=0, select bank1
  1828     0F40  082E               	movf	_PWM_PERIOD^(0+128),w
  1829     0F41  1283               	bcf	3,5	;RP0=0, select bank0
  1830     0F42  1303               	bcf	3,6	;RP1=0, select bank0
  1831     0F43  00A0               	movwf	___flmul@b
  1832     0F44  1683               	bsf	3,5	;RP0=1, select bank1
  1833     0F45  1303               	bcf	3,6	;RP1=0, select bank1
  1834     0F46  0825               	movf	(___set_duty_cycle@dc+3)^(0+128),w
  1835     0F47  1283               	bcf	3,5	;RP0=0, select bank0
  1836     0F48  1303               	bcf	3,6	;RP1=0, select bank0
  1837     0F49  00A7               	movwf	___flmul@a+3
  1838     0F4A  1683               	bsf	3,5	;RP0=1, select bank1
  1839     0F4B  1303               	bcf	3,6	;RP1=0, select bank1
  1840     0F4C  0824               	movf	(___set_duty_cycle@dc+2)^(0+128),w
  1841     0F4D  1283               	bcf	3,5	;RP0=0, select bank0
  1842     0F4E  1303               	bcf	3,6	;RP1=0, select bank0
  1843     0F4F  00A6               	movwf	___flmul@a+2
  1844     0F50  1683               	bsf	3,5	;RP0=1, select bank1
  1845     0F51  1303               	bcf	3,6	;RP1=0, select bank1
  1846     0F52  0823               	movf	(___set_duty_cycle@dc+1)^(0+128),w
  1847     0F53  1283               	bcf	3,5	;RP0=0, select bank0
  1848     0F54  1303               	bcf	3,6	;RP1=0, select bank0
  1849     0F55  00A5               	movwf	___flmul@a+1
  1850     0F56  1683               	bsf	3,5	;RP0=1, select bank1
  1851     0F57  1303               	bcf	3,6	;RP1=0, select bank1
  1852     0F58  0822               	movf	___set_duty_cycle@dc^(0+128),w
  1853     0F59  1283               	bcf	3,5	;RP0=0, select bank0
  1854     0F5A  1303               	bcf	3,6	;RP1=0, select bank0
  1855     0F5B  00A4               	movwf	___flmul@a
  1856     0F5C  120A  118A  24B7  120A  158A  	fcall	___flmul
  1857     0F61  1283               	bcf	3,5	;RP0=0, select bank0
  1858     0F62  1303               	bcf	3,6	;RP1=0, select bank0
  1859     0F63  0823               	movf	?___flmul+3,w
  1860     0F64  1683               	bsf	3,5	;RP0=1, select bank1
  1861     0F65  1303               	bcf	3,6	;RP1=0, select bank1
  1862     0F66  00A9               	movwf	(___set_duty_cycle@dc_period+3)^(0+128)
  1863     0F67  1283               	bcf	3,5	;RP0=0, select bank0
  1864     0F68  1303               	bcf	3,6	;RP1=0, select bank0
  1865     0F69  0822               	movf	?___flmul+2,w
  1866     0F6A  1683               	bsf	3,5	;RP0=1, select bank1
  1867     0F6B  1303               	bcf	3,6	;RP1=0, select bank1
  1868     0F6C  00A8               	movwf	(___set_duty_cycle@dc_period+2)^(0+128)
  1869     0F6D  1283               	bcf	3,5	;RP0=0, select bank0
  1870     0F6E  1303               	bcf	3,6	;RP1=0, select bank0
  1871     0F6F  0821               	movf	?___flmul+1,w
  1872     0F70  1683               	bsf	3,5	;RP0=1, select bank1
  1873     0F71  1303               	bcf	3,6	;RP1=0, select bank1
  1874     0F72  00A7               	movwf	(___set_duty_cycle@dc_period+1)^(0+128)
  1875     0F73  1283               	bcf	3,5	;RP0=0, select bank0
  1876     0F74  1303               	bcf	3,6	;RP1=0, select bank0
  1877     0F75  0820               	movf	?___flmul,w
  1878     0F76  1683               	bsf	3,5	;RP0=1, select bank1
  1879     0F77  1303               	bcf	3,6	;RP1=0, select bank1
  1880     0F78  00A6               	movwf	___set_duty_cycle@dc_period^(0+128)
  1881                           
  1882                           ;main.c: 67:     int reg_value = (int) ((dc_period * 16000000) / 16);
  1883     0F79  0829               	movf	(___set_duty_cycle@dc_period+3)^(0+128),w
  1884     0F7A  1283               	bcf	3,5	;RP0=0, select bank0
  1885     0F7B  1303               	bcf	3,6	;RP1=0, select bank0
  1886     0F7C  00A7               	movwf	___flmul@a+3
  1887     0F7D  1683               	bsf	3,5	;RP0=1, select bank1
  1888     0F7E  1303               	bcf	3,6	;RP1=0, select bank1
  1889     0F7F  0828               	movf	(___set_duty_cycle@dc_period+2)^(0+128),w
  1890     0F80  1283               	bcf	3,5	;RP0=0, select bank0
  1891     0F81  1303               	bcf	3,6	;RP1=0, select bank0
  1892     0F82  00A6               	movwf	___flmul@a+2
  1893     0F83  1683               	bsf	3,5	;RP0=1, select bank1
  1894     0F84  1303               	bcf	3,6	;RP1=0, select bank1
  1895     0F85  0827               	movf	(___set_duty_cycle@dc_period+1)^(0+128),w
  1896     0F86  1283               	bcf	3,5	;RP0=0, select bank0
  1897     0F87  1303               	bcf	3,6	;RP1=0, select bank0
  1898     0F88  00A5               	movwf	___flmul@a+1
  1899     0F89  1683               	bsf	3,5	;RP0=1, select bank1
  1900     0F8A  1303               	bcf	3,6	;RP1=0, select bank1
  1901     0F8B  0826               	movf	___set_duty_cycle@dc_period^(0+128),w
  1902     0F8C  1283               	bcf	3,5	;RP0=0, select bank0
  1903     0F8D  1303               	bcf	3,6	;RP1=0, select bank0
  1904     0F8E  00A4               	movwf	___flmul@a
  1905     0F8F  304B               	movlw	75
  1906     0F90  00A3               	movwf	___flmul@b+3
  1907     0F91  3074               	movlw	116
  1908     0F92  00A2               	movwf	___flmul@b+2
  1909     0F93  3024               	movlw	36
  1910     0F94  00A1               	movwf	___flmul@b+1
  1911     0F95  3000               	movlw	0
  1912     0F96  00A0               	movwf	___flmul@b
  1913     0F97  120A  118A  24B7  120A  158A  	fcall	___flmul
  1914     0F9C  1283               	bcf	3,5	;RP0=0, select bank0
  1915     0F9D  1303               	bcf	3,6	;RP1=0, select bank0
  1916     0F9E  0823               	movf	?___flmul+3,w
  1917     0F9F  00BC               	movwf	___fldiv@b+3
  1918     0FA0  0822               	movf	?___flmul+2,w
  1919     0FA1  00BB               	movwf	___fldiv@b+2
  1920     0FA2  0821               	movf	?___flmul+1,w
  1921     0FA3  00BA               	movwf	___fldiv@b+1
  1922     0FA4  0820               	movf	?___flmul,w
  1923     0FA5  00B9               	movwf	___fldiv@b
  1924     0FA6  3041               	movlw	65
  1925     0FA7  00B8               	movwf	___fldiv@a+3
  1926     0FA8  3080               	movlw	128
  1927     0FA9  00B7               	movwf	___fldiv@a+2
  1928     0FAA  3000               	movlw	0
  1929     0FAB  00B6               	movwf	___fldiv@a+1
  1930     0FAC  3000               	movlw	0
  1931     0FAD  00B5               	movwf	___fldiv@a
  1932     0FAE  120A  118A  208C  120A  158A  	fcall	___fldiv
  1933     0FB3  1283               	bcf	3,5	;RP0=0, select bank0
  1934     0FB4  1303               	bcf	3,6	;RP1=0, select bank0
  1935     0FB5  0838               	movf	?___fldiv+3,w
  1936     0FB6  00E6               	movwf	___fltol@f1+3
  1937     0FB7  0837               	movf	?___fldiv+2,w
  1938     0FB8  00E5               	movwf	___fltol@f1+2
  1939     0FB9  0836               	movf	?___fldiv+1,w
  1940     0FBA  00E4               	movwf	___fltol@f1+1
  1941     0FBB  0835               	movf	?___fldiv,w
  1942     0FBC  00E3               	movwf	___fltol@f1
  1943     0FBD  120A  158A  24F9  120A  158A  	fcall	___fltol
  1944     0FC2  1283               	bcf	3,5	;RP0=0, select bank0
  1945     0FC3  1303               	bcf	3,6	;RP1=0, select bank0
  1946     0FC4  0864               	movf	?___fltol+1,w
  1947     0FC5  1683               	bsf	3,5	;RP0=1, select bank1
  1948     0FC6  1303               	bcf	3,6	;RP1=0, select bank1
  1949     0FC7  00AB               	movwf	(___set_duty_cycle@reg_value+1)^(0+128)
  1950     0FC8  1283               	bcf	3,5	;RP0=0, select bank0
  1951     0FC9  1303               	bcf	3,6	;RP1=0, select bank0
  1952     0FCA  0863               	movf	?___fltol,w
  1953     0FCB  1683               	bsf	3,5	;RP0=1, select bank1
  1954     0FCC  1303               	bcf	3,6	;RP1=0, select bank1
  1955     0FCD  00AA               	movwf	___set_duty_cycle@reg_value^(0+128)
  1956     0FCE                     l1791:
  1957                           
  1958                           ;main.c: 73:     CCPR1L = reg_value >> 2;
  1959     0FCE  082B               	movf	(___set_duty_cycle@reg_value+1)^(0+128),w
  1960     0FCF  00A1               	movwf	(??___set_duty_cycle^(0+128)+1)
  1961     0FD0  082A               	movf	___set_duty_cycle@reg_value^(0+128),w
  1962     0FD1  00A0               	movwf	??___set_duty_cycle^(0+128)
  1963     0FD2  0D21               	rlf	(??___set_duty_cycle^(0+128)+1),w
  1964     0FD3  0CA1               	rrf	(??___set_duty_cycle^(0+128)+1),f
  1965     0FD4  0CA0               	rrf	??___set_duty_cycle^(0+128),f
  1966     0FD5  0D21               	rlf	(??___set_duty_cycle^(0+128)+1),w
  1967     0FD6  0CA1               	rrf	(??___set_duty_cycle^(0+128)+1),f
  1968     0FD7  0CA0               	rrf	??___set_duty_cycle^(0+128),f
  1969     0FD8  0820               	movf	??___set_duty_cycle^(0+128),w
  1970     0FD9  1283               	bcf	3,5	;RP0=0, select bank0
  1971     0FDA  1303               	bcf	3,6	;RP1=0, select bank0
  1972     0FDB  0095               	movwf	21	;volatile
  1973     0FDC                     l1793:
  1974                           
  1975                           ;main.c: 74:     CCP1CONbits.CCP1X = (reg_value & 0b00000001);
  1976     0FDC  1683               	bsf	3,5	;RP0=1, select bank1
  1977     0FDD  1303               	bcf	3,6	;RP1=0, select bank1
  1978     0FDE  082A               	movf	___set_duty_cycle@reg_value^(0+128),w
  1979     0FDF  3901               	andlw	1
  1980     0FE0  00A0               	movwf	??___set_duty_cycle^(0+128)
  1981     0FE1  0EA0               	swapf	??___set_duty_cycle^(0+128),f
  1982     0FE2  0DA0               	rlf	??___set_duty_cycle^(0+128),f
  1983     0FE3  1283               	bcf	3,5	;RP0=0, select bank0
  1984     0FE4  1303               	bcf	3,6	;RP1=0, select bank0
  1985     0FE5  0817               	movf	23,w	;volatile
  1986     0FE6  1683               	bsf	3,5	;RP0=1, select bank1
  1987     0FE7  1303               	bcf	3,6	;RP1=0, select bank1
  1988     0FE8  0620               	xorwf	??___set_duty_cycle^(0+128),w
  1989     0FE9  39DF               	andlw	-33
  1990     0FEA  0620               	xorwf	??___set_duty_cycle^(0+128),w
  1991     0FEB  1283               	bcf	3,5	;RP0=0, select bank0
  1992     0FEC  1303               	bcf	3,6	;RP1=0, select bank0
  1993     0FED  0097               	movwf	23	;volatile
  1994     0FEE                     l1795:
  1995                           
  1996                           ;main.c: 75:     CCP1CONbits.CCP1Y = (reg_value & 0b00000010);
  1997     0FEE  1683               	bsf	3,5	;RP0=1, select bank1
  1998     0FEF  1303               	bcf	3,6	;RP1=0, select bank1
  1999     0FF0  082A               	movf	___set_duty_cycle@reg_value^(0+128),w
  2000     0FF1  3902               	andlw	2
  2001     0FF2  00A0               	movwf	??___set_duty_cycle^(0+128)
  2002     0FF3  0EA0               	swapf	??___set_duty_cycle^(0+128),f
  2003     0FF4  1283               	bcf	3,5	;RP0=0, select bank0
  2004     0FF5  1303               	bcf	3,6	;RP1=0, select bank0
  2005     0FF6  0817               	movf	23,w	;volatile
  2006     0FF7  1683               	bsf	3,5	;RP0=1, select bank1
  2007     0FF8  1303               	bcf	3,6	;RP1=0, select bank1
  2008     0FF9  0620               	xorwf	??___set_duty_cycle^(0+128),w
  2009     0FFA  39EF               	andlw	-17
  2010     0FFB  0620               	xorwf	??___set_duty_cycle^(0+128),w
  2011     0FFC  1283               	bcf	3,5	;RP0=0, select bank0
  2012     0FFD  1303               	bcf	3,6	;RP1=0, select bank0
  2013     0FFE  0097               	movwf	23	;volatile
  2014     0FFF                     l27:
  2015     0FFF  0008               	return
  2016     1000                     __end_of___set_duty_cycle:
  2017                           
  2018                           	psect	text4
  2019     0D71                     __ptext4:	
  2020 ;; *************** function ___xxtofl *****************
  2021 ;; Defined at:
  2022 ;;		line 10 in file "/opt/microchip/xc8/v2.45/pic/sources/c99/common/xxtofl.c"
  2023 ;; Parameters:    Size  Location     Type
  2024 ;;  sign            1    wreg     unsigned char 
  2025 ;;  val             4    0[COMMON] long 
  2026 ;; Auto vars:     Size  Location     Type
  2027 ;;  sign            1    8[COMMON] unsigned char 
  2028 ;;  arg             4   10[COMMON] unsigned long 
  2029 ;;  exp             1    9[COMMON] unsigned char 
  2030 ;; Return value:  Size  Location     Type
  2031 ;;                  4    0[COMMON] unsigned char 
  2032 ;; Registers used:
  2033 ;;		wreg, status,2, status,0
  2034 ;; Tracked objects:
  2035 ;;		On entry : 0/0
  2036 ;;		On exit  : 0/0
  2037 ;;		Unchanged: 0/0
  2038 ;; Data sizes:     COMMON   BANK0   BANK1   BANK3   BANK2
  2039 ;;      Params:         4       0       0       0       0
  2040 ;;      Locals:         6       0       0       0       0
  2041 ;;      Temps:          4       0       0       0       0
  2042 ;;      Totals:        14       0       0       0       0
  2043 ;;Total ram usage:       14 bytes
  2044 ;; Hardware stack levels used: 1
  2045 ;; This function calls:
  2046 ;;		Nothing
  2047 ;; This function is called by:
  2048 ;;		___set_pwm_freq
  2049 ;;		___set_duty_cycle
  2050 ;; This function uses a non-reentrant model
  2051 ;;
  2052                           
  2053     0D71                     ___xxtofl:	
  2054                           ;psect for function ___xxtofl
  2055                           
  2056                           
  2057                           ;incstack = 0
  2058                           ; Regs used in ___xxtofl: [wreg+status,2+status,0]
  2059                           ;___xxtofl@sign stored from wreg
  2060     0D71  00F8               	movwf	___xxtofl@sign
  2061     0D72                     l1733:
  2062     0D72  0878               	movf	___xxtofl@sign,w
  2063     0D73  1903               	btfsc	3,2
  2064     0D74  2D76               	goto	u2671
  2065     0D75  2D77               	goto	u2670
  2066     0D76                     u2671:
  2067     0D76  2D8B               	goto	l1739
  2068     0D77                     u2670:
  2069     0D77                     l1735:
  2070     0D77  1FF3               	btfss	___xxtofl@val+3,7
  2071     0D78  2D7A               	goto	u2681
  2072     0D79  2D7B               	goto	u2680
  2073     0D7A                     u2681:
  2074     0D7A  2D8B               	goto	l1739
  2075     0D7B                     u2680:
  2076     0D7B                     l1737:
  2077     0D7B  0970               	comf	___xxtofl@val,w
  2078     0D7C  00FA               	movwf	___xxtofl@arg
  2079     0D7D  0971               	comf	___xxtofl@val+1,w
  2080     0D7E  00FB               	movwf	___xxtofl@arg+1
  2081     0D7F  0972               	comf	___xxtofl@val+2,w
  2082     0D80  00FC               	movwf	___xxtofl@arg+2
  2083     0D81  0973               	comf	___xxtofl@val+3,w
  2084     0D82  00FD               	movwf	___xxtofl@arg+3
  2085     0D83  0AFA               	incf	___xxtofl@arg,f
  2086     0D84  1903               	skipnz
  2087     0D85  0AFB               	incf	___xxtofl@arg+1,f
  2088     0D86  1903               	skipnz
  2089     0D87  0AFC               	incf	___xxtofl@arg+2,f
  2090     0D88  1903               	skipnz
  2091     0D89  0AFD               	incf	___xxtofl@arg+3,f
  2092     0D8A  2D93               	goto	l566
  2093     0D8B                     l1739:
  2094     0D8B  0873               	movf	___xxtofl@val+3,w
  2095     0D8C  00FD               	movwf	___xxtofl@arg+3
  2096     0D8D  0872               	movf	___xxtofl@val+2,w
  2097     0D8E  00FC               	movwf	___xxtofl@arg+2
  2098     0D8F  0871               	movf	___xxtofl@val+1,w
  2099     0D90  00FB               	movwf	___xxtofl@arg+1
  2100     0D91  0870               	movf	___xxtofl@val,w
  2101     0D92  00FA               	movwf	___xxtofl@arg
  2102     0D93                     l566:
  2103     0D93  0873               	movf	___xxtofl@val+3,w
  2104     0D94  0472               	iorwf	___xxtofl@val+2,w
  2105     0D95  0471               	iorwf	___xxtofl@val+1,w
  2106     0D96  0470               	iorwf	___xxtofl@val,w
  2107     0D97  1D03               	skipz
  2108     0D98  2D9A               	goto	u2691
  2109     0D99  2D9B               	goto	u2690
  2110     0D9A                     u2691:
  2111     0D9A  2DA4               	goto	l1745
  2112     0D9B                     u2690:
  2113     0D9B                     l1741:
  2114     0D9B  3000               	movlw	0
  2115     0D9C  00F3               	movwf	?___xxtofl+3
  2116     0D9D  3000               	movlw	0
  2117     0D9E  00F2               	movwf	?___xxtofl+2
  2118     0D9F  3000               	movlw	0
  2119     0DA0  00F1               	movwf	?___xxtofl+1
  2120     0DA1  3000               	movlw	0
  2121     0DA2  00F0               	movwf	?___xxtofl
  2122     0DA3  2E28               	goto	l568
  2123     0DA4                     l1745:
  2124     0DA4  3096               	movlw	150
  2125     0DA5  00F9               	movwf	___xxtofl@exp
  2126     0DA6  2DB4               	goto	l1749
  2127     0DA7                     l1747:
  2128     0DA7  3001               	movlw	1
  2129     0DA8  00F4               	movwf	??___xxtofl
  2130     0DA9  0874               	movf	??___xxtofl,w
  2131     0DAA  07F9               	addwf	___xxtofl@exp,f
  2132     0DAB  3001               	movlw	1
  2133     0DAC                     u2705:
  2134     0DAC  1003               	clrc
  2135     0DAD  0CFD               	rrf	___xxtofl@arg+3,f
  2136     0DAE  0CFC               	rrf	___xxtofl@arg+2,f
  2137     0DAF  0CFB               	rrf	___xxtofl@arg+1,f
  2138     0DB0  0CFA               	rrf	___xxtofl@arg,f
  2139     0DB1  3EFF               	addlw	-1
  2140     0DB2  1D03               	skipz
  2141     0DB3  2DAC               	goto	u2705
  2142     0DB4                     l1749:
  2143     0DB4  30FE               	movlw	254
  2144     0DB5  057D               	andwf	___xxtofl@arg+3,w
  2145     0DB6  1D03               	btfss	3,2
  2146     0DB7  2DB9               	goto	u2711
  2147     0DB8  2DBA               	goto	u2710
  2148     0DB9                     u2711:
  2149     0DB9  2DA7               	goto	l1747
  2150     0DBA                     u2710:
  2151     0DBA  2DD6               	goto	l572
  2152     0DBB                     l1751:
  2153     0DBB  3001               	movlw	1
  2154     0DBC  00F4               	movwf	??___xxtofl
  2155     0DBD  0874               	movf	??___xxtofl,w
  2156     0DBE  07F9               	addwf	___xxtofl@exp,f
  2157     0DBF                     l1753:
  2158     0DBF  3001               	movlw	1
  2159     0DC0  07FA               	addwf	___xxtofl@arg,f
  2160     0DC1  3000               	movlw	0
  2161     0DC2  1803               	skipnc
  2162     0DC3  3001               	movlw	1
  2163     0DC4  07FB               	addwf	___xxtofl@arg+1,f
  2164     0DC5  3000               	movlw	0
  2165     0DC6  1803               	skipnc
  2166     0DC7  3001               	movlw	1
  2167     0DC8  07FC               	addwf	___xxtofl@arg+2,f
  2168     0DC9  3000               	movlw	0
  2169     0DCA  1803               	skipnc
  2170     0DCB  3001               	movlw	1
  2171     0DCC  07FD               	addwf	___xxtofl@arg+3,f
  2172     0DCD                     l1755:
  2173     0DCD  3001               	movlw	1
  2174     0DCE                     u2725:
  2175     0DCE  1003               	clrc
  2176     0DCF  0CFD               	rrf	___xxtofl@arg+3,f
  2177     0DD0  0CFC               	rrf	___xxtofl@arg+2,f
  2178     0DD1  0CFB               	rrf	___xxtofl@arg+1,f
  2179     0DD2  0CFA               	rrf	___xxtofl@arg,f
  2180     0DD3  3EFF               	addlw	-1
  2181     0DD4  1D03               	skipz
  2182     0DD5  2DCE               	goto	u2725
  2183     0DD6                     l572:
  2184     0DD6  30FF               	movlw	255
  2185     0DD7  057D               	andwf	___xxtofl@arg+3,w
  2186     0DD8  1D03               	btfss	3,2
  2187     0DD9  2DDB               	goto	u2731
  2188     0DDA  2DDC               	goto	u2730
  2189     0DDB                     u2731:
  2190     0DDB  2DBB               	goto	l1751
  2191     0DDC                     u2730:
  2192     0DDC  2DE8               	goto	l1759
  2193     0DDD                     l1757:
  2194     0DDD  3001               	movlw	1
  2195     0DDE  02F9               	subwf	___xxtofl@exp,f
  2196     0DDF  3001               	movlw	1
  2197     0DE0  00F4               	movwf	??___xxtofl
  2198     0DE1                     u2745:
  2199     0DE1  1003               	clrc
  2200     0DE2  0DFA               	rlf	___xxtofl@arg,f
  2201     0DE3  0DFB               	rlf	___xxtofl@arg+1,f
  2202     0DE4  0DFC               	rlf	___xxtofl@arg+2,f
  2203     0DE5  0DFD               	rlf	___xxtofl@arg+3,f
  2204     0DE6  0BF4               	decfsz	??___xxtofl,f
  2205     0DE7  2DE1               	goto	u2745
  2206     0DE8                     l1759:
  2207     0DE8  1BFC               	btfsc	___xxtofl@arg+2,7
  2208     0DE9  2DEB               	goto	u2751
  2209     0DEA  2DEC               	goto	u2750
  2210     0DEB                     u2751:
  2211     0DEB  2DF2               	goto	l579
  2212     0DEC                     u2750:
  2213     0DEC                     l1761:
  2214     0DEC  3002               	movlw	2
  2215     0DED  0279               	subwf	___xxtofl@exp,w
  2216     0DEE  1803               	skipnc
  2217     0DEF  2DF1               	goto	u2761
  2218     0DF0  2DF2               	goto	u2760
  2219     0DF1                     u2761:
  2220     0DF1  2DDD               	goto	l1757
  2221     0DF2                     u2760:
  2222     0DF2                     l579:
  2223     0DF2  1879               	btfsc	___xxtofl@exp,0
  2224     0DF3  2DF5               	goto	u2771
  2225     0DF4  2DF6               	goto	u2770
  2226     0DF5                     u2771:
  2227     0DF5  2DFE               	goto	l580
  2228     0DF6                     u2770:
  2229     0DF6                     l1763:
  2230     0DF6  30FF               	movlw	255
  2231     0DF7  05FA               	andwf	___xxtofl@arg,f
  2232     0DF8  30FF               	movlw	255
  2233     0DF9  05FB               	andwf	___xxtofl@arg+1,f
  2234     0DFA  307F               	movlw	127
  2235     0DFB  05FC               	andwf	___xxtofl@arg+2,f
  2236     0DFC  30FF               	movlw	255
  2237     0DFD  05FD               	andwf	___xxtofl@arg+3,f
  2238     0DFE                     l580:
  2239     0DFE  1003               	clrc
  2240     0DFF  0CF9               	rrf	___xxtofl@exp,f
  2241     0E00                     l1765:
  2242     0E00  0879               	movf	___xxtofl@exp,w
  2243     0E01  00F4               	movwf	??___xxtofl
  2244     0E02  01F5               	clrf	??___xxtofl+1
  2245     0E03  01F6               	clrf	??___xxtofl+2
  2246     0E04  01F7               	clrf	??___xxtofl+3
  2247     0E05  3018               	movlw	24
  2248     0E06                     u2785:
  2249     0E06  1003               	clrc
  2250     0E07  0DF4               	rlf	??___xxtofl,f
  2251     0E08  0DF5               	rlf	??___xxtofl+1,f
  2252     0E09  0DF6               	rlf	??___xxtofl+2,f
  2253     0E0A  0DF7               	rlf	??___xxtofl+3,f
  2254     0E0B                     u2780:
  2255     0E0B  3EFF               	addlw	-1
  2256     0E0C  1D03               	skipz
  2257     0E0D  2E06               	goto	u2785
  2258     0E0E  0874               	movf	??___xxtofl,w
  2259     0E0F  04FA               	iorwf	___xxtofl@arg,f
  2260     0E10  0875               	movf	??___xxtofl+1,w
  2261     0E11  04FB               	iorwf	___xxtofl@arg+1,f
  2262     0E12  0876               	movf	??___xxtofl+2,w
  2263     0E13  04FC               	iorwf	___xxtofl@arg+2,f
  2264     0E14  0877               	movf	??___xxtofl+3,w
  2265     0E15  04FD               	iorwf	___xxtofl@arg+3,f
  2266     0E16                     l1767:
  2267     0E16  0878               	movf	___xxtofl@sign,w
  2268     0E17  1903               	btfsc	3,2
  2269     0E18  2E1A               	goto	u2791
  2270     0E19  2E1B               	goto	u2790
  2271     0E1A                     u2791:
  2272     0E1A  2E20               	goto	l1773
  2273     0E1B                     u2790:
  2274     0E1B                     l1769:
  2275     0E1B  1FF3               	btfss	___xxtofl@val+3,7
  2276     0E1C  2E1E               	goto	u2801
  2277     0E1D  2E1F               	goto	u2800
  2278     0E1E                     u2801:
  2279     0E1E  2E20               	goto	l1773
  2280     0E1F                     u2800:
  2281     0E1F                     l1771:
  2282     0E1F  17FD               	bsf	___xxtofl@arg+3,7
  2283     0E20                     l1773:
  2284     0E20  087D               	movf	___xxtofl@arg+3,w
  2285     0E21  00F3               	movwf	?___xxtofl+3
  2286     0E22  087C               	movf	___xxtofl@arg+2,w
  2287     0E23  00F2               	movwf	?___xxtofl+2
  2288     0E24  087B               	movf	___xxtofl@arg+1,w
  2289     0E25  00F1               	movwf	?___xxtofl+1
  2290     0E26  087A               	movf	___xxtofl@arg,w
  2291     0E27  00F0               	movwf	?___xxtofl
  2292     0E28                     l568:
  2293     0E28  0008               	return
  2294     0E29                     __end_of___xxtofl:
  2295                           
  2296                           	psect	text5
  2297     0CF9                     __ptext5:	
  2298 ;; *************** function ___fltol *****************
  2299 ;; Defined at:
  2300 ;;		line 43 in file "/opt/microchip/xc8/v2.45/pic/sources/c99/common/fltol.c"
  2301 ;; Parameters:    Size  Location     Type
  2302 ;;  f1              4   67[BANK0 ] unsigned char 
  2303 ;; Auto vars:     Size  Location     Type
  2304 ;;  exp1            1   76[BANK0 ] unsigned char 
  2305 ;;  sign1           1   75[BANK0 ] unsigned char 
  2306 ;; Return value:  Size  Location     Type
  2307 ;;                  4   67[BANK0 ] long 
  2308 ;; Registers used:
  2309 ;;		wreg, status,2, status,0
  2310 ;; Tracked objects:
  2311 ;;		On entry : 0/0
  2312 ;;		On exit  : 0/0
  2313 ;;		Unchanged: 0/0
  2314 ;; Data sizes:     COMMON   BANK0   BANK1   BANK3   BANK2
  2315 ;;      Params:         0       4       0       0       0
  2316 ;;      Locals:         0       2       0       0       0
  2317 ;;      Temps:          0       4       0       0       0
  2318 ;;      Totals:         0      10       0       0       0
  2319 ;;Total ram usage:       10 bytes
  2320 ;; Hardware stack levels used: 1
  2321 ;; This function calls:
  2322 ;;		Nothing
  2323 ;; This function is called by:
  2324 ;;		___set_pwm_freq
  2325 ;;		___set_duty_cycle
  2326 ;; This function uses a non-reentrant model
  2327 ;;
  2328                           
  2329     0CF9                     ___fltol:	
  2330                           ;psect for function ___fltol
  2331                           
  2332     0CF9                     l1221:	
  2333                           ;incstack = 0
  2334                           ; Regs used in ___fltol: [wreg+status,2+status,0]
  2335                           
  2336     0CF9  1003               	clrc
  2337     0CFA  1283               	bcf	3,5	;RP0=0, select bank0
  2338     0CFB  1303               	bcf	3,6	;RP1=0, select bank0
  2339     0CFC  0D65               	rlf	___fltol@f1+2,w
  2340     0CFD  0D66               	rlf	___fltol@f1+3,w
  2341     0CFE  00EC               	movwf	___fltol@exp1
  2342     0CFF  086C               	movf	___fltol@exp1,w
  2343     0D00  1D03               	btfss	3,2
  2344     0D01  2D03               	goto	u1451
  2345     0D02  2D04               	goto	u1450
  2346     0D03                     u1451:
  2347     0D03  2D0D               	goto	l1227
  2348     0D04                     u1450:
  2349     0D04                     l1223:
  2350     0D04  3000               	movlw	0
  2351     0D05  00E6               	movwf	?___fltol+3
  2352     0D06  3000               	movlw	0
  2353     0D07  00E5               	movwf	?___fltol+2
  2354     0D08  3000               	movlw	0
  2355     0D09  00E4               	movwf	?___fltol+1
  2356     0D0A  3000               	movlw	0
  2357     0D0B  00E3               	movwf	?___fltol
  2358     0D0C  2D70               	goto	l319
  2359     0D0D                     l1227:
  2360     0D0D  0863               	movf	___fltol@f1,w
  2361     0D0E  00E7               	movwf	??___fltol
  2362     0D0F  0864               	movf	___fltol@f1+1,w
  2363     0D10  00E8               	movwf	??___fltol+1
  2364     0D11  0865               	movf	___fltol@f1+2,w
  2365     0D12  00E9               	movwf	??___fltol+2
  2366     0D13  0866               	movf	___fltol@f1+3,w
  2367     0D14  00EA               	movwf	??___fltol+3
  2368     0D15  301F               	movlw	31
  2369     0D16                     u1465:
  2370     0D16  1003               	clrc
  2371     0D17  0CEA               	rrf	??___fltol+3,f
  2372     0D18  0CE9               	rrf	??___fltol+2,f
  2373     0D19  0CE8               	rrf	??___fltol+1,f
  2374     0D1A  0CE7               	rrf	??___fltol,f
  2375     0D1B                     u1460:
  2376     0D1B  3EFF               	addlw	-1
  2377     0D1C  1D03               	skipz
  2378     0D1D  2D16               	goto	u1465
  2379     0D1E  0867               	movf	??___fltol,w
  2380     0D1F  00EB               	movwf	___fltol@sign1
  2381     0D20                     l1229:
  2382     0D20  17E5               	bsf	___fltol@f1+2,7
  2383     0D21                     l1231:
  2384     0D21  30FF               	movlw	255
  2385     0D22  05E3               	andwf	___fltol@f1,f
  2386     0D23  30FF               	movlw	255
  2387     0D24  05E4               	andwf	___fltol@f1+1,f
  2388     0D25  30FF               	movlw	255
  2389     0D26  05E5               	andwf	___fltol@f1+2,f
  2390     0D27  3000               	movlw	0
  2391     0D28  05E6               	andwf	___fltol@f1+3,f
  2392     0D29                     l1233:
  2393     0D29  3096               	movlw	150
  2394     0D2A  02EC               	subwf	___fltol@exp1,f
  2395     0D2B                     l1235:
  2396     0D2B  1FEC               	btfss	___fltol@exp1,7
  2397     0D2C  2D2E               	goto	u1471
  2398     0D2D  2D2F               	goto	u1470
  2399     0D2E                     u1471:
  2400     0D2E  2D49               	goto	l1245
  2401     0D2F                     u1470:
  2402     0D2F                     l1237:
  2403     0D2F  086C               	movf	___fltol@exp1,w
  2404     0D30  3A80               	xorlw	128
  2405     0D31  3E97               	addlw	151
  2406     0D32  1803               	skipnc
  2407     0D33  2D35               	goto	u1481
  2408     0D34  2D36               	goto	u1480
  2409     0D35                     u1481:
  2410     0D35  2D37               	goto	l1243
  2411     0D36                     u1480:
  2412     0D36  2D04               	goto	l1223
  2413     0D37                     l1243:
  2414     0D37  3001               	movlw	1
  2415     0D38                     u1495:
  2416     0D38  1003               	clrc
  2417     0D39  0CE6               	rrf	___fltol@f1+3,f
  2418     0D3A  0CE5               	rrf	___fltol@f1+2,f
  2419     0D3B  0CE4               	rrf	___fltol@f1+1,f
  2420     0D3C  0CE3               	rrf	___fltol@f1,f
  2421     0D3D  3EFF               	addlw	-1
  2422     0D3E  1D03               	skipz
  2423     0D3F  2D38               	goto	u1495
  2424     0D40  3001               	movlw	1
  2425     0D41  00E7               	movwf	??___fltol
  2426     0D42  0867               	movf	??___fltol,w
  2427     0D43  07EC               	addwf	___fltol@exp1,f
  2428     0D44  1D03               	btfss	3,2
  2429     0D45  2D47               	goto	u1501
  2430     0D46  2D48               	goto	u1500
  2431     0D47                     u1501:
  2432     0D47  2D37               	goto	l1243
  2433     0D48                     u1500:
  2434     0D48  2D60               	goto	l1253
  2435     0D49                     l1245:
  2436     0D49  3020               	movlw	32
  2437     0D4A  026C               	subwf	___fltol@exp1,w
  2438     0D4B  1C03               	skipc
  2439     0D4C  2D4E               	goto	u1511
  2440     0D4D  2D4F               	goto	u1510
  2441     0D4E                     u1511:
  2442     0D4E  2D5B               	goto	l326
  2443     0D4F                     u1510:
  2444     0D4F  2D04               	goto	l1223
  2445     0D50                     l1251:
  2446     0D50  3001               	movlw	1
  2447     0D51  00E7               	movwf	??___fltol
  2448     0D52                     u1525:
  2449     0D52  1003               	clrc
  2450     0D53  0DE3               	rlf	___fltol@f1,f
  2451     0D54  0DE4               	rlf	___fltol@f1+1,f
  2452     0D55  0DE5               	rlf	___fltol@f1+2,f
  2453     0D56  0DE6               	rlf	___fltol@f1+3,f
  2454     0D57  0BE7               	decfsz	??___fltol,f
  2455     0D58  2D52               	goto	u1525
  2456     0D59  3001               	movlw	1
  2457     0D5A  02EC               	subwf	___fltol@exp1,f
  2458     0D5B                     l326:
  2459     0D5B  086C               	movf	___fltol@exp1,w
  2460     0D5C  1D03               	btfss	3,2
  2461     0D5D  2D5F               	goto	u1531
  2462     0D5E  2D60               	goto	u1530
  2463     0D5F                     u1531:
  2464     0D5F  2D50               	goto	l1251
  2465     0D60                     u1530:
  2466     0D60                     l1253:
  2467     0D60  086B               	movf	___fltol@sign1,w
  2468     0D61  1903               	btfsc	3,2
  2469     0D62  2D64               	goto	u1541
  2470     0D63  2D65               	goto	u1540
  2471     0D64                     u1541:
  2472     0D64  2D70               	goto	l329
  2473     0D65                     u1540:
  2474     0D65                     l1255:
  2475     0D65  09E3               	comf	___fltol@f1,f
  2476     0D66  09E4               	comf	___fltol@f1+1,f
  2477     0D67  09E5               	comf	___fltol@f1+2,f
  2478     0D68  09E6               	comf	___fltol@f1+3,f
  2479     0D69  0AE3               	incf	___fltol@f1,f
  2480     0D6A  1903               	skipnz
  2481     0D6B  0AE4               	incf	___fltol@f1+1,f
  2482     0D6C  1903               	skipnz
  2483     0D6D  0AE5               	incf	___fltol@f1+2,f
  2484     0D6E  1903               	skipnz
  2485     0D6F  0AE6               	incf	___fltol@f1+3,f
  2486     0D70                     l329:
  2487     0D70                     l319:
  2488     0D70  0008               	return
  2489     0D71                     __end_of___fltol:
  2490                           
  2491                           	psect	text6
  2492     04B7                     __ptext6:	
  2493 ;; *************** function ___flmul *****************
  2494 ;; Defined at:
  2495 ;;		line 8 in file "/opt/microchip/xc8/v2.45/pic/sources/c99/common/sprcmul.c"
  2496 ;; Parameters:    Size  Location     Type
  2497 ;;  b               4    0[BANK0 ] long 
  2498 ;;  a               4    4[BANK0 ] long 
  2499 ;; Auto vars:     Size  Location     Type
  2500 ;;  prod            4   15[BANK0 ] struct .
  2501 ;;  grs             4    9[BANK0 ] unsigned long 
  2502 ;;  temp            2   19[BANK0 ] struct .
  2503 ;;  bexp            1   14[BANK0 ] unsigned char 
  2504 ;;  aexp            1   13[BANK0 ] unsigned char 
  2505 ;;  sign            1    8[BANK0 ] unsigned char 
  2506 ;; Return value:  Size  Location     Type
  2507 ;;                  4    0[BANK0 ] unsigned char 
  2508 ;; Registers used:
  2509 ;;		wreg, status,2, status,0, btemp+1, pclath, cstack
  2510 ;; Tracked objects:
  2511 ;;		On entry : 0/0
  2512 ;;		On exit  : 0/0
  2513 ;;		Unchanged: 0/0
  2514 ;; Data sizes:     COMMON   BANK0   BANK1   BANK3   BANK2
  2515 ;;      Params:         0       8       0       0       0
  2516 ;;      Locals:         0      13       0       0       0
  2517 ;;      Temps:          5       0       0       0       0
  2518 ;;      Totals:         5      21       0       0       0
  2519 ;;Total ram usage:       26 bytes
  2520 ;; Hardware stack levels used: 1
  2521 ;; Hardware stack levels required when called: 1
  2522 ;; This function calls:
  2523 ;;		__Umul8_16
  2524 ;; This function is called by:
  2525 ;;		___set_pwm_freq
  2526 ;;		___set_duty_cycle
  2527 ;; This function uses a non-reentrant model
  2528 ;;
  2529                           
  2530     04B7                     ___flmul:	
  2531                           ;psect for function ___flmul
  2532                           
  2533     04B7                     l1593:	
  2534                           ;incstack = 0
  2535                           ; Regs used in ___flmul: [wreg+status,2+status,0+btemp+1+pclath+cstack]
  2536                           
  2537     04B7  1283               	bcf	3,5	;RP0=0, select bank0
  2538     04B8  1303               	bcf	3,6	;RP1=0, select bank0
  2539     04B9  0823               	movf	___flmul@b+3,w
  2540     04BA  3980               	andlw	128
  2541     04BB  00A8               	movwf	___flmul@sign
  2542     04BC                     l1595:
  2543     04BC  0823               	movf	___flmul@b+3,w
  2544     04BD  00F9               	movwf	??___flmul
  2545     04BE  0779               	addwf	??___flmul,w
  2546     04BF  00AE               	movwf	___flmul@bexp
  2547     04C0                     l1597:
  2548     04C0  1FA2               	btfss	___flmul@b+2,7
  2549     04C1  2CC3               	goto	u2301
  2550     04C2  2CC4               	goto	u2300
  2551     04C3                     u2301:
  2552     04C3  2CC5               	goto	l1601
  2553     04C4                     u2300:
  2554     04C4                     l1599:
  2555     04C4  142E               	bsf	___flmul@bexp,0
  2556     04C5                     l1601:
  2557     04C5  082E               	movf	___flmul@bexp,w
  2558     04C6  1903               	btfsc	3,2
  2559     04C7  2CC9               	goto	u2311
  2560     04C8  2CCA               	goto	u2310
  2561     04C9                     u2311:
  2562     04C9  2CD9               	goto	l1609
  2563     04CA                     u2310:
  2564     04CA                     l1603:
  2565     04CA  0A2E               	incf	___flmul@bexp,w
  2566     04CB  1D03               	btfss	3,2
  2567     04CC  2CCE               	goto	u2321
  2568     04CD  2CCF               	goto	u2320
  2569     04CE                     u2321:
  2570     04CE  2CD7               	goto	l1607
  2571     04CF                     u2320:
  2572     04CF                     l1605:
  2573     04CF  3000               	movlw	0
  2574     04D0  00A3               	movwf	___flmul@b+3
  2575     04D1  3000               	movlw	0
  2576     04D2  00A2               	movwf	___flmul@b+2
  2577     04D3  3000               	movlw	0
  2578     04D4  00A1               	movwf	___flmul@b+1
  2579     04D5  3000               	movlw	0
  2580     04D6  00A0               	movwf	___flmul@b
  2581     04D7                     l1607:
  2582     04D7  17A2               	bsf	___flmul@b+2,7
  2583     04D8  2CE1               	goto	l1611
  2584     04D9                     l1609:
  2585     04D9  3000               	movlw	0
  2586     04DA  00A3               	movwf	___flmul@b+3
  2587     04DB  3000               	movlw	0
  2588     04DC  00A2               	movwf	___flmul@b+2
  2589     04DD  3000               	movlw	0
  2590     04DE  00A1               	movwf	___flmul@b+1
  2591     04DF  3000               	movlw	0
  2592     04E0  00A0               	movwf	___flmul@b
  2593     04E1                     l1611:
  2594     04E1  0827               	movf	___flmul@a+3,w
  2595     04E2  3980               	andlw	128
  2596     04E3  00F9               	movwf	??___flmul
  2597     04E4  0879               	movf	??___flmul,w
  2598     04E5  06A8               	xorwf	___flmul@sign,f
  2599     04E6                     l1613:
  2600     04E6  0827               	movf	___flmul@a+3,w
  2601     04E7  00F9               	movwf	??___flmul
  2602     04E8  0779               	addwf	??___flmul,w
  2603     04E9  00AD               	movwf	___flmul@aexp
  2604     04EA                     l1615:
  2605     04EA  1FA6               	btfss	___flmul@a+2,7
  2606     04EB  2CED               	goto	u2331
  2607     04EC  2CEE               	goto	u2330
  2608     04ED                     u2331:
  2609     04ED  2CEF               	goto	l1619
  2610     04EE                     u2330:
  2611     04EE                     l1617:
  2612     04EE  142D               	bsf	___flmul@aexp,0
  2613     04EF                     l1619:
  2614     04EF  082D               	movf	___flmul@aexp,w
  2615     04F0  1903               	btfsc	3,2
  2616     04F1  2CF3               	goto	u2341
  2617     04F2  2CF4               	goto	u2340
  2618     04F3                     u2341:
  2619     04F3  2D03               	goto	l1627
  2620     04F4                     u2340:
  2621     04F4                     l1621:
  2622     04F4  0A2D               	incf	___flmul@aexp,w
  2623     04F5  1D03               	btfss	3,2
  2624     04F6  2CF8               	goto	u2351
  2625     04F7  2CF9               	goto	u2350
  2626     04F8                     u2351:
  2627     04F8  2D01               	goto	l1625
  2628     04F9                     u2350:
  2629     04F9                     l1623:
  2630     04F9  3000               	movlw	0
  2631     04FA  00A7               	movwf	___flmul@a+3
  2632     04FB  3000               	movlw	0
  2633     04FC  00A6               	movwf	___flmul@a+2
  2634     04FD  3000               	movlw	0
  2635     04FE  00A5               	movwf	___flmul@a+1
  2636     04FF  3000               	movlw	0
  2637     0500  00A4               	movwf	___flmul@a
  2638     0501                     l1625:
  2639     0501  17A6               	bsf	___flmul@a+2,7
  2640     0502  2D0B               	goto	l1629
  2641     0503                     l1627:
  2642     0503  3000               	movlw	0
  2643     0504  00A7               	movwf	___flmul@a+3
  2644     0505  3000               	movlw	0
  2645     0506  00A6               	movwf	___flmul@a+2
  2646     0507  3000               	movlw	0
  2647     0508  00A5               	movwf	___flmul@a+1
  2648     0509  3000               	movlw	0
  2649     050A  00A4               	movwf	___flmul@a
  2650     050B                     l1629:
  2651     050B  082D               	movf	___flmul@aexp,w
  2652     050C  1903               	btfsc	3,2
  2653     050D  2D0F               	goto	u2361
  2654     050E  2D10               	goto	u2360
  2655     050F                     u2361:
  2656     050F  2D15               	goto	l1633
  2657     0510                     u2360:
  2658     0510                     l1631:
  2659     0510  082E               	movf	___flmul@bexp,w
  2660     0511  1D03               	btfss	3,2
  2661     0512  2D14               	goto	u2371
  2662     0513  2D15               	goto	u2370
  2663     0514                     u2371:
  2664     0514  2D1E               	goto	l1637
  2665     0515                     u2370:
  2666     0515                     l1633:
  2667     0515  3000               	movlw	0
  2668     0516  00A3               	movwf	?___flmul+3
  2669     0517  3000               	movlw	0
  2670     0518  00A2               	movwf	?___flmul+2
  2671     0519  3000               	movlw	0
  2672     051A  00A1               	movwf	?___flmul+1
  2673     051B  3000               	movlw	0
  2674     051C  00A0               	movwf	?___flmul
  2675     051D  2FFB               	goto	l522
  2676     051E                     l1637:
  2677     051E  0820               	movf	___flmul@b,w
  2678     051F  00F0               	movwf	__Umul8_16@multiplicand
  2679     0520  0826               	movf	___flmul@a+2,w
  2680     0521  120A  158A  24D2  120A  118A  	fcall	__Umul8_16
  2681     0526  0871               	movf	?__Umul8_16+1,w
  2682     0527  1283               	bcf	3,5	;RP0=0, select bank0
  2683     0528  1303               	bcf	3,6	;RP1=0, select bank0
  2684     0529  00B4               	movwf	___flmul@temp+1
  2685     052A  0870               	movf	?__Umul8_16,w
  2686     052B  00B3               	movwf	___flmul@temp
  2687     052C                     l1639:
  2688     052C  0833               	movf	___flmul@temp,w
  2689     052D  00F9               	movwf	??___flmul
  2690     052E  01FA               	clrf	??___flmul+1
  2691     052F  01FB               	clrf	??___flmul+2
  2692     0530  01FC               	clrf	??___flmul+3
  2693     0531  087C               	movf	??___flmul+3,w
  2694     0532  00AC               	movwf	___flmul@grs+3
  2695     0533  087B               	movf	??___flmul+2,w
  2696     0534  00AB               	movwf	___flmul@grs+2
  2697     0535  087A               	movf	??___flmul+1,w
  2698     0536  00AA               	movwf	___flmul@grs+1
  2699     0537  0879               	movf	??___flmul,w
  2700     0538  00A9               	movwf	___flmul@grs
  2701     0539                     l1641:
  2702     0539  0834               	movf	___flmul@temp+1,w
  2703     053A  00F9               	movwf	??___flmul
  2704     053B  01FA               	clrf	??___flmul+1
  2705     053C  01FB               	clrf	??___flmul+2
  2706     053D  01FC               	clrf	??___flmul+3
  2707     053E  087C               	movf	??___flmul+3,w
  2708     053F  00B2               	movwf	___flmul@prod+3
  2709     0540  087B               	movf	??___flmul+2,w
  2710     0541  00B1               	movwf	___flmul@prod+2
  2711     0542  087A               	movf	??___flmul+1,w
  2712     0543  00B0               	movwf	___flmul@prod+1
  2713     0544  0879               	movf	??___flmul,w
  2714     0545  00AF               	movwf	___flmul@prod
  2715     0546  0821               	movf	___flmul@b+1,w
  2716     0547  00F0               	movwf	__Umul8_16@multiplicand
  2717     0548  0825               	movf	___flmul@a+1,w
  2718     0549  120A  158A  24D2  120A  118A  	fcall	__Umul8_16
  2719     054E  0871               	movf	?__Umul8_16+1,w
  2720     054F  1283               	bcf	3,5	;RP0=0, select bank0
  2721     0550  1303               	bcf	3,6	;RP1=0, select bank0
  2722     0551  00B4               	movwf	___flmul@temp+1
  2723     0552  0870               	movf	?__Umul8_16,w
  2724     0553  00B3               	movwf	___flmul@temp
  2725     0554                     l1643:
  2726     0554  0833               	movf	___flmul@temp,w
  2727     0555  00F9               	movwf	??___flmul
  2728     0556  01FA               	clrf	??___flmul+1
  2729     0557  01FB               	clrf	??___flmul+2
  2730     0558  01FC               	clrf	??___flmul+3
  2731     0559  0879               	movf	??___flmul,w
  2732     055A  07A9               	addwf	___flmul@grs,f
  2733     055B  087A               	movf	??___flmul+1,w
  2734     055C  1103               	clrz
  2735     055D  1803               	skipnc
  2736     055E  3E01               	addlw	1
  2737     055F  1903               	skipnz
  2738     0560  2D62               	goto	u2381
  2739     0561  07AA               	addwf	___flmul@grs+1,f
  2740     0562                     u2381:
  2741     0562  087B               	movf	??___flmul+2,w
  2742     0563  1103               	clrz
  2743     0564  1803               	skipnc
  2744     0565  3E01               	addlw	1
  2745     0566  1903               	skipnz
  2746     0567  2D69               	goto	u2382
  2747     0568  07AB               	addwf	___flmul@grs+2,f
  2748     0569                     u2382:
  2749     0569  087C               	movf	??___flmul+3,w
  2750     056A  1103               	clrz
  2751     056B  1803               	skipnc
  2752     056C  3E01               	addlw	1
  2753     056D  1903               	skipnz
  2754     056E  2D70               	goto	u2383
  2755     056F  07AC               	addwf	___flmul@grs+3,f
  2756     0570                     u2383:
  2757     0570                     l1645:
  2758     0570  0834               	movf	___flmul@temp+1,w
  2759     0571  00F9               	movwf	??___flmul
  2760     0572  01FA               	clrf	??___flmul+1
  2761     0573  01FB               	clrf	??___flmul+2
  2762     0574  01FC               	clrf	??___flmul+3
  2763     0575  0879               	movf	??___flmul,w
  2764     0576  07AF               	addwf	___flmul@prod,f
  2765     0577  087A               	movf	??___flmul+1,w
  2766     0578  1103               	clrz
  2767     0579  1803               	skipnc
  2768     057A  3E01               	addlw	1
  2769     057B  1903               	skipnz
  2770     057C  2D7E               	goto	u2391
  2771     057D  07B0               	addwf	___flmul@prod+1,f
  2772     057E                     u2391:
  2773     057E  087B               	movf	??___flmul+2,w
  2774     057F  1103               	clrz
  2775     0580  1803               	skipnc
  2776     0581  3E01               	addlw	1
  2777     0582  1903               	skipnz
  2778     0583  2D85               	goto	u2392
  2779     0584  07B1               	addwf	___flmul@prod+2,f
  2780     0585                     u2392:
  2781     0585  087C               	movf	??___flmul+3,w
  2782     0586  1103               	clrz
  2783     0587  1803               	skipnc
  2784     0588  3E01               	addlw	1
  2785     0589  1903               	skipnz
  2786     058A  2D8C               	goto	u2393
  2787     058B  07B2               	addwf	___flmul@prod+3,f
  2788     058C                     u2393:
  2789     058C  0822               	movf	___flmul@b+2,w
  2790     058D  00F0               	movwf	__Umul8_16@multiplicand
  2791     058E  0824               	movf	___flmul@a,w
  2792     058F  120A  158A  24D2  120A  118A  	fcall	__Umul8_16
  2793     0594  0871               	movf	?__Umul8_16+1,w
  2794     0595  1283               	bcf	3,5	;RP0=0, select bank0
  2795     0596  1303               	bcf	3,6	;RP1=0, select bank0
  2796     0597  00B4               	movwf	___flmul@temp+1
  2797     0598  0870               	movf	?__Umul8_16,w
  2798     0599  00B3               	movwf	___flmul@temp
  2799     059A                     l1647:
  2800     059A  0833               	movf	___flmul@temp,w
  2801     059B  00F9               	movwf	??___flmul
  2802     059C  01FA               	clrf	??___flmul+1
  2803     059D  01FB               	clrf	??___flmul+2
  2804     059E  01FC               	clrf	??___flmul+3
  2805     059F  0879               	movf	??___flmul,w
  2806     05A0  07A9               	addwf	___flmul@grs,f
  2807     05A1  087A               	movf	??___flmul+1,w
  2808     05A2  1103               	clrz
  2809     05A3  1803               	skipnc
  2810     05A4  3E01               	addlw	1
  2811     05A5  1903               	skipnz
  2812     05A6  2DA8               	goto	u2401
  2813     05A7  07AA               	addwf	___flmul@grs+1,f
  2814     05A8                     u2401:
  2815     05A8  087B               	movf	??___flmul+2,w
  2816     05A9  1103               	clrz
  2817     05AA  1803               	skipnc
  2818     05AB  3E01               	addlw	1
  2819     05AC  1903               	skipnz
  2820     05AD  2DAF               	goto	u2402
  2821     05AE  07AB               	addwf	___flmul@grs+2,f
  2822     05AF                     u2402:
  2823     05AF  087C               	movf	??___flmul+3,w
  2824     05B0  1103               	clrz
  2825     05B1  1803               	skipnc
  2826     05B2  3E01               	addlw	1
  2827     05B3  1903               	skipnz
  2828     05B4  2DB6               	goto	u2403
  2829     05B5  07AC               	addwf	___flmul@grs+3,f
  2830     05B6                     u2403:
  2831     05B6                     l1649:
  2832     05B6  0834               	movf	___flmul@temp+1,w
  2833     05B7  00F9               	movwf	??___flmul
  2834     05B8  01FA               	clrf	??___flmul+1
  2835     05B9  01FB               	clrf	??___flmul+2
  2836     05BA  01FC               	clrf	??___flmul+3
  2837     05BB  0879               	movf	??___flmul,w
  2838     05BC  07AF               	addwf	___flmul@prod,f
  2839     05BD  087A               	movf	??___flmul+1,w
  2840     05BE  1103               	clrz
  2841     05BF  1803               	skipnc
  2842     05C0  3E01               	addlw	1
  2843     05C1  1903               	skipnz
  2844     05C2  2DC4               	goto	u2411
  2845     05C3  07B0               	addwf	___flmul@prod+1,f
  2846     05C4                     u2411:
  2847     05C4  087B               	movf	??___flmul+2,w
  2848     05C5  1103               	clrz
  2849     05C6  1803               	skipnc
  2850     05C7  3E01               	addlw	1
  2851     05C8  1903               	skipnz
  2852     05C9  2DCB               	goto	u2412
  2853     05CA  07B1               	addwf	___flmul@prod+2,f
  2854     05CB                     u2412:
  2855     05CB  087C               	movf	??___flmul+3,w
  2856     05CC  1103               	clrz
  2857     05CD  1803               	skipnc
  2858     05CE  3E01               	addlw	1
  2859     05CF  1903               	skipnz
  2860     05D0  2DD2               	goto	u2413
  2861     05D1  07B2               	addwf	___flmul@prod+3,f
  2862     05D2                     u2413:
  2863     05D2                     l1651:
  2864     05D2  3008               	movlw	8
  2865     05D3  00F9               	movwf	??___flmul
  2866     05D4                     u2425:
  2867     05D4  1003               	clrc
  2868     05D5  0DA9               	rlf	___flmul@grs,f
  2869     05D6  0DAA               	rlf	___flmul@grs+1,f
  2870     05D7  0DAB               	rlf	___flmul@grs+2,f
  2871     05D8  0DAC               	rlf	___flmul@grs+3,f
  2872     05D9  0BF9               	decfsz	??___flmul,f
  2873     05DA  2DD4               	goto	u2425
  2874     05DB                     l1653:
  2875     05DB  0821               	movf	___flmul@b+1,w
  2876     05DC  00F0               	movwf	__Umul8_16@multiplicand
  2877     05DD  0824               	movf	___flmul@a,w
  2878     05DE  120A  158A  24D2  120A  118A  	fcall	__Umul8_16
  2879     05E3  0871               	movf	?__Umul8_16+1,w
  2880     05E4  1283               	bcf	3,5	;RP0=0, select bank0
  2881     05E5  1303               	bcf	3,6	;RP1=0, select bank0
  2882     05E6  00B4               	movwf	___flmul@temp+1
  2883     05E7  0870               	movf	?__Umul8_16,w
  2884     05E8  00B3               	movwf	___flmul@temp
  2885     05E9                     l1655:
  2886     05E9  0833               	movf	___flmul@temp,w
  2887     05EA  00F9               	movwf	??___flmul
  2888     05EB  0834               	movf	___flmul@temp+1,w
  2889     05EC  00FA               	movwf	??___flmul+1
  2890     05ED  01FB               	clrf	??___flmul+2
  2891     05EE  01FC               	clrf	??___flmul+3
  2892     05EF  0879               	movf	??___flmul,w
  2893     05F0  07A9               	addwf	___flmul@grs,f
  2894     05F1  087A               	movf	??___flmul+1,w
  2895     05F2  1103               	clrz
  2896     05F3  1803               	skipnc
  2897     05F4  3E01               	addlw	1
  2898     05F5  1903               	skipnz
  2899     05F6  2DF8               	goto	u2431
  2900     05F7  07AA               	addwf	___flmul@grs+1,f
  2901     05F8                     u2431:
  2902     05F8  087B               	movf	??___flmul+2,w
  2903     05F9  1103               	clrz
  2904     05FA  1803               	skipnc
  2905     05FB  3E01               	addlw	1
  2906     05FC  1903               	skipnz
  2907     05FD  2DFF               	goto	u2432
  2908     05FE  07AB               	addwf	___flmul@grs+2,f
  2909     05FF                     u2432:
  2910     05FF  087C               	movf	??___flmul+3,w
  2911     0600  1103               	clrz
  2912     0601  1803               	skipnc
  2913     0602  3E01               	addlw	1
  2914     0603  1903               	skipnz
  2915     0604  2E06               	goto	u2433
  2916     0605  07AC               	addwf	___flmul@grs+3,f
  2917     0606                     u2433:
  2918     0606                     l1657:
  2919     0606  0820               	movf	___flmul@b,w
  2920     0607  00F0               	movwf	__Umul8_16@multiplicand
  2921     0608  0825               	movf	___flmul@a+1,w
  2922     0609  120A  158A  24D2  120A  118A  	fcall	__Umul8_16
  2923     060E  0871               	movf	?__Umul8_16+1,w
  2924     060F  1283               	bcf	3,5	;RP0=0, select bank0
  2925     0610  1303               	bcf	3,6	;RP1=0, select bank0
  2926     0611  00B4               	movwf	___flmul@temp+1
  2927     0612  0870               	movf	?__Umul8_16,w
  2928     0613  00B3               	movwf	___flmul@temp
  2929     0614                     l1659:
  2930     0614  0833               	movf	___flmul@temp,w
  2931     0615  00F9               	movwf	??___flmul
  2932     0616  0834               	movf	___flmul@temp+1,w
  2933     0617  00FA               	movwf	??___flmul+1
  2934     0618  01FB               	clrf	??___flmul+2
  2935     0619  01FC               	clrf	??___flmul+3
  2936     061A  0879               	movf	??___flmul,w
  2937     061B  07A9               	addwf	___flmul@grs,f
  2938     061C  087A               	movf	??___flmul+1,w
  2939     061D  1103               	clrz
  2940     061E  1803               	skipnc
  2941     061F  3E01               	addlw	1
  2942     0620  1903               	skipnz
  2943     0621  2E23               	goto	u2441
  2944     0622  07AA               	addwf	___flmul@grs+1,f
  2945     0623                     u2441:
  2946     0623  087B               	movf	??___flmul+2,w
  2947     0624  1103               	clrz
  2948     0625  1803               	skipnc
  2949     0626  3E01               	addlw	1
  2950     0627  1903               	skipnz
  2951     0628  2E2A               	goto	u2442
  2952     0629  07AB               	addwf	___flmul@grs+2,f
  2953     062A                     u2442:
  2954     062A  087C               	movf	??___flmul+3,w
  2955     062B  1103               	clrz
  2956     062C  1803               	skipnc
  2957     062D  3E01               	addlw	1
  2958     062E  1903               	skipnz
  2959     062F  2E31               	goto	u2443
  2960     0630  07AC               	addwf	___flmul@grs+3,f
  2961     0631                     u2443:
  2962     0631                     l1661:
  2963     0631  3008               	movlw	8
  2964     0632  00F9               	movwf	??___flmul
  2965     0633                     u2455:
  2966     0633  1003               	clrc
  2967     0634  0DA9               	rlf	___flmul@grs,f
  2968     0635  0DAA               	rlf	___flmul@grs+1,f
  2969     0636  0DAB               	rlf	___flmul@grs+2,f
  2970     0637  0DAC               	rlf	___flmul@grs+3,f
  2971     0638  0BF9               	decfsz	??___flmul,f
  2972     0639  2E33               	goto	u2455
  2973     063A  0820               	movf	___flmul@b,w
  2974     063B  00F0               	movwf	__Umul8_16@multiplicand
  2975     063C  0824               	movf	___flmul@a,w
  2976     063D  120A  158A  24D2  120A  118A  	fcall	__Umul8_16
  2977     0642  0871               	movf	?__Umul8_16+1,w
  2978     0643  1283               	bcf	3,5	;RP0=0, select bank0
  2979     0644  1303               	bcf	3,6	;RP1=0, select bank0
  2980     0645  00B4               	movwf	___flmul@temp+1
  2981     0646  0870               	movf	?__Umul8_16,w
  2982     0647  00B3               	movwf	___flmul@temp
  2983     0648                     l1663:
  2984     0648  0833               	movf	___flmul@temp,w
  2985     0649  00F9               	movwf	??___flmul
  2986     064A  0834               	movf	___flmul@temp+1,w
  2987     064B  00FA               	movwf	??___flmul+1
  2988     064C  01FB               	clrf	??___flmul+2
  2989     064D  01FC               	clrf	??___flmul+3
  2990     064E  0879               	movf	??___flmul,w
  2991     064F  07A9               	addwf	___flmul@grs,f
  2992     0650  087A               	movf	??___flmul+1,w
  2993     0651  1103               	clrz
  2994     0652  1803               	skipnc
  2995     0653  3E01               	addlw	1
  2996     0654  1903               	skipnz
  2997     0655  2E57               	goto	u2461
  2998     0656  07AA               	addwf	___flmul@grs+1,f
  2999     0657                     u2461:
  3000     0657  087B               	movf	??___flmul+2,w
  3001     0658  1103               	clrz
  3002     0659  1803               	skipnc
  3003     065A  3E01               	addlw	1
  3004     065B  1903               	skipnz
  3005     065C  2E5E               	goto	u2462
  3006     065D  07AB               	addwf	___flmul@grs+2,f
  3007     065E                     u2462:
  3008     065E  087C               	movf	??___flmul+3,w
  3009     065F  1103               	clrz
  3010     0660  1803               	skipnc
  3011     0661  3E01               	addlw	1
  3012     0662  1903               	skipnz
  3013     0663  2E65               	goto	u2463
  3014     0664  07AC               	addwf	___flmul@grs+3,f
  3015     0665                     u2463:
  3016     0665                     l1665:
  3017     0665  0821               	movf	___flmul@b+1,w
  3018     0666  00F0               	movwf	__Umul8_16@multiplicand
  3019     0667  0826               	movf	___flmul@a+2,w
  3020     0668  120A  158A  24D2  120A  118A  	fcall	__Umul8_16
  3021     066D  0871               	movf	?__Umul8_16+1,w
  3022     066E  1283               	bcf	3,5	;RP0=0, select bank0
  3023     066F  1303               	bcf	3,6	;RP1=0, select bank0
  3024     0670  00B4               	movwf	___flmul@temp+1
  3025     0671  0870               	movf	?__Umul8_16,w
  3026     0672  00B3               	movwf	___flmul@temp
  3027     0673  0833               	movf	___flmul@temp,w
  3028     0674  00F9               	movwf	??___flmul
  3029     0675  0834               	movf	___flmul@temp+1,w
  3030     0676  00FA               	movwf	??___flmul+1
  3031     0677  01FB               	clrf	??___flmul+2
  3032     0678  01FC               	clrf	??___flmul+3
  3033     0679  0879               	movf	??___flmul,w
  3034     067A  07AF               	addwf	___flmul@prod,f
  3035     067B  087A               	movf	??___flmul+1,w
  3036     067C  1103               	clrz
  3037     067D  1803               	skipnc
  3038     067E  3E01               	addlw	1
  3039     067F  1903               	skipnz
  3040     0680  2E82               	goto	u2471
  3041     0681  07B0               	addwf	___flmul@prod+1,f
  3042     0682                     u2471:
  3043     0682  087B               	movf	??___flmul+2,w
  3044     0683  1103               	clrz
  3045     0684  1803               	skipnc
  3046     0685  3E01               	addlw	1
  3047     0686  1903               	skipnz
  3048     0687  2E89               	goto	u2472
  3049     0688  07B1               	addwf	___flmul@prod+2,f
  3050     0689                     u2472:
  3051     0689  087C               	movf	??___flmul+3,w
  3052     068A  1103               	clrz
  3053     068B  1803               	skipnc
  3054     068C  3E01               	addlw	1
  3055     068D  1903               	skipnz
  3056     068E  2E90               	goto	u2473
  3057     068F  07B2               	addwf	___flmul@prod+3,f
  3058     0690                     u2473:
  3059     0690                     l1667:
  3060     0690  0822               	movf	___flmul@b+2,w
  3061     0691  00F0               	movwf	__Umul8_16@multiplicand
  3062     0692  0825               	movf	___flmul@a+1,w
  3063     0693  120A  158A  24D2  120A  118A  	fcall	__Umul8_16
  3064     0698  0871               	movf	?__Umul8_16+1,w
  3065     0699  1283               	bcf	3,5	;RP0=0, select bank0
  3066     069A  1303               	bcf	3,6	;RP1=0, select bank0
  3067     069B  00B4               	movwf	___flmul@temp+1
  3068     069C  0870               	movf	?__Umul8_16,w
  3069     069D  00B3               	movwf	___flmul@temp
  3070     069E                     l1669:
  3071     069E  0833               	movf	___flmul@temp,w
  3072     069F  00F9               	movwf	??___flmul
  3073     06A0  0834               	movf	___flmul@temp+1,w
  3074     06A1  00FA               	movwf	??___flmul+1
  3075     06A2  01FB               	clrf	??___flmul+2
  3076     06A3  01FC               	clrf	??___flmul+3
  3077     06A4  0879               	movf	??___flmul,w
  3078     06A5  07AF               	addwf	___flmul@prod,f
  3079     06A6  087A               	movf	??___flmul+1,w
  3080     06A7  1103               	clrz
  3081     06A8  1803               	skipnc
  3082     06A9  3E01               	addlw	1
  3083     06AA  1903               	skipnz
  3084     06AB  2EAD               	goto	u2481
  3085     06AC  07B0               	addwf	___flmul@prod+1,f
  3086     06AD                     u2481:
  3087     06AD  087B               	movf	??___flmul+2,w
  3088     06AE  1103               	clrz
  3089     06AF  1803               	skipnc
  3090     06B0  3E01               	addlw	1
  3091     06B1  1903               	skipnz
  3092     06B2  2EB4               	goto	u2482
  3093     06B3  07B1               	addwf	___flmul@prod+2,f
  3094     06B4                     u2482:
  3095     06B4  087C               	movf	??___flmul+3,w
  3096     06B5  1103               	clrz
  3097     06B6  1803               	skipnc
  3098     06B7  3E01               	addlw	1
  3099     06B8  1903               	skipnz
  3100     06B9  2EBB               	goto	u2483
  3101     06BA  07B2               	addwf	___flmul@prod+3,f
  3102     06BB                     u2483:
  3103     06BB  0822               	movf	___flmul@b+2,w
  3104     06BC  00F0               	movwf	__Umul8_16@multiplicand
  3105     06BD  0826               	movf	___flmul@a+2,w
  3106     06BE  120A  158A  24D2  120A  118A  	fcall	__Umul8_16
  3107     06C3  0871               	movf	?__Umul8_16+1,w
  3108     06C4  1283               	bcf	3,5	;RP0=0, select bank0
  3109     06C5  1303               	bcf	3,6	;RP1=0, select bank0
  3110     06C6  00B4               	movwf	___flmul@temp+1
  3111     06C7  0870               	movf	?__Umul8_16,w
  3112     06C8  00B3               	movwf	___flmul@temp
  3113     06C9                     l1671:
  3114     06C9  0833               	movf	___flmul@temp,w
  3115     06CA  00F9               	movwf	??___flmul
  3116     06CB  0834               	movf	___flmul@temp+1,w
  3117     06CC  00FA               	movwf	??___flmul+1
  3118     06CD  01FB               	clrf	??___flmul+2
  3119     06CE  01FC               	clrf	??___flmul+3
  3120     06CF  3008               	movlw	8
  3121     06D0                     u2495:
  3122     06D0  1003               	clrc
  3123     06D1  0DF9               	rlf	??___flmul,f
  3124     06D2  0DFA               	rlf	??___flmul+1,f
  3125     06D3  0DFB               	rlf	??___flmul+2,f
  3126     06D4  0DFC               	rlf	??___flmul+3,f
  3127     06D5                     u2490:
  3128     06D5  3EFF               	addlw	-1
  3129     06D6  1D03               	skipz
  3130     06D7  2ED0               	goto	u2495
  3131     06D8  0879               	movf	??___flmul,w
  3132     06D9  07AF               	addwf	___flmul@prod,f
  3133     06DA  087A               	movf	??___flmul+1,w
  3134     06DB  1103               	clrz
  3135     06DC  1803               	skipnc
  3136     06DD  3E01               	addlw	1
  3137     06DE  1903               	skipnz
  3138     06DF  2EE1               	goto	u2501
  3139     06E0  07B0               	addwf	___flmul@prod+1,f
  3140     06E1                     u2501:
  3141     06E1  087B               	movf	??___flmul+2,w
  3142     06E2  1103               	clrz
  3143     06E3  1803               	skipnc
  3144     06E4  3E01               	addlw	1
  3145     06E5  1903               	skipnz
  3146     06E6  2EE8               	goto	u2502
  3147     06E7  07B1               	addwf	___flmul@prod+2,f
  3148     06E8                     u2502:
  3149     06E8  087C               	movf	??___flmul+3,w
  3150     06E9  1103               	clrz
  3151     06EA  1803               	skipnc
  3152     06EB  3E01               	addlw	1
  3153     06EC  1903               	skipnz
  3154     06ED  2EEF               	goto	u2503
  3155     06EE  07B2               	addwf	___flmul@prod+3,f
  3156     06EF                     u2503:
  3157     06EF                     l1673:
  3158     06EF  0829               	movf	___flmul@grs,w
  3159     06F0  00F9               	movwf	??___flmul
  3160     06F1  082A               	movf	___flmul@grs+1,w
  3161     06F2  00FA               	movwf	??___flmul+1
  3162     06F3  082B               	movf	___flmul@grs+2,w
  3163     06F4  00FB               	movwf	??___flmul+2
  3164     06F5  082C               	movf	___flmul@grs+3,w
  3165     06F6  00FC               	movwf	??___flmul+3
  3166     06F7  3018               	movlw	24
  3167     06F8                     u2515:
  3168     06F8  1003               	clrc
  3169     06F9  0CFC               	rrf	??___flmul+3,f
  3170     06FA  0CFB               	rrf	??___flmul+2,f
  3171     06FB  0CFA               	rrf	??___flmul+1,f
  3172     06FC  0CF9               	rrf	??___flmul,f
  3173     06FD                     u2510:
  3174     06FD  3EFF               	addlw	-1
  3175     06FE  1D03               	skipz
  3176     06FF  2EF8               	goto	u2515
  3177     0700  0879               	movf	??___flmul,w
  3178     0701  07AF               	addwf	___flmul@prod,f
  3179     0702  087A               	movf	??___flmul+1,w
  3180     0703  1103               	clrz
  3181     0704  1803               	skipnc
  3182     0705  3E01               	addlw	1
  3183     0706  1903               	skipnz
  3184     0707  2F09               	goto	u2521
  3185     0708  07B0               	addwf	___flmul@prod+1,f
  3186     0709                     u2521:
  3187     0709  087B               	movf	??___flmul+2,w
  3188     070A  1103               	clrz
  3189     070B  1803               	skipnc
  3190     070C  3E01               	addlw	1
  3191     070D  1903               	skipnz
  3192     070E  2F10               	goto	u2522
  3193     070F  07B1               	addwf	___flmul@prod+2,f
  3194     0710                     u2522:
  3195     0710  087C               	movf	??___flmul+3,w
  3196     0711  1103               	clrz
  3197     0712  1803               	skipnc
  3198     0713  3E01               	addlw	1
  3199     0714  1903               	skipnz
  3200     0715  2F17               	goto	u2523
  3201     0716  07B2               	addwf	___flmul@prod+3,f
  3202     0717                     u2523:
  3203     0717                     l1675:
  3204     0717  3008               	movlw	8
  3205     0718  00F9               	movwf	??___flmul
  3206     0719                     u2535:
  3207     0719  1003               	clrc
  3208     071A  0DA9               	rlf	___flmul@grs,f
  3209     071B  0DAA               	rlf	___flmul@grs+1,f
  3210     071C  0DAB               	rlf	___flmul@grs+2,f
  3211     071D  0DAC               	rlf	___flmul@grs+3,f
  3212     071E  0BF9               	decfsz	??___flmul,f
  3213     071F  2F19               	goto	u2535
  3214     0720                     l1677:
  3215     0720  082E               	movf	___flmul@bexp,w
  3216     0721  072D               	addwf	___flmul@aexp,w
  3217     0722  00F9               	movwf	??___flmul
  3218     0723  01FA               	clrf	??___flmul+1
  3219     0724  0DFA               	rlf	??___flmul+1,f
  3220     0725  0879               	movf	??___flmul,w
  3221     0726  3E82               	addlw	130
  3222     0727  00B3               	movwf	___flmul@temp
  3223     0728  087A               	movf	??___flmul+1,w
  3224     0729  1803               	skipnc
  3225     072A  3E01               	addlw	1
  3226     072B  3EFF               	addlw	255
  3227     072C  00B4               	movwf	___flmul@temp+1
  3228     072D  2F4B               	goto	l1689
  3229     072E                     l1679:
  3230     072E  3001               	movlw	1
  3231     072F  00F9               	movwf	??___flmul
  3232     0730                     u2545:
  3233     0730  1003               	clrc
  3234     0731  0DAF               	rlf	___flmul@prod,f
  3235     0732  0DB0               	rlf	___flmul@prod+1,f
  3236     0733  0DB1               	rlf	___flmul@prod+2,f
  3237     0734  0DB2               	rlf	___flmul@prod+3,f
  3238     0735  0BF9               	decfsz	??___flmul,f
  3239     0736  2F30               	goto	u2545
  3240     0737                     l1681:
  3241     0737  1FAC               	btfss	___flmul@grs+3,7
  3242     0738  2F3A               	goto	u2551
  3243     0739  2F3B               	goto	u2550
  3244     073A                     u2551:
  3245     073A  2F3C               	goto	l1685
  3246     073B                     u2550:
  3247     073B                     l1683:
  3248     073B  142F               	bsf	___flmul@prod,0
  3249     073C                     l1685:
  3250     073C  3001               	movlw	1
  3251     073D  00F9               	movwf	??___flmul
  3252     073E                     u2565:
  3253     073E  1003               	clrc
  3254     073F  0DA9               	rlf	___flmul@grs,f
  3255     0740  0DAA               	rlf	___flmul@grs+1,f
  3256     0741  0DAB               	rlf	___flmul@grs+2,f
  3257     0742  0DAC               	rlf	___flmul@grs+3,f
  3258     0743  0BF9               	decfsz	??___flmul,f
  3259     0744  2F3E               	goto	u2565
  3260     0745                     l1687:
  3261     0745  30FF               	movlw	255
  3262     0746  07B3               	addwf	___flmul@temp,f
  3263     0747  1803               	skipnc
  3264     0748  0AB4               	incf	___flmul@temp+1,f
  3265     0749  30FF               	movlw	255
  3266     074A  07B4               	addwf	___flmul@temp+1,f
  3267     074B                     l1689:
  3268     074B  1FB1               	btfss	___flmul@prod+2,7
  3269     074C  2F4E               	goto	u2571
  3270     074D  2F4F               	goto	u2570
  3271     074E                     u2571:
  3272     074E  2F2E               	goto	l1679
  3273     074F                     u2570:
  3274     074F                     l1691:
  3275     074F  01AD               	clrf	___flmul@aexp
  3276     0750                     l1693:
  3277     0750  1FAC               	btfss	___flmul@grs+3,7
  3278     0751  2F53               	goto	u2581
  3279     0752  2F54               	goto	u2580
  3280     0753                     u2581:
  3281     0753  2F70               	goto	l1701
  3282     0754                     u2580:
  3283     0754                     l1695:
  3284     0754  30FF               	movlw	255
  3285     0755  0529               	andwf	___flmul@grs,w
  3286     0756  00F9               	movwf	??___flmul
  3287     0757  30FF               	movlw	255
  3288     0758  052A               	andwf	___flmul@grs+1,w
  3289     0759  00FA               	movwf	??___flmul+1
  3290     075A  30FF               	movlw	255
  3291     075B  052B               	andwf	___flmul@grs+2,w
  3292     075C  00FB               	movwf	??___flmul+2
  3293     075D  307F               	movlw	127
  3294     075E  052C               	andwf	___flmul@grs+3,w
  3295     075F  00FC               	movwf	??___flmul+3
  3296     0760  087C               	movf	??___flmul+3,w
  3297     0761  047B               	iorwf	??___flmul+2,w
  3298     0762  047A               	iorwf	??___flmul+1,w
  3299     0763  0479               	iorwf	??___flmul,w
  3300     0764  1903               	skipnz
  3301     0765  2F67               	goto	u2591
  3302     0766  2F68               	goto	u2590
  3303     0767                     u2591:
  3304     0767  2F6B               	goto	l528
  3305     0768                     u2590:
  3306     0768                     l1697:
  3307     0768  01AD               	clrf	___flmul@aexp
  3308     0769  0AAD               	incf	___flmul@aexp,f
  3309     076A  2F70               	goto	l1701
  3310     076B                     l528:
  3311     076B  1C2F               	btfss	___flmul@prod,0
  3312     076C  2F6E               	goto	u2601
  3313     076D  2F6F               	goto	u2600
  3314     076E                     u2601:
  3315     076E  2F70               	goto	l1701
  3316     076F                     u2600:
  3317     076F  2F68               	goto	l1697
  3318     0770                     l1701:
  3319     0770  082D               	movf	___flmul@aexp,w
  3320     0771  1903               	btfsc	3,2
  3321     0772  2F74               	goto	u2611
  3322     0773  2F75               	goto	u2610
  3323     0774                     u2611:
  3324     0774  2FA6               	goto	l1711
  3325     0775                     u2610:
  3326     0775                     l1703:
  3327     0775  3001               	movlw	1
  3328     0776  07AF               	addwf	___flmul@prod,f
  3329     0777  3000               	movlw	0
  3330     0778  1803               	skipnc
  3331     0779  3001               	movlw	1
  3332     077A  07B0               	addwf	___flmul@prod+1,f
  3333     077B  3000               	movlw	0
  3334     077C  1803               	skipnc
  3335     077D  3001               	movlw	1
  3336     077E  07B1               	addwf	___flmul@prod+2,f
  3337     077F  3000               	movlw	0
  3338     0780  1803               	skipnc
  3339     0781  3001               	movlw	1
  3340     0782  07B2               	addwf	___flmul@prod+3,f
  3341     0783                     l1705:
  3342     0783  1C32               	btfss	___flmul@prod+3,0
  3343     0784  2F86               	goto	u2621
  3344     0785  2F87               	goto	u2620
  3345     0786                     u2621:
  3346     0786  2FA6               	goto	l1711
  3347     0787                     u2620:
  3348     0787                     l1707:
  3349     0787  082F               	movf	___flmul@prod,w
  3350     0788  00F9               	movwf	??___flmul
  3351     0789  0830               	movf	___flmul@prod+1,w
  3352     078A  00FA               	movwf	??___flmul+1
  3353     078B  0831               	movf	___flmul@prod+2,w
  3354     078C  00FB               	movwf	??___flmul+2
  3355     078D  0832               	movf	___flmul@prod+3,w
  3356     078E  00FC               	movwf	??___flmul+3
  3357     078F  3001               	movlw	1
  3358     0790  00FD               	movwf	??___flmul+4
  3359     0791                     u2635:
  3360     0791  0D7C               	rlf	??___flmul+3,w
  3361     0792  0CFC               	rrf	??___flmul+3,f
  3362     0793  0CFB               	rrf	??___flmul+2,f
  3363     0794  0CFA               	rrf	??___flmul+1,f
  3364     0795  0CF9               	rrf	??___flmul,f
  3365     0796                     u2630:
  3366     0796  0BFD               	decfsz	??___flmul+4,f
  3367     0797  2F91               	goto	u2635
  3368     0798  087C               	movf	??___flmul+3,w
  3369     0799  00B2               	movwf	___flmul@prod+3
  3370     079A  087B               	movf	??___flmul+2,w
  3371     079B  00B1               	movwf	___flmul@prod+2
  3372     079C  087A               	movf	??___flmul+1,w
  3373     079D  00B0               	movwf	___flmul@prod+1
  3374     079E  0879               	movf	??___flmul,w
  3375     079F  00AF               	movwf	___flmul@prod
  3376     07A0                     l1709:
  3377     07A0  3001               	movlw	1
  3378     07A1  07B3               	addwf	___flmul@temp,f
  3379     07A2  1803               	skipnc
  3380     07A3  0AB4               	incf	___flmul@temp+1,f
  3381     07A4  3000               	movlw	0
  3382     07A5  07B4               	addwf	___flmul@temp+1,f
  3383     07A6                     l1711:
  3384     07A6  0834               	movf	___flmul@temp+1,w
  3385     07A7  3A80               	xorlw	128
  3386     07A8  00FF               	movwf	btemp+1
  3387     07A9  3080               	movlw	128
  3388     07AA  027F               	subwf	btemp+1,w
  3389     07AB  1D03               	skipz
  3390     07AC  2FAF               	goto	u2645
  3391     07AD  30FF               	movlw	255
  3392     07AE  0233               	subwf	___flmul@temp,w
  3393     07AF                     u2645:
  3394     07AF  1C03               	skipc
  3395     07B0  2FB2               	goto	u2641
  3396     07B1  2FB3               	goto	u2640
  3397     07B2                     u2641:
  3398     07B2  2FBE               	goto	l1715
  3399     07B3                     u2640:
  3400     07B3                     l1713:
  3401     07B3  307F               	movlw	127
  3402     07B4  1283               	bcf	3,5	;RP0=0, select bank0
  3403     07B5  1303               	bcf	3,6	;RP1=0, select bank0
  3404     07B6  00B2               	movwf	___flmul@prod+3
  3405     07B7  3080               	movlw	128
  3406     07B8  00B1               	movwf	___flmul@prod+2
  3407     07B9  3000               	movlw	0
  3408     07BA  00B0               	movwf	___flmul@prod+1
  3409     07BB  3000               	movlw	0
  3410     07BC  00AF               	movwf	___flmul@prod
  3411     07BD  2FEF               	goto	l534
  3412     07BE                     l1715:
  3413     07BE  1283               	bcf	3,5	;RP0=0, select bank0
  3414     07BF  1303               	bcf	3,6	;RP1=0, select bank0
  3415     07C0  0834               	movf	___flmul@temp+1,w
  3416     07C1  3A80               	xorlw	128
  3417     07C2  00FF               	movwf	btemp+1
  3418     07C3  3080               	movlw	128
  3419     07C4  027F               	subwf	btemp+1,w
  3420     07C5  1D03               	skipz
  3421     07C6  2FC9               	goto	u2655
  3422     07C7  3001               	movlw	1
  3423     07C8  0233               	subwf	___flmul@temp,w
  3424     07C9                     u2655:
  3425     07C9  1803               	skipnc
  3426     07CA  2FCC               	goto	u2651
  3427     07CB  2FCD               	goto	u2650
  3428     07CC                     u2651:
  3429     07CC  2FD9               	goto	l1721
  3430     07CD                     u2650:
  3431     07CD                     l1717:
  3432     07CD  3000               	movlw	0
  3433     07CE  1283               	bcf	3,5	;RP0=0, select bank0
  3434     07CF  1303               	bcf	3,6	;RP1=0, select bank0
  3435     07D0  00B2               	movwf	___flmul@prod+3
  3436     07D1  3000               	movlw	0
  3437     07D2  00B1               	movwf	___flmul@prod+2
  3438     07D3  3000               	movlw	0
  3439     07D4  00B0               	movwf	___flmul@prod+1
  3440     07D5  3000               	movlw	0
  3441     07D6  00AF               	movwf	___flmul@prod
  3442     07D7                     l1719:
  3443     07D7  01A8               	clrf	___flmul@sign
  3444     07D8  2FEF               	goto	l534
  3445     07D9                     l1721:
  3446     07D9  1283               	bcf	3,5	;RP0=0, select bank0
  3447     07DA  1303               	bcf	3,6	;RP1=0, select bank0
  3448     07DB  0833               	movf	___flmul@temp,w
  3449     07DC  00AE               	movwf	___flmul@bexp
  3450     07DD  30FF               	movlw	255
  3451     07DE  05AF               	andwf	___flmul@prod,f
  3452     07DF  30FF               	movlw	255
  3453     07E0  05B0               	andwf	___flmul@prod+1,f
  3454     07E1  307F               	movlw	127
  3455     07E2  05B1               	andwf	___flmul@prod+2,f
  3456     07E3  3000               	movlw	0
  3457     07E4  05B2               	andwf	___flmul@prod+3,f
  3458     07E5                     l1723:
  3459     07E5  1C2E               	btfss	___flmul@bexp,0
  3460     07E6  2FE8               	goto	u2661
  3461     07E7  2FE9               	goto	u2660
  3462     07E8                     u2661:
  3463     07E8  2FEA               	goto	l1727
  3464     07E9                     u2660:
  3465     07E9                     l1725:
  3466     07E9  17B1               	bsf	___flmul@prod+2,7
  3467     07EA                     l1727:
  3468     07EA  082E               	movf	___flmul@bexp,w
  3469     07EB  00F9               	movwf	??___flmul
  3470     07EC  1003               	clrc
  3471     07ED  0C79               	rrf	??___flmul,w
  3472     07EE  00B2               	movwf	___flmul@prod+3
  3473     07EF                     l534:
  3474     07EF  0828               	movf	___flmul@sign,w
  3475     07F0  00F9               	movwf	??___flmul
  3476     07F1  0879               	movf	??___flmul,w
  3477     07F2  04B2               	iorwf	___flmul@prod+3,f
  3478     07F3                     l1729:
  3479     07F3  0832               	movf	___flmul@prod+3,w
  3480     07F4  00A3               	movwf	?___flmul+3
  3481     07F5  0831               	movf	___flmul@prod+2,w
  3482     07F6  00A2               	movwf	?___flmul+2
  3483     07F7  0830               	movf	___flmul@prod+1,w
  3484     07F8  00A1               	movwf	?___flmul+1
  3485     07F9  082F               	movf	___flmul@prod,w
  3486     07FA  00A0               	movwf	?___flmul
  3487     07FB                     l522:
  3488     07FB  0008               	return
  3489     07FC                     __end_of___flmul:
  3490                           
  3491                           	psect	text7
  3492     0CD2                     __ptext7:	
  3493 ;; *************** function __Umul8_16 *****************
  3494 ;; Defined at:
  3495 ;;		line 4 in file "/opt/microchip/xc8/v2.45/pic/sources/c99/common/Umul8_16.c"
  3496 ;; Parameters:    Size  Location     Type
  3497 ;;  multiplier      1    wreg     unsigned char 
  3498 ;;  multiplicand    1    0[COMMON] unsigned char 
  3499 ;; Auto vars:     Size  Location     Type
  3500 ;;  multiplier      1    8[COMMON] unsigned char 
  3501 ;;  word_mpld       2    6[COMMON] unsigned short 
  3502 ;;  product         2    4[COMMON] unsigned short 
  3503 ;; Return value:  Size  Location     Type
  3504 ;;                  2    0[COMMON] unsigned int 
  3505 ;; Registers used:
  3506 ;;		wreg, status,2, status,0
  3507 ;; Tracked objects:
  3508 ;;		On entry : 0/0
  3509 ;;		On exit  : 0/0
  3510 ;;		Unchanged: 0/0
  3511 ;; Data sizes:     COMMON   BANK0   BANK1   BANK3   BANK2
  3512 ;;      Params:         2       0       0       0       0
  3513 ;;      Locals:         5       0       0       0       0
  3514 ;;      Temps:          2       0       0       0       0
  3515 ;;      Totals:         9       0       0       0       0
  3516 ;;Total ram usage:        9 bytes
  3517 ;; Hardware stack levels used: 1
  3518 ;; This function calls:
  3519 ;;		Nothing
  3520 ;; This function is called by:
  3521 ;;		___flmul
  3522 ;; This function uses a non-reentrant model
  3523 ;;
  3524                           
  3525     0CD2                     __Umul8_16:	
  3526                           ;psect for function __Umul8_16
  3527                           
  3528                           
  3529                           ;incstack = 0
  3530                           ; Regs used in __Umul8_16: [wreg+status,2+status,0]
  3531                           ;__Umul8_16@multiplier stored from wreg
  3532     0CD2  00F8               	movwf	__Umul8_16@multiplier
  3533     0CD3                     l1207:
  3534     0CD3  01F4               	clrf	__Umul8_16@product
  3535     0CD4  01F5               	clrf	__Umul8_16@product+1
  3536     0CD5                     l1209:
  3537     0CD5  0870               	movf	__Umul8_16@multiplicand,w
  3538     0CD6  00F2               	movwf	??__Umul8_16
  3539     0CD7  01F3               	clrf	??__Umul8_16+1
  3540     0CD8  0872               	movf	??__Umul8_16,w
  3541     0CD9  00F6               	movwf	__Umul8_16@word_mpld
  3542     0CDA  0873               	movf	??__Umul8_16+1,w
  3543     0CDB  00F7               	movwf	__Umul8_16@word_mpld+1
  3544     0CDC                     l1211:
  3545     0CDC  1C78               	btfss	__Umul8_16@multiplier,0
  3546     0CDD  2CDF               	goto	u1421
  3547     0CDE  2CE0               	goto	u1420
  3548     0CDF                     u1421:
  3549     0CDF  2CE6               	goto	l541
  3550     0CE0                     u1420:
  3551     0CE0                     l1213:
  3552     0CE0  0876               	movf	__Umul8_16@word_mpld,w
  3553     0CE1  07F4               	addwf	__Umul8_16@product,f
  3554     0CE2  1803               	skipnc
  3555     0CE3  0AF5               	incf	__Umul8_16@product+1,f
  3556     0CE4  0877               	movf	__Umul8_16@word_mpld+1,w
  3557     0CE5  07F5               	addwf	__Umul8_16@product+1,f
  3558     0CE6                     l541:
  3559     0CE6  3001               	movlw	1
  3560     0CE7                     u1435:
  3561     0CE7  1003               	clrc
  3562     0CE8  0DF6               	rlf	__Umul8_16@word_mpld,f
  3563     0CE9  0DF7               	rlf	__Umul8_16@word_mpld+1,f
  3564     0CEA  3EFF               	addlw	-1
  3565     0CEB  1D03               	skipz
  3566     0CEC  2CE7               	goto	u1435
  3567     0CED  1003               	clrc
  3568     0CEE  0CF8               	rrf	__Umul8_16@multiplier,f
  3569     0CEF                     l1215:
  3570     0CEF  0878               	movf	__Umul8_16@multiplier,w
  3571     0CF0  1D03               	btfss	3,2
  3572     0CF1  2CF3               	goto	u1441
  3573     0CF2  2CF4               	goto	u1440
  3574     0CF3                     u1441:
  3575     0CF3  2CDC               	goto	l1211
  3576     0CF4                     u1440:
  3577     0CF4                     l1217:
  3578     0CF4  0875               	movf	__Umul8_16@product+1,w
  3579     0CF5  00F1               	movwf	?__Umul8_16+1
  3580     0CF6  0874               	movf	__Umul8_16@product,w
  3581     0CF7  00F0               	movwf	?__Umul8_16
  3582     0CF8                     l543:
  3583     0CF8  0008               	return
  3584     0CF9                     __end_of__Umul8_16:
  3585                           
  3586                           	psect	text8
  3587     008C                     __ptext8:	
  3588 ;; *************** function ___fldiv *****************
  3589 ;; Defined at:
  3590 ;;		line 8 in file "/opt/microchip/xc8/v2.45/pic/sources/c99/common/sprcdiv.c"
  3591 ;; Parameters:    Size  Location     Type
  3592 ;;  a               4   21[BANK0 ] unsigned int 
  3593 ;;  b               4   25[BANK0 ] unsigned int 
  3594 ;; Auto vars:     Size  Location     Type
  3595 ;;  grs             4   41[BANK0 ] unsigned long 
  3596 ;;  rem             4   34[BANK0 ] unsigned long 
  3597 ;;  new_exp         2   39[BANK0 ] short 
  3598 ;;  aexp            1   46[BANK0 ] unsigned char 
  3599 ;;  bexp            1   45[BANK0 ] unsigned char 
  3600 ;;  sign            1   38[BANK0 ] unsigned char 
  3601 ;; Return value:  Size  Location     Type
  3602 ;;                  4   21[BANK0 ] unsigned char 
  3603 ;; Registers used:
  3604 ;;		wreg, status,2, status,0, btemp+1
  3605 ;; Tracked objects:
  3606 ;;		On entry : 0/0
  3607 ;;		On exit  : 0/0
  3608 ;;		Unchanged: 0/0
  3609 ;; Data sizes:     COMMON   BANK0   BANK1   BANK3   BANK2
  3610 ;;      Params:         0       8       0       0       0
  3611 ;;      Locals:         0      13       0       0       0
  3612 ;;      Temps:          0       5       0       0       0
  3613 ;;      Totals:         0      26       0       0       0
  3614 ;;Total ram usage:       26 bytes
  3615 ;; Hardware stack levels used: 1
  3616 ;; This function calls:
  3617 ;;		Nothing
  3618 ;; This function is called by:
  3619 ;;		___set_pwm_freq
  3620 ;;		___set_duty_cycle
  3621 ;; This function uses a non-reentrant model
  3622 ;;
  3623                           
  3624     008C                     ___fldiv:	
  3625                           ;psect for function ___fldiv
  3626                           
  3627     008C                     l1451:	
  3628                           ;incstack = 0
  3629                           ; Regs used in ___fldiv: [wreg+status,2+status,0+btemp+1]
  3630                           
  3631     008C  1283               	bcf	3,5	;RP0=0, select bank0
  3632     008D  1303               	bcf	3,6	;RP1=0, select bank0
  3633     008E  083C               	movf	___fldiv@b+3,w
  3634     008F  3980               	andlw	128
  3635     0090  00C6               	movwf	___fldiv@sign
  3636     0091                     l1453:
  3637     0091  083C               	movf	___fldiv@b+3,w
  3638     0092  00BD               	movwf	??___fldiv
  3639     0093  073D               	addwf	??___fldiv,w
  3640     0094  00CD               	movwf	___fldiv@bexp
  3641     0095                     l1455:
  3642     0095  1FBB               	btfss	___fldiv@b+2,7
  3643     0096  2898               	goto	u2011
  3644     0097  2899               	goto	u2010
  3645     0098                     u2011:
  3646     0098  289A               	goto	l1459
  3647     0099                     u2010:
  3648     0099                     l1457:
  3649     0099  144D               	bsf	___fldiv@bexp,0
  3650     009A                     l1459:
  3651     009A  084D               	movf	___fldiv@bexp,w
  3652     009B  1903               	btfsc	3,2
  3653     009C  289E               	goto	u2021
  3654     009D  289F               	goto	u2020
  3655     009E                     u2021:
  3656     009E  28AF               	goto	l1469
  3657     009F                     u2020:
  3658     009F                     l1461:
  3659     009F  0A4D               	incf	___fldiv@bexp,w
  3660     00A0  1D03               	btfss	3,2
  3661     00A1  28A3               	goto	u2031
  3662     00A2  28A4               	goto	u2030
  3663     00A3                     u2031:
  3664     00A3  28AC               	goto	l1465
  3665     00A4                     u2030:
  3666     00A4                     l1463:
  3667     00A4  3000               	movlw	0
  3668     00A5  00BC               	movwf	___fldiv@b+3
  3669     00A6  3000               	movlw	0
  3670     00A7  00BB               	movwf	___fldiv@b+2
  3671     00A8  3000               	movlw	0
  3672     00A9  00BA               	movwf	___fldiv@b+1
  3673     00AA  3000               	movlw	0
  3674     00AB  00B9               	movwf	___fldiv@b
  3675     00AC                     l1465:
  3676     00AC  17BB               	bsf	___fldiv@b+2,7
  3677     00AD                     l1467:
  3678     00AD  01BC               	clrf	___fldiv@b+3
  3679     00AE  28B7               	goto	l1471
  3680     00AF                     l1469:
  3681     00AF  3000               	movlw	0
  3682     00B0  00BC               	movwf	___fldiv@b+3
  3683     00B1  3000               	movlw	0
  3684     00B2  00BB               	movwf	___fldiv@b+2
  3685     00B3  3000               	movlw	0
  3686     00B4  00BA               	movwf	___fldiv@b+1
  3687     00B5  3000               	movlw	0
  3688     00B6  00B9               	movwf	___fldiv@b
  3689     00B7                     l1471:
  3690     00B7  0838               	movf	___fldiv@a+3,w
  3691     00B8  3980               	andlw	128
  3692     00B9  00BD               	movwf	??___fldiv
  3693     00BA  083D               	movf	??___fldiv,w
  3694     00BB  06C6               	xorwf	___fldiv@sign,f
  3695     00BC                     l1473:
  3696     00BC  0838               	movf	___fldiv@a+3,w
  3697     00BD  00BD               	movwf	??___fldiv
  3698     00BE  073D               	addwf	??___fldiv,w
  3699     00BF  00CE               	movwf	___fldiv@aexp
  3700     00C0                     l1475:
  3701     00C0  1FB7               	btfss	___fldiv@a+2,7
  3702     00C1  28C3               	goto	u2041
  3703     00C2  28C4               	goto	u2040
  3704     00C3                     u2041:
  3705     00C3  28C5               	goto	l1479
  3706     00C4                     u2040:
  3707     00C4                     l1477:
  3708     00C4  144E               	bsf	___fldiv@aexp,0
  3709     00C5                     l1479:
  3710     00C5  084E               	movf	___fldiv@aexp,w
  3711     00C6  1903               	btfsc	3,2
  3712     00C7  28C9               	goto	u2051
  3713     00C8  28CA               	goto	u2050
  3714     00C9                     u2051:
  3715     00C9  28DA               	goto	l1489
  3716     00CA                     u2050:
  3717     00CA                     l1481:
  3718     00CA  0A4E               	incf	___fldiv@aexp,w
  3719     00CB  1D03               	btfss	3,2
  3720     00CC  28CE               	goto	u2061
  3721     00CD  28CF               	goto	u2060
  3722     00CE                     u2061:
  3723     00CE  28D7               	goto	l1485
  3724     00CF                     u2060:
  3725     00CF                     l1483:
  3726     00CF  3000               	movlw	0
  3727     00D0  00B8               	movwf	___fldiv@a+3
  3728     00D1  3000               	movlw	0
  3729     00D2  00B7               	movwf	___fldiv@a+2
  3730     00D3  3000               	movlw	0
  3731     00D4  00B6               	movwf	___fldiv@a+1
  3732     00D5  3000               	movlw	0
  3733     00D6  00B5               	movwf	___fldiv@a
  3734     00D7                     l1485:
  3735     00D7  17B7               	bsf	___fldiv@a+2,7
  3736     00D8                     l1487:
  3737     00D8  01B8               	clrf	___fldiv@a+3
  3738     00D9  28E2               	goto	l482
  3739     00DA                     l1489:
  3740     00DA  3000               	movlw	0
  3741     00DB  00B8               	movwf	___fldiv@a+3
  3742     00DC  3000               	movlw	0
  3743     00DD  00B7               	movwf	___fldiv@a+2
  3744     00DE  3000               	movlw	0
  3745     00DF  00B6               	movwf	___fldiv@a+1
  3746     00E0  3000               	movlw	0
  3747     00E1  00B5               	movwf	___fldiv@a
  3748     00E2                     l482:
  3749     00E2  0838               	movf	___fldiv@a+3,w
  3750     00E3  0437               	iorwf	___fldiv@a+2,w
  3751     00E4  0436               	iorwf	___fldiv@a+1,w
  3752     00E5  0435               	iorwf	___fldiv@a,w
  3753     00E6  1D03               	skipz
  3754     00E7  28E9               	goto	u2071
  3755     00E8  28EA               	goto	u2070
  3756     00E9                     u2071:
  3757     00E9  2903               	goto	l1499
  3758     00EA                     u2070:
  3759     00EA                     l1491:
  3760     00EA  3000               	movlw	0
  3761     00EB  00BC               	movwf	___fldiv@b+3
  3762     00EC  3000               	movlw	0
  3763     00ED  00BB               	movwf	___fldiv@b+2
  3764     00EE  3000               	movlw	0
  3765     00EF  00BA               	movwf	___fldiv@b+1
  3766     00F0  3000               	movlw	0
  3767     00F1  00B9               	movwf	___fldiv@b
  3768     00F2  3080               	movlw	128
  3769     00F3  04BB               	iorwf	___fldiv@b+2,f
  3770     00F4  307F               	movlw	127
  3771     00F5  04BC               	iorwf	___fldiv@b+3,f
  3772     00F6                     l1493:
  3773     00F6  0846               	movf	___fldiv@sign,w
  3774     00F7  00BD               	movwf	??___fldiv
  3775     00F8  083D               	movf	??___fldiv,w
  3776     00F9  04BC               	iorwf	___fldiv@b+3,f
  3777     00FA                     l1495:
  3778     00FA  083C               	movf	___fldiv@b+3,w
  3779     00FB  00B8               	movwf	?___fldiv+3
  3780     00FC  083B               	movf	___fldiv@b+2,w
  3781     00FD  00B7               	movwf	?___fldiv+2
  3782     00FE  083A               	movf	___fldiv@b+1,w
  3783     00FF  00B6               	movwf	?___fldiv+1
  3784     0100  0839               	movf	___fldiv@b,w
  3785     0101  00B5               	movwf	?___fldiv
  3786     0102  2A5E               	goto	l484
  3787     0103                     l1499:
  3788     0103  084D               	movf	___fldiv@bexp,w
  3789     0104  1D03               	btfss	3,2
  3790     0105  2907               	goto	u2081
  3791     0106  2908               	goto	u2080
  3792     0107                     u2081:
  3793     0107  2911               	goto	l1505
  3794     0108                     u2080:
  3795     0108                     l1501:
  3796     0108  3000               	movlw	0
  3797     0109  00B8               	movwf	?___fldiv+3
  3798     010A  3000               	movlw	0
  3799     010B  00B7               	movwf	?___fldiv+2
  3800     010C  3000               	movlw	0
  3801     010D  00B6               	movwf	?___fldiv+1
  3802     010E  3000               	movlw	0
  3803     010F  00B5               	movwf	?___fldiv
  3804     0110  2A5E               	goto	l484
  3805     0111                     l1505:
  3806     0111  084D               	movf	___fldiv@bexp,w
  3807     0112  00BD               	movwf	??___fldiv
  3808     0113  01BE               	clrf	??___fldiv+1
  3809     0114  083E               	movf	??___fldiv+1,w
  3810     0115  00C0               	movwf	??___fldiv+3
  3811     0116  084E               	movf	___fldiv@aexp,w
  3812     0117  023D               	subwf	??___fldiv,w
  3813     0118  00BF               	movwf	??___fldiv+2
  3814     0119  1C03               	skipc
  3815     011A  03C0               	decf	??___fldiv+3,f
  3816     011B  083F               	movf	??___fldiv+2,w
  3817     011C  3E7F               	addlw	127
  3818     011D  00C7               	movwf	___fldiv@new_exp
  3819     011E  0840               	movf	??___fldiv+3,w
  3820     011F  1803               	skipnc
  3821     0120  3E01               	addlw	1
  3822     0121  3E00               	addlw	0
  3823     0122  00C8               	movwf	___fldiv@new_exp+1
  3824     0123                     l1507:
  3825     0123  083C               	movf	___fldiv@b+3,w
  3826     0124  00C5               	movwf	___fldiv@rem+3
  3827     0125  083B               	movf	___fldiv@b+2,w
  3828     0126  00C4               	movwf	___fldiv@rem+2
  3829     0127  083A               	movf	___fldiv@b+1,w
  3830     0128  00C3               	movwf	___fldiv@rem+1
  3831     0129  0839               	movf	___fldiv@b,w
  3832     012A  00C2               	movwf	___fldiv@rem
  3833     012B                     l1509:
  3834     012B  3000               	movlw	0
  3835     012C  00BC               	movwf	___fldiv@b+3
  3836     012D  3000               	movlw	0
  3837     012E  00BB               	movwf	___fldiv@b+2
  3838     012F  3000               	movlw	0
  3839     0130  00BA               	movwf	___fldiv@b+1
  3840     0131  3000               	movlw	0
  3841     0132  00B9               	movwf	___fldiv@b
  3842     0133                     l1511:
  3843     0133  3000               	movlw	0
  3844     0134  00CC               	movwf	___fldiv@grs+3
  3845     0135  3000               	movlw	0
  3846     0136  00CB               	movwf	___fldiv@grs+2
  3847     0137  3000               	movlw	0
  3848     0138  00CA               	movwf	___fldiv@grs+1
  3849     0139  3000               	movlw	0
  3850     013A  00C9               	movwf	___fldiv@grs
  3851     013B                     l1513:
  3852     013B  01CE               	clrf	___fldiv@aexp
  3853     013C  2987               	goto	l1533
  3854     013D                     l1515:
  3855     013D  084E               	movf	___fldiv@aexp,w
  3856     013E  1903               	btfsc	3,2
  3857     013F  2941               	goto	u2091
  3858     0140  2942               	goto	u2090
  3859     0141                     u2091:
  3860     0141  2962               	goto	l1525
  3861     0142                     u2090:
  3862     0142                     l1517:
  3863     0142  3001               	movlw	1
  3864     0143  00BD               	movwf	??___fldiv
  3865     0144                     u2105:
  3866     0144  1003               	clrc
  3867     0145  0DC2               	rlf	___fldiv@rem,f
  3868     0146  0DC3               	rlf	___fldiv@rem+1,f
  3869     0147  0DC4               	rlf	___fldiv@rem+2,f
  3870     0148  0DC5               	rlf	___fldiv@rem+3,f
  3871     0149  0BBD               	decfsz	??___fldiv,f
  3872     014A  2944               	goto	u2105
  3873     014B  3001               	movlw	1
  3874     014C  00BD               	movwf	??___fldiv
  3875     014D                     u2115:
  3876     014D  1003               	clrc
  3877     014E  0DB9               	rlf	___fldiv@b,f
  3878     014F  0DBA               	rlf	___fldiv@b+1,f
  3879     0150  0DBB               	rlf	___fldiv@b+2,f
  3880     0151  0DBC               	rlf	___fldiv@b+3,f
  3881     0152  0BBD               	decfsz	??___fldiv,f
  3882     0153  294D               	goto	u2115
  3883     0154                     l1519:
  3884     0154  1FCC               	btfss	___fldiv@grs+3,7
  3885     0155  2957               	goto	u2121
  3886     0156  2958               	goto	u2120
  3887     0157                     u2121:
  3888     0157  2959               	goto	l1523
  3889     0158                     u2120:
  3890     0158                     l1521:
  3891     0158  1439               	bsf	___fldiv@b,0
  3892     0159                     l1523:
  3893     0159  3001               	movlw	1
  3894     015A  00BD               	movwf	??___fldiv
  3895     015B                     u2135:
  3896     015B  1003               	clrc
  3897     015C  0DC9               	rlf	___fldiv@grs,f
  3898     015D  0DCA               	rlf	___fldiv@grs+1,f
  3899     015E  0DCB               	rlf	___fldiv@grs+2,f
  3900     015F  0DCC               	rlf	___fldiv@grs+3,f
  3901     0160  0BBD               	decfsz	??___fldiv,f
  3902     0161  295B               	goto	u2135
  3903     0162                     l1525:
  3904     0162  0838               	movf	___fldiv@a+3,w
  3905     0163  0245               	subwf	___fldiv@rem+3,w
  3906     0164  1D03               	skipz
  3907     0165  2970               	goto	u2145
  3908     0166  0837               	movf	___fldiv@a+2,w
  3909     0167  0244               	subwf	___fldiv@rem+2,w
  3910     0168  1D03               	skipz
  3911     0169  2970               	goto	u2145
  3912     016A  0836               	movf	___fldiv@a+1,w
  3913     016B  0243               	subwf	___fldiv@rem+1,w
  3914     016C  1D03               	skipz
  3915     016D  2970               	goto	u2145
  3916     016E  0835               	movf	___fldiv@a,w
  3917     016F  0242               	subwf	___fldiv@rem,w
  3918     0170                     u2145:
  3919     0170  1C03               	skipc
  3920     0171  2973               	goto	u2141
  3921     0172  2974               	goto	u2140
  3922     0173                     u2141:
  3923     0173  2983               	goto	l1531
  3924     0174                     u2140:
  3925     0174                     l1527:
  3926     0174  174C               	bsf	___fldiv@grs+3,6
  3927     0175                     l1529:
  3928     0175  0835               	movf	___fldiv@a,w
  3929     0176  02C2               	subwf	___fldiv@rem,f
  3930     0177  0836               	movf	___fldiv@a+1,w
  3931     0178  1C03               	skipc
  3932     0179  0F36               	incfsz	___fldiv@a+1,w
  3933     017A  02C3               	subwf	___fldiv@rem+1,f
  3934     017B  0837               	movf	___fldiv@a+2,w
  3935     017C  1C03               	skipc
  3936     017D  0F37               	incfsz	___fldiv@a+2,w
  3937     017E  02C4               	subwf	___fldiv@rem+2,f
  3938     017F  0838               	movf	___fldiv@a+3,w
  3939     0180  1C03               	skipc
  3940     0181  0F38               	incfsz	___fldiv@a+3,w
  3941     0182  02C5               	subwf	___fldiv@rem+3,f
  3942     0183                     l1531:
  3943     0183  3001               	movlw	1
  3944     0184  00BD               	movwf	??___fldiv
  3945     0185  083D               	movf	??___fldiv,w
  3946     0186  07CE               	addwf	___fldiv@aexp,f
  3947     0187                     l1533:
  3948     0187  301A               	movlw	26
  3949     0188  024E               	subwf	___fldiv@aexp,w
  3950     0189  1C03               	skipc
  3951     018A  298C               	goto	u2151
  3952     018B  298D               	goto	u2150
  3953     018C                     u2151:
  3954     018C  293D               	goto	l1515
  3955     018D                     u2150:
  3956     018D                     l1535:
  3957     018D  0845               	movf	___fldiv@rem+3,w
  3958     018E  0444               	iorwf	___fldiv@rem+2,w
  3959     018F  0443               	iorwf	___fldiv@rem+1,w
  3960     0190  0442               	iorwf	___fldiv@rem,w
  3961     0191  1903               	skipnz
  3962     0192  2994               	goto	u2161
  3963     0193  2995               	goto	u2160
  3964     0194                     u2161:
  3965     0194  29B4               	goto	l1549
  3966     0195                     u2160:
  3967     0195                     l1537:
  3968     0195  1449               	bsf	___fldiv@grs,0
  3969     0196  29B4               	goto	l1549
  3970     0197                     l1539:
  3971     0197  3001               	movlw	1
  3972     0198  00BD               	movwf	??___fldiv
  3973     0199                     u2175:
  3974     0199  1003               	clrc
  3975     019A  0DB9               	rlf	___fldiv@b,f
  3976     019B  0DBA               	rlf	___fldiv@b+1,f
  3977     019C  0DBB               	rlf	___fldiv@b+2,f
  3978     019D  0DBC               	rlf	___fldiv@b+3,f
  3979     019E  0BBD               	decfsz	??___fldiv,f
  3980     019F  2999               	goto	u2175
  3981     01A0                     l1541:
  3982     01A0  1FCC               	btfss	___fldiv@grs+3,7
  3983     01A1  29A3               	goto	u2181
  3984     01A2  29A4               	goto	u2180
  3985     01A3                     u2181:
  3986     01A3  29A5               	goto	l1545
  3987     01A4                     u2180:
  3988     01A4                     l1543:
  3989     01A4  1439               	bsf	___fldiv@b,0
  3990     01A5                     l1545:
  3991     01A5  3001               	movlw	1
  3992     01A6  00BD               	movwf	??___fldiv
  3993     01A7                     u2195:
  3994     01A7  1003               	clrc
  3995     01A8  0DC9               	rlf	___fldiv@grs,f
  3996     01A9  0DCA               	rlf	___fldiv@grs+1,f
  3997     01AA  0DCB               	rlf	___fldiv@grs+2,f
  3998     01AB  0DCC               	rlf	___fldiv@grs+3,f
  3999     01AC  0BBD               	decfsz	??___fldiv,f
  4000     01AD  29A7               	goto	u2195
  4001     01AE                     l1547:
  4002     01AE  30FF               	movlw	255
  4003     01AF  07C7               	addwf	___fldiv@new_exp,f
  4004     01B0  1803               	skipnc
  4005     01B1  0AC8               	incf	___fldiv@new_exp+1,f
  4006     01B2  30FF               	movlw	255
  4007     01B3  07C8               	addwf	___fldiv@new_exp+1,f
  4008     01B4                     l1549:
  4009     01B4  1FBB               	btfss	___fldiv@b+2,7
  4010     01B5  29B7               	goto	u2201
  4011     01B6  29B8               	goto	u2200
  4012     01B7                     u2201:
  4013     01B7  2997               	goto	l1539
  4014     01B8                     u2200:
  4015     01B8                     l1551:
  4016     01B8  01CE               	clrf	___fldiv@aexp
  4017     01B9                     l1553:
  4018     01B9  1FCC               	btfss	___fldiv@grs+3,7
  4019     01BA  29BC               	goto	u2211
  4020     01BB  29BD               	goto	u2210
  4021     01BC                     u2211:
  4022     01BC  29D9               	goto	l1561
  4023     01BD                     u2210:
  4024     01BD                     l1555:
  4025     01BD  30FF               	movlw	255
  4026     01BE  0549               	andwf	___fldiv@grs,w
  4027     01BF  00BD               	movwf	??___fldiv
  4028     01C0  30FF               	movlw	255
  4029     01C1  054A               	andwf	___fldiv@grs+1,w
  4030     01C2  00BE               	movwf	??___fldiv+1
  4031     01C3  30FF               	movlw	255
  4032     01C4  054B               	andwf	___fldiv@grs+2,w
  4033     01C5  00BF               	movwf	??___fldiv+2
  4034     01C6  307F               	movlw	127
  4035     01C7  054C               	andwf	___fldiv@grs+3,w
  4036     01C8  00C0               	movwf	??___fldiv+3
  4037     01C9  0840               	movf	??___fldiv+3,w
  4038     01CA  043F               	iorwf	??___fldiv+2,w
  4039     01CB  043E               	iorwf	??___fldiv+1,w
  4040     01CC  043D               	iorwf	??___fldiv,w
  4041     01CD  1903               	skipnz
  4042     01CE  29D0               	goto	u2221
  4043     01CF  29D1               	goto	u2220
  4044     01D0                     u2221:
  4045     01D0  29D4               	goto	l498
  4046     01D1                     u2220:
  4047     01D1                     l1557:
  4048     01D1  01CE               	clrf	___fldiv@aexp
  4049     01D2  0ACE               	incf	___fldiv@aexp,f
  4050     01D3  29D9               	goto	l1561
  4051     01D4                     l498:
  4052     01D4  1C39               	btfss	___fldiv@b,0
  4053     01D5  29D7               	goto	u2231
  4054     01D6  29D8               	goto	u2230
  4055     01D7                     u2231:
  4056     01D7  29D9               	goto	l1561
  4057     01D8                     u2230:
  4058     01D8  29D1               	goto	l1557
  4059     01D9                     l1561:
  4060     01D9  084E               	movf	___fldiv@aexp,w
  4061     01DA  1903               	btfsc	3,2
  4062     01DB  29DD               	goto	u2241
  4063     01DC  29DE               	goto	u2240
  4064     01DD                     u2241:
  4065     01DD  2A0F               	goto	l1571
  4066     01DE                     u2240:
  4067     01DE                     l1563:
  4068     01DE  3001               	movlw	1
  4069     01DF  07B9               	addwf	___fldiv@b,f
  4070     01E0  3000               	movlw	0
  4071     01E1  1803               	skipnc
  4072     01E2  3001               	movlw	1
  4073     01E3  07BA               	addwf	___fldiv@b+1,f
  4074     01E4  3000               	movlw	0
  4075     01E5  1803               	skipnc
  4076     01E6  3001               	movlw	1
  4077     01E7  07BB               	addwf	___fldiv@b+2,f
  4078     01E8  3000               	movlw	0
  4079     01E9  1803               	skipnc
  4080     01EA  3001               	movlw	1
  4081     01EB  07BC               	addwf	___fldiv@b+3,f
  4082     01EC                     l1565:
  4083     01EC  1C3C               	btfss	___fldiv@b+3,0
  4084     01ED  29EF               	goto	u2251
  4085     01EE  29F0               	goto	u2250
  4086     01EF                     u2251:
  4087     01EF  2A0F               	goto	l1571
  4088     01F0                     u2250:
  4089     01F0                     l1567:
  4090     01F0  0839               	movf	___fldiv@b,w
  4091     01F1  00BD               	movwf	??___fldiv
  4092     01F2  083A               	movf	___fldiv@b+1,w
  4093     01F3  00BE               	movwf	??___fldiv+1
  4094     01F4  083B               	movf	___fldiv@b+2,w
  4095     01F5  00BF               	movwf	??___fldiv+2
  4096     01F6  083C               	movf	___fldiv@b+3,w
  4097     01F7  00C0               	movwf	??___fldiv+3
  4098     01F8  3001               	movlw	1
  4099     01F9  00C1               	movwf	??___fldiv+4
  4100     01FA                     u2265:
  4101     01FA  0D40               	rlf	??___fldiv+3,w
  4102     01FB  0CC0               	rrf	??___fldiv+3,f
  4103     01FC  0CBF               	rrf	??___fldiv+2,f
  4104     01FD  0CBE               	rrf	??___fldiv+1,f
  4105     01FE  0CBD               	rrf	??___fldiv,f
  4106     01FF                     u2260:
  4107     01FF  0BC1               	decfsz	??___fldiv+4,f
  4108     0200  29FA               	goto	u2265
  4109     0201  0840               	movf	??___fldiv+3,w
  4110     0202  00BC               	movwf	___fldiv@b+3
  4111     0203  083F               	movf	??___fldiv+2,w
  4112     0204  00BB               	movwf	___fldiv@b+2
  4113     0205  083E               	movf	??___fldiv+1,w
  4114     0206  00BA               	movwf	___fldiv@b+1
  4115     0207  083D               	movf	??___fldiv,w
  4116     0208  00B9               	movwf	___fldiv@b
  4117     0209                     l1569:
  4118     0209  3001               	movlw	1
  4119     020A  07C7               	addwf	___fldiv@new_exp,f
  4120     020B  1803               	skipnc
  4121     020C  0AC8               	incf	___fldiv@new_exp+1,f
  4122     020D  3000               	movlw	0
  4123     020E  07C8               	addwf	___fldiv@new_exp+1,f
  4124     020F                     l1571:
  4125     020F  0848               	movf	___fldiv@new_exp+1,w
  4126     0210  3A80               	xorlw	128
  4127     0211  00FF               	movwf	btemp+1
  4128     0212  3080               	movlw	128
  4129     0213  027F               	subwf	btemp+1,w
  4130     0214  1D03               	skipz
  4131     0215  2A18               	goto	u2275
  4132     0216  30FF               	movlw	255
  4133     0217  0247               	subwf	___fldiv@new_exp,w
  4134     0218                     u2275:
  4135     0218  1C03               	skipc
  4136     0219  2A1B               	goto	u2271
  4137     021A  2A1C               	goto	u2270
  4138     021B                     u2271:
  4139     021B  2A2A               	goto	l1575
  4140     021C                     u2270:
  4141     021C                     l1573:
  4142     021C  30FF               	movlw	255
  4143     021D  1283               	bcf	3,5	;RP0=0, select bank0
  4144     021E  1303               	bcf	3,6	;RP1=0, select bank0
  4145     021F  00C7               	movwf	___fldiv@new_exp
  4146     0220  3000               	movlw	0
  4147     0221  00C8               	movwf	___fldiv@new_exp+1
  4148     0222  3000               	movlw	0
  4149     0223  00BC               	movwf	___fldiv@b+3
  4150     0224  3000               	movlw	0
  4151     0225  00BB               	movwf	___fldiv@b+2
  4152     0226  3000               	movlw	0
  4153     0227  00BA               	movwf	___fldiv@b+1
  4154     0228  3000               	movlw	0
  4155     0229  00B9               	movwf	___fldiv@b
  4156     022A                     l1575:
  4157     022A  1283               	bcf	3,5	;RP0=0, select bank0
  4158     022B  1303               	bcf	3,6	;RP1=0, select bank0
  4159     022C  0848               	movf	___fldiv@new_exp+1,w
  4160     022D  3A80               	xorlw	128
  4161     022E  00FF               	movwf	btemp+1
  4162     022F  3080               	movlw	128
  4163     0230  027F               	subwf	btemp+1,w
  4164     0231  1D03               	skipz
  4165     0232  2A35               	goto	u2285
  4166     0233  3001               	movlw	1
  4167     0234  0247               	subwf	___fldiv@new_exp,w
  4168     0235                     u2285:
  4169     0235  1803               	skipnc
  4170     0236  2A38               	goto	u2281
  4171     0237  2A39               	goto	u2280
  4172     0238                     u2281:
  4173     0238  2A46               	goto	l504
  4174     0239                     u2280:
  4175     0239                     l1577:
  4176     0239  1283               	bcf	3,5	;RP0=0, select bank0
  4177     023A  1303               	bcf	3,6	;RP1=0, select bank0
  4178     023B  01C7               	clrf	___fldiv@new_exp
  4179     023C  01C8               	clrf	___fldiv@new_exp+1
  4180     023D                     l1579:
  4181     023D  3000               	movlw	0
  4182     023E  00BC               	movwf	___fldiv@b+3
  4183     023F  3000               	movlw	0
  4184     0240  00BB               	movwf	___fldiv@b+2
  4185     0241  3000               	movlw	0
  4186     0242  00BA               	movwf	___fldiv@b+1
  4187     0243  3000               	movlw	0
  4188     0244  00B9               	movwf	___fldiv@b
  4189     0245                     l1581:
  4190     0245  01C6               	clrf	___fldiv@sign
  4191     0246                     l504:
  4192     0246  1283               	bcf	3,5	;RP0=0, select bank0
  4193     0247  1303               	bcf	3,6	;RP1=0, select bank0
  4194     0248  0847               	movf	___fldiv@new_exp,w
  4195     0249  00CD               	movwf	___fldiv@bexp
  4196     024A                     l1583:
  4197     024A  1C4D               	btfss	___fldiv@bexp,0
  4198     024B  2A4D               	goto	u2291
  4199     024C  2A4E               	goto	u2290
  4200     024D                     u2291:
  4201     024D  2A50               	goto	l1587
  4202     024E                     u2290:
  4203     024E                     l1585:
  4204     024E  17BB               	bsf	___fldiv@b+2,7
  4205     024F  2A54               	goto	l506
  4206     0250                     l1587:
  4207     0250  307F               	movlw	127
  4208     0251  00BD               	movwf	??___fldiv
  4209     0252  083D               	movf	??___fldiv,w
  4210     0253  05BB               	andwf	___fldiv@b+2,f
  4211     0254                     l506:
  4212     0254  084D               	movf	___fldiv@bexp,w
  4213     0255  00BD               	movwf	??___fldiv
  4214     0256  1003               	clrc
  4215     0257  0C3D               	rrf	??___fldiv,w
  4216     0258  00BC               	movwf	___fldiv@b+3
  4217     0259  0846               	movf	___fldiv@sign,w
  4218     025A  00BD               	movwf	??___fldiv
  4219     025B  083D               	movf	??___fldiv,w
  4220     025C  04BC               	iorwf	___fldiv@b+3,f
  4221     025D  28FA               	goto	l1495
  4222     025E                     l484:
  4223     025E  0008               	return
  4224     025F                     __end_of___fldiv:
  4225                           
  4226                           	psect	text9
  4227     0CC3                     __ptext9:	
  4228 ;; *************** function ___init_pwm *****************
  4229 ;; Defined at:
  4230 ;;		line 48 in file "main.c"
  4231 ;; Parameters:    Size  Location     Type
  4232 ;;		None
  4233 ;; Auto vars:     Size  Location     Type
  4234 ;;		None
  4235 ;; Return value:  Size  Location     Type
  4236 ;;                  1    wreg      void 
  4237 ;; Registers used:
  4238 ;;		wreg, status,2, status,0
  4239 ;; Tracked objects:
  4240 ;;		On entry : 0/0
  4241 ;;		On exit  : 0/0
  4242 ;;		Unchanged: 0/0
  4243 ;; Data sizes:     COMMON   BANK0   BANK1   BANK3   BANK2
  4244 ;;      Params:         0       0       0       0       0
  4245 ;;      Locals:         0       0       0       0       0
  4246 ;;      Temps:          0       0       0       0       0
  4247 ;;      Totals:         0       0       0       0       0
  4248 ;;Total ram usage:        0 bytes
  4249 ;; Hardware stack levels used: 1
  4250 ;; This function calls:
  4251 ;;		Nothing
  4252 ;; This function is called by:
  4253 ;;		_main
  4254 ;; This function uses a non-reentrant model
  4255 ;;
  4256                           
  4257     0CC3                     ___init_pwm:	
  4258                           ;psect for function ___init_pwm
  4259                           
  4260     0CC3                     l1785:	
  4261                           ;incstack = 0
  4262                           ; Regs used in ___init_pwm: [wreg+status,2+status,0]
  4263                           
  4264                           
  4265                           ;main.c: 49:     TRISCbits.TRISC2 = 0;
  4266     0CC3  1683               	bsf	3,5	;RP0=1, select bank1
  4267     0CC4  1303               	bcf	3,6	;RP1=0, select bank1
  4268     0CC5  1107               	bcf	7,2	;volatile
  4269                           
  4270                           ;main.c: 50:     T2CONbits.TMR2ON = 1;
  4271     0CC6  1283               	bcf	3,5	;RP0=0, select bank0
  4272     0CC7  1303               	bcf	3,6	;RP1=0, select bank0
  4273     0CC8  1512               	bsf	18,2	;volatile
  4274     0CC9                     l1787:
  4275                           
  4276                           ;main.c: 51:     T2CONbits.T2CKPS = 0b10;
  4277     0CC9  0812               	movf	18,w	;volatile
  4278     0CCA  39FC               	andlw	-4
  4279     0CCB  3802               	iorlw	2
  4280     0CCC  0092               	movwf	18	;volatile
  4281                           
  4282                           ;main.c: 52:     CCP1CONbits.CCP1M = 0b1100;
  4283     0CCD  0817               	movf	23,w	;volatile
  4284     0CCE  39F0               	andlw	-16
  4285     0CCF  380C               	iorlw	12
  4286     0CD0  0097               	movwf	23	;volatile
  4287     0CD1                     l24:
  4288     0CD1  0008               	return
  4289     0CD2                     __end_of___init_pwm:
  4290     007E                     btemp	set	126	;btemp
  4291     007E                     wtemp0	set	126
  4292                           
  4293                           	psect	idloc
  4294                           
  4295                           ;Config register IDLOC0 @ 0x2000
  4296                           ;	unspecified, using default values
  4297     2000                     	org	8192
  4298     2000  3FFF               	dw	16383
  4299                           
  4300                           ;Config register IDLOC1 @ 0x2001
  4301                           ;	unspecified, using default values
  4302     2001                     	org	8193
  4303     2001  3FFF               	dw	16383
  4304                           
  4305                           ;Config register IDLOC2 @ 0x2002
  4306                           ;	unspecified, using default values
  4307     2002                     	org	8194
  4308     2002  3FFF               	dw	16383
  4309                           
  4310                           ;Config register IDLOC3 @ 0x2003
  4311                           ;	unspecified, using default values
  4312     2003                     	org	8195
  4313     2003  3FFF               	dw	16383
  4314                           
  4315                           	psect	config
  4316                           
  4317                           ;Config register CONFIG @ 0x2007
  4318                           ;	Oscillator Selection bits
  4319                           ;	FOSC = HS, HS oscillator
  4320                           ;	Watchdog Timer Enable bit
  4321                           ;	WDTE = OFF, WDT disabled
  4322                           ;	Power-up Timer Enable bit
  4323                           ;	PWRTE = OFF, PWRT disabled
  4324                           ;	Brown-out Reset Enable bit
  4325                           ;	BOREN = ON, BOR enabled
  4326                           ;	Low-Voltage (Single-Supply) In-Circuit Serial Programming Enable bit
  4327                           ;	LVP = OFF, RB3 is digital I/O, HV on MCLR must be used for programming
  4328                           ;	Data EEPROM Memory Code Protection bit
  4329                           ;	CPD = OFF, Data EEPROM code protection off
  4330                           ;	Flash Program Memory Write Enable bits
  4331                           ;	WRT = OFF, Write protection off; all program memory may be written to by EECON control
  4332                           ;	In-Circuit Debugger Mode bit
  4333                           ;	DEBUG = 0x1, unprogrammed default
  4334                           ;	Flash Program Memory Code Protection bit
  4335                           ;	CP = OFF, Code protection off
  4336     2007                     	org	8199
  4337     2007  3F7A               	dw	16250

Data Sizes:
    Strings     0
    Constant    0
    Data        0
    BSS         0
    Persistent  10
    Stack       0

Auto Spaces:
    Space          Size  Autos    Used
    COMMON           14     14      14
    BANK0            80     79      79
    BANK1            80     14      24
    BANK3            96      0       0
    BANK2            96      0       0

Pointer List with Targets:

    None.

Critical Paths under _main in COMMON

    ___set_pwm_freq->___flmul
    ___set_pwm_freq->___xxtofl
    ___fladd->___flmul
    ___set_duty_cycle->___flmul
    ___set_duty_cycle->___xxtofl
    ___fltol->___flmul
    ___flmul->__Umul8_16
    ___fldiv->___flmul
    ___fldiv->___xxtofl

Critical Paths under _main in BANK0

    _main->___set_duty_cycle
    _main->___set_pwm_freq
    ___set_pwm_freq->___fltol
    ___fladd->___fldiv
    ___set_duty_cycle->___fltol
    ___fltol->___fladd
    ___fldiv->___flmul

Critical Paths under _main in BANK1

    _main->___set_duty_cycle

Critical Paths under _main in BANK3

    None.

Critical Paths under _main in BANK2

    None.

Call Graph Tables:

 ---------------------------------------------------------------------------------
 (Depth) Function   	        Calls       Base Space   Used Autos Params    Refs
 ---------------------------------------------------------------------------------
 (0) _main                                                 2     2      0   13356
                                             12 BANK1      2     2      0
                         ___init_pwm
                   ___set_duty_cycle
                     ___set_pwm_freq
 ---------------------------------------------------------------------------------
 (1) ___set_pwm_freq                                       4     2      2    7688
                                             77 BANK0      2     0      2
                                              0 BANK1      2     2      0
                            ___fladd
                            ___fldiv
                            ___flmul
                            ___fltol
                           ___xxtofl
 ---------------------------------------------------------------------------------
 (2) ___fladd                                             20    12      8    2262
                                             47 BANK0     20    12      8
                            ___fldiv (ARG)
                            ___flmul (ARG)
 ---------------------------------------------------------------------------------
 (1) ___set_duty_cycle                                    14    12      2    5668
                                             77 BANK0      2     0      2
                                              0 BANK1     12    12      0
                            ___fldiv
                            ___flmul
                            ___fltol
                           ___xxtofl
 ---------------------------------------------------------------------------------
 (2) ___xxtofl                                            14    10      4     474
                                              0 COMMON    14    10      4
 ---------------------------------------------------------------------------------
 (2) ___fltol                                             10     6      4     381
                                             67 BANK0     10     6      4
                            ___fladd (ARG)
                            ___fldiv (ARG)
                            ___flmul (ARG)
 ---------------------------------------------------------------------------------
 (2) ___flmul                                             26    18      8    2721
                                              9 COMMON     5     5      0
                                              0 BANK0     21    13      8
                          __Umul8_16
 ---------------------------------------------------------------------------------
 (3) __Umul8_16                                            9     7      2     799
                                              0 COMMON     9     7      2
 ---------------------------------------------------------------------------------
 (2) ___fldiv                                             26    18      8    1729
                                             21 BANK0     26    18      8
                            ___flmul (ARG)
                           ___xxtofl (ARG)
 ---------------------------------------------------------------------------------
 (1) ___init_pwm                                           0     0      0       0
 ---------------------------------------------------------------------------------
 Estimated maximum stack depth 3
 ---------------------------------------------------------------------------------

 Call Graph Graphs:

 _main (ROOT)
   ___init_pwm
   ___set_duty_cycle
     ___fldiv
       ___flmul (ARG)
         __Umul8_16
       ___xxtofl (ARG)
     ___flmul
     ___fltol
       ___fladd (ARG)
         ___fldiv (ARG)
         ___flmul (ARG)
       ___fldiv (ARG)
       ___flmul (ARG)
     ___xxtofl
   ___set_pwm_freq
     ___fladd
     ___fldiv
     ___flmul
     ___fltol
     ___xxtofl

 Address spaces:
Name               Size   Autos  Total    Cost      Usage
BITCOMMON            E      0       0       0        0.0%
EEDATA             100      0       0       0        0.0%
NULL                 0      0       0       0        0.0%
CODE                 0      0       0       0        0.0%
COMMON               E      E       E       1      100.0%
BITSFR0              0      0       0       1        0.0%
SFR0                 0      0       0       1        0.0%
BITSFR1              0      0       0       2        0.0%
SFR1                 0      0       0       2        0.0%
STACK                0      0       0       2        0.0%
ABS                  0      0      75       3        0.0%
BITBANK0            50      0       0       4        0.0%
BITSFR3              0      0       0       4        0.0%
SFR3                 0      0       0       4        0.0%
BANK0               50     4F      4F       5       98.8%
BITSFR2              0      0       0       5        0.0%
SFR2                 0      0       0       5        0.0%
BITBANK1            50      0       0       6        0.0%
BANK1               50      E      18       7       30.0%
BITBANK3            60      0       0       8        0.0%
BANK3               60      0       0       9        0.0%
BITBANK2            60      0       0      10        0.0%
BANK2               60      0       0      11        0.0%
DATA                 0      0      75      12        0.0%


Microchip Technology PIC Macro Assembler V2.45 build 20230818022343 
Symbol Table                                                                                   Wed Oct 18 22:05:35 2023

   ___set_pwm_freq@PR2_value 00A0                 ___fldiv@aexp 004E                 ___fldiv@bexp 004D  
               ___fldiv@sign 0046                           l21 0EED                           l24 0CD1  
                         l27 0FFF          __Umul8_16@word_mpld 0076          ___set_duty_cycle@dc 00A2  
                        l326 0D5B                          l430 033D                          l319 0D70  
                        l504 0246                          l432 0316                          l329 0D70  
                        l506 0254                          l522 07FB                          l426 02BA  
                        l451 042A                          l460 048A                          l541 0CE6  
                        l534 07EF                          l543 0CF8                          l447 0406  
                        l439 04B6                          l528 076B                          l457 044C  
                        l482 00E2                          l484 025E                          l580 0DFE  
                        l572 0DD6                          l468 04AC                          l469 04B6  
                        l566 0D93                          l568 0E28                          l498 01D4  
                        l579 0DF2                          _PR2 0092                 ___flmul@aexp 002D  
               ___flmul@bexp 002E                 ___flmul@sign 0028                 ___flmul@temp 0033  
               ___flmul@prod 002F                 ___fltol@exp1 006C                         l1211 0CDC  
                       l1213 0CE0                         l1221 0CF9                         l1301 02C0  
                       l1215 0CEF                         l1207 0CD3                         l1231 0D21  
                       l1223 0D04                         l1311 02CE                         l1303 02C4  
                       l1217 0CF4                         l1209 0CD5                         l1233 0D29  
                       l1401 0429                         l1321 02D8                         l1313 02D0  
                       l1305 02C8                         l1251 0D50                         l1243 0D37  
                       l1235 0D2B                         l1227 0D0D                         l1403 042E  
                       l1411 043A                         l1331 02E2                         l1323 02DA  
                       l1315 02D2                         l1307 02CA                         l1501 0108  
                       l1253 0D60                         l1237 0D2F                         l1245 0D49  
                       l1229 0D20                         l1405 0431                         l1413 043E  
                       l1341 031A                         l1333 02E4                         l1325 02DC  
                       l1317 02D4                         l1309 02CC                         l1261 0268  
                       l1511 0133                         l1255 0D65                         l1431 0486  
                       l1423 0451                         l1415 043F                         l1407 0433  
                       l1351 0331                         l1343 0321                         l1327 02DE  
                       l1319 02D6                         l1335 02E6                         l1271 027F  
                       l1263 026C                         l1521 0158                         l1513 013B  
                       l1505 0111                         l1601 04C5                         l1441 04A2  
                       l1433 048F                         l1425 0456                         l1417 0443  
                       l1409 0438                         l1361 034F                         l1345 0323  
                       l1353 0335                         l1337 02E7                         l1329 02E0  
                       l1281 0293                         l1273 0280                         l1265 026D  
                       l1257 025F                         l1531 0183                         l1523 0159  
                       l1515 013D                         l1507 0123                         l1451 008C  
                       l1611 04E1                         l1603 04CA                         l1443 04A6  
                       l1435 0494                         l1427 0464                         l1419 0449  
                       l1371 0377                         l1363 0366                         l1355 0341  
                       l1347 0327                         l1339 02FE                         l1291 02A2  
                       l1283 0294                         l1267 0272                         l1275 0282  
                       l1259 0264                         l1541 01A0                         l1517 0142  
                       l1525 0162                         l1533 0187                         l1509 012B  
                       l1461 009F                         l1453 0091                         l1701 0770  
                       l1621 04F4                         l1613 04E6                         l1605 04CF  
                       l1445 04A8                         l1437 049C                         l1429 0468  
                       l1381 03A0                         l1373 037B                         l1365 036A  
                       l1357 0346                         l1349 0328                         l1293 02A7  
                       l1285 0298                         l1277 028A                         l1269 0277  
                       l1551 01B8                         l1543 01A4                         l1535 018D  
                       l1527 0174                         l1519 0154                         l1471 00B7  
                       l1463 00A4                         l1455 0095                         l1703 0775  
                       l1711 07A6                         l1631 0510                         l1623 04F9  
                       l1615 04EA                         l1607 04D7                         l1447 04B1  
                       l1439 04A1                         l1391 040E                         l1383 03DE  
                       l1375 037C                         l1367 036E                         l1295 02AF  
                       l1287 029C                         l1279 028D                         l1561 01D9  
                       l1553 01B9                         l1545 01A5                         l1537 0195  
                       l1529 0175                         l1481 00CA                         l1473 00BC  
                       l1465 00AC                         l1457 0099                         l1721 07D9  
                       l1713 07B3                         l1705 0783                         l1641 0539  
                       l1633 0515                         l1625 0501                         l1617 04EE  
                       l1609 04D9                         l1449 04B5                         l1393 0413  
                       l1385 03E4                         l1377 0385                         l1369 0375  
                       l1297 02B0                         l1289 029D                         l1801 0014  
                       l1563 01DE                         l1571 020F                         l1555 01BD  
                       l1547 01AE                         l1539 0197                         l1491 00EA  
                       l1483 00CF                         l1475 00C0                         l1467 00AD  
                       l1459 009A                         l1723 07E5                         l1715 07BE  
                       l1707 0787                         l1651 05D2                         l1643 0554  
                       l1627 0503                         l1619 04EF                         l1387 03E9  
                       l1379 038A                         l1299 02B2                         l1811 0033  
                       l1803 001E                         l1581 0245                         l1573 021C  
                       l1565 01EC                         l1557 01D1                         l1549 01B4  
                       l1493 00F6                         l1485 00D7                         l1477 00C4  
                       l1469 00AF                         l1725 07E9                         l1717 07CD  
                       l1709 07A0                         l1661 0631                         l1653 05DB  
                       l1645 0570                         l1637 051E                         l1629 050B  
                       l1741 0D9B                         l1733 0D72                         l1397 041C  
                       l1389 03F8                         l1813 003D                         l1583 024A  
                       l1575 022A                         l1567 01F0                         l1495 00FA  
                       l1487 00D8                         l1479 00C5                         l1727 07EA  
                       l1719 07D7                         l1671 06C9                         l1663 0648  
                       l1655 05E9                         l1647 059A                         l1639 052C  
                       l1751 0DBB                         l1735 0D77                         l1399 0425  
                       l1823 0058                         l1815 0045                         l1585 024E  
                       l1577 0239                         l1569 0209                         l1489 00DA  
                       l1729 07F3                         l1681 0737                         l1673 06EF  
                       l1665 0665                         l1657 0606                         l1649 05B6  
                       l1593 04B7                         l1761 0DEC                         l1753 0DBF  
                       l1745 0DA4                         l1737 0D7B                         l1825 0069  
                       l1817 0052                         l1809 0022                         l1587 0250  
                       l1579 023D                         l1499 0103                         l1691 074F  
                       l1683 073B                         l1675 0717                         l1667 0690  
                       l1659 0614                         l1595 04BC                         l1771 0E1F  
                       l1763 0DF6                         l1755 0DCD                         l1747 0DA7  
                       l1739 0D8B                         l1827 0073                         l1693 0750  
                       l1685 073C                         l1677 0720                         l1669 069E  
                       l1597 04C0                         l1773 0E20                         l1765 0E00  
                       l1757 0DDD                         l1749 0DB4                         l1781 0E7F  
                       l1829 007B                         l1695 0754                         l1687 0745  
                       l1679 072E                         l1599 04C4                         l1767 0E16  
                       l1759 0DE8                         l1791 0FCE                         l1783 0EEB  
                       l1785 0CC3                         l1697 0768                         l1689 074B  
                       l1769 0E1B                         l1793 0FDC                         l1777 0E29  
                       l1787 0CC9                         l1795 0FEE                         l1779 0E44  
                       l1789 0EEE                         l1797 0004                         l1799 000F  
                       u2000 04B5                         u2001 04B4                         u2010 0099  
                       u2011 0098                         u2020 009F                         u2021 009E  
                       u2030 00A4                         u2031 00A3                         u2200 01B8  
                       u2120 0158                         u2040 00C4                         u2201 01B7  
                       u2121 0157                         u2105 0144                         u2041 00C3  
                       u2210 01BD                         u2050 00CA                         u2211 01BC  
                       u2115 014D                         u2051 00C9                         u2220 01D1  
                       u2140 0174                         u2060 00CF                         u1420 0CE0  
                       u2300 04C4                         u1500 0D48                         u2221 01D0  
                       u2141 0173                         u2061 00CE                         u1421 0CDF  
                       u2301 04C3                         u1501 0D47                         u2230 01D8  
                       u2150 018D                         u2070 00EA                         u2310 04CA  
                       u1510 0D4F                         u2231 01D7                         u2151 018C  
                       u2135 015B                         u2071 00E9                         u2311 04C9  
                       u1511 0D4E                         u2240 01DE                         u2160 0195  
                       u2080 0108                         u1440 0CF4                         u2320 04CF  
                       u1600 02A2                         u2241 01DD                         u2161 0194  
                       u2145 0170                         u2081 0107                         u1441 0CF3  
                       u2401 05A8                         u2321 04CE                         u1601 02A1  
                       u2250 01F0                         u2090 0142                         u2402 05AF  
                       u2330 04EE                         u1530 0D60                         u1450 0D04  
                       u1610 02A7                         u2251 01EF                         u2091 0141  
                       u1435 0CE7                         u2411 05C4                         u2403 05B6  
                       u2331 04ED                         u1531 0D5F                         u1451 0D03  
                       u1611 02A6                         u2260 01FF                         u2180 01A4  
                       u2412 05CB                         u2340 04F4                         u1540 0D65  
                       u1460 0D1B                         u1700 033D                         u1620 02C0  
                       u2181 01A3                         u2501 06E1                         u2413 05D2  
                       u2341 04F3                         u1541 0D64                         u1525 0D52  
                       u1701 033C                         u1621 02BF                         u2270 021C  
                       u2510 06FD                         u2502 06E8                         u2350 04F9  
                       u1470 0D2F                         u1710 0341                         u1630 02C4  
                       u1550 026C                         u2271 021B                         u2175 0199  
                       u2503 06EF                         u2431 05F8                         u2351 04F8  
                       u1471 0D2E                         u1711 0340                         u1631 02C3  
                       u1551 026B                         u2280 0239                         u2600 076F  
                       u2432 05FF                         u2360 0510                         u1480 0D36  
                       u1800 03CB                         u1720 0346                         u1640 02FE  
                       u1560 0272                         u2281 0238                         u2265 01FA  
                       u2601 076E                         u2521 0709                         u2441 0623  
                       u2433 0606                         u2425 05D4                         u2361 050F  
                       u1481 0D35                         u1465 0D16                         u1801 03CC  
                       u1721 0345                         u1641 02FD                         u1561 0271  
                       u2290 024E                         u2610 0775                         u2522 0710  
                       u2442 062A                         u2370 0515                         u1810 03E9  
                       u1802 03D1                         u1650 0309                         u1570 0277  
                       u2291 024D                         u2275 0218                         u2195 01A7  
                       u2611 0774                         u2523 0717                         u2515 06F8  
                       u2443 0631                         u2371 0514                         u1811 03E8  
                       u1803 03D2                         u1731 0358                         u1651 0307  
                       u1571 0276                         u2620 0787                         u1900 0449  
                       u1820 040E                         u1740 036A                         u1732 035F  
                       u1660 030A                         u1580 0293                         u2285 0235  
                       u2621 0786                         u2461 0657                         u2381 0562  
                       u1901 0448                         u1821 040D                         u1741 0369  
                       u1733 0366                         u1645 02FA                         u1581 0292  
                       u2630 0796                         u2550 073B                         u2462 065E  
                       u2382 0569                         u2710 0DBA                         u1910 0450  
                       u1830 0413                         u1750 036E                         u1670 031A  
                       u1590 029C                         u2551 073A                         u2535 0719  
                       u2471 0682                         u2463 0665                         u2455 0633  
                       u2391 057E                         u2383 0570                         u1495 0D38  
                       u2711 0DB9                         u1911 044F                         u1831 0412  
                       u1751 036D                         u1671 0319                         u1591 029B  
                       u2640 07B3                         u2472 0689                         u2392 0585  
                       u2800 0E1F                         u1920 0456                         u1760 037B  
                       u1680 0327                         u2641 07B2                         u2545 0730  
                       u2481 06AD                         u2473 0690                         u2393 058C  
                       u2801 0E1E                         u2705 0DAC                         u1921 0455  
                       u1761 037A                         u1681 0326                         u2650 07CD  
                       u2570 074F                         u2490 06D5                         u2482 06B4  
                       u2730 0DDC                         u1930 0468                         u1850 0429  
                       u2810 0052                         u2651 07CC                         u2635 0791  
                       u2571 074E                         u2483 06BB                         u2731 0DDB  
                       u1931 0467                         u1851 0428                         u2811 0051  
                       u2660 07E9                         u2580 0754                         u1940 0477  
                       u1860 042E                         u1780 03A0                         u2820 0088  
                       u2661 07E8                         u2645 07AF                         u2581 0753  
                       u2565 073E                         u2725 0DCE                         u1861 042D  
                       u1845 041E                         u1781 039F                         u2821 0087  
                       u2590 0768                         u2750 0DEC                         u2670 0D77  
                       u1950 0486                         u1870 0438                         u2655 07C9  
                       u2591 0767                         u2495 06D0                         u2751 0DEB  
                       u2671 0D76                         u1951 0485                         u1871 0437  
                       u1791 03B7                         u1783 039C                         u1775 037E  
                       u1695 032A                         u2815 004E                         u2760 0DF2  
                       u2680 0D7B                         u1960 048F                         u1880 043E  
                       u1792 03B8                         u2761 0DF1                         u2745 0DE1  
                       u2681 0D7A                         u1961 048E                         u1945 0472  
                       u1881 043D                         u1793 03BD                         u2825 0084  
                       u2770 0DF6                         u2690 0D9B                         u1970 0494  
                       u1890 0443                         u1794 03BE                         u2771 0DF5  
                       u2691 0D9A                         u1971 0493                         u1891 0442  
                       u1795 03C3                         u2780 0E0B                         u1980 04A1  
                       u1796 03C4                         u1981 04A0                         u2837 0039  
                       u2790 0E1B                         u1990 04A6                         u2791 0E1A  
                       u1991 04A5                         u2847 006F                         u2785 0E06  
                       _main 0004                         btemp 007E                         start 0000  
            ___fldiv@new_exp 0047                ___fltol@sign1 006B              __end_of___fladd 04B7  
                      ?_main 0070              __end_of___fldiv 025F              __end_of___flmul 07FC  
            __end_of___fltol 0D71     __end_of___set_duty_cycle 1000                        status 0003  
                      wtemp0 007E              __initialization 07FC                 __end_of_main 008C  
                     ??_main 00AC                       _CCPR1L 0015             __end_of___xxtofl 0E29  
                  ??___fladd 0057                    ??___fldiv 003D                    ??___flmul 0079  
                  ??___fltol 0067                 ___xxtofl@arg 007A                 ___xxtofl@exp 0079  
               ___xxtofl@val 0070      __end_of__initialization 07FC   ___set_duty_cycle@dc_period 00A6  
                 ___fltol@f1 0063                   ___init_pwm 0CC3               __pcstackCOMMON 0070  
 ___set_duty_cycle@reg_value 00AA            __end_of__Umul8_16 0CF9                   __pmaintext 0004  
                  ?___xxtofl 0070            ?___set_duty_cycle 006D           ??___set_duty_cycle 00A0  
                ?___init_pwm 0070                      ___fladd 025F                      ___fldiv 008C  
                    ___flmul 04B7                      ___fltol 0CF9                      __ptext1 0E29  
                    __ptext2 025F                      __ptext3 0EEE                      __ptext4 0D71  
                    __ptext5 0CF9                      __ptext6 04B7                      __ptext7 0CD2  
                    __ptext8 008C                      __ptext9 0CC3                      _counter 00B2  
                  _T2CONbits 0012                   ??___xxtofl 0074         end_of_initialization 07FC  
             ___set_pwm_freq 0E29                  ___fladd@grs 0062                ___xxtofl@sign 0078  
                  _TRISCbits 0087                  ___fldiv@grs 0049                  ___fldiv@rem 0042  
                ___flmul@grs 0029                  _CCP1CONbits 0017       __end_of___set_pwm_freq 0EEE  
        start_initialization 07FC                    __Umul8_16 0CD2              ?___set_pwm_freq 006D  
                  ___fladd@a 0053                    ___fladd@b 004F                    ___fldiv@a 0035  
                  ___fldiv@b 0039                    ___flmul@a 0024                    ___flmul@b 0020  
                  ___latbits 0002                __pcstackBANK0 0020                __pcstackBANK1 00A0  
___set_duty_cycle@duty_cycle 006D                    __pnvBANK1 00AE                 ??___init_pwm 0070  
                   ?___fladd 004F                     ?___fldiv 0035                     ?___flmul 0020  
                   ?___fltol 0063                   ?__Umul8_16 0070           __end_of___init_pwm 0CD2  
                   _PWM_FREQ 00B4                  ??__Umul8_16 0072                     ___xxtofl 0D71  
           ??___set_pwm_freq 007E             ___set_duty_cycle 0EEE             ___set_pwm_freq@f 006D  
     __Umul8_16@multiplicand 0070                ___fladd@signs 005F                 ___fladd@aexp 0060  
               ___fladd@bexp 0061         __Umul8_16@multiplier 0078                   _PWM_PERIOD 00AE  
          __Umul8_16@product 0074  
