Microchip MPLAB XC8 Compiler V2.45

Linker command line:

-W-3 --edf=/opt/microchip/xc8/v2.45/pic/dat/20230818022343_en.msgs -cn \
  -h+dist/default/debug/PWM.debug.sym \
  --cmf=dist/default/debug/PWM.debug.cmf -z -Q16F877A \
  -o/tmp/xcXifKAdm/driver_tmp_3.o --defsym=__MPLAB_BUILD=1 \
  --fixupoverflow=error -Mdist/default/debug/PWM.debug.map \
  --md=/tmp/xcXifKAdm/driver_tmp_0.dat -E1 -ver=XC8 Compiler --acfsm=1493 \
  -ACODE=00h-07FFhx4 -ASTRCODE=00h-01FFFh -ASTRING=00h-0FFhx32 \
  -ACONST=00h-0FFhx32 -AENTRY=00h-0FFhx32 -ACOMMON=070h-07Fh \
  -ABANK0=020h-06Fh -ABANK1=0A0h-0EFh -ABANK2=0110h-016Fh \
  -ABANK3=0190h-01EFh -ARAM=020h-06Fh,0A0h-0EFh,0110h-016Fh,0190h-01EFh \
  -AABS1=020h-07Fh,0A0h-0EFh,0110h-016Fh,0190h-01EFh -ASFR0=00h-01Fh \
  -ASFR1=080h-09Fh -ASFR2=0100h-010Fh -ASFR3=0180h-018Fh \
  -ACONFIG=02007h-02007h -DCONFIG=2 -AIDLOC=02000h-02003h -DIDLOC=2 \
  -AEEDATA=00h-0FFh/02100h -peeprom_data=EEDATA -DEEDATA=2 -DCODE=2 \
  -DSTRCODE=2 -DSTRING=2 -DCONST=2 -DENTRY=2 \
  -preset_vec=00h,intentry,init,end_init -ppowerup=CODE -pcinit=CODE \
  -pfunctab=ENTRY -k /tmp/xcXifKAdm/driver_tmp_12.o \
  dist/default/debug/PWM.debug.o 

Object code version is 3.11

Machine type is 16F877A



                Name                               Link     Load   Length Selector   Space Scale
/tmp/xcXifKAdm/driver_tmp_12.o
                end_init                              0        0        3        0       0
                config                             2007     2007        1        0       4
                idloc                              2000     2000        4        0       5
dist/default/debug/PWM.debug.o
                cinit                               7FC      7FC        4      FF8       0
                config                             2007     2007        1        0       4
                idloc                              2000     2000        4        0       5
                text9                               CC3      CC3        F     1986       0
                text8                                8C       8C      1D3      118       0
                text7                               CD2      CD2       27     19A4       0
                text6                               4B7      4B7      345      96E       0
                text5                               CF9      CF9       78     19F2       0
                text4                               D71      D71       B8     1AE2       0
                text3                               EEE      EEE      112     1DDC       0
                text2                               25F      25F      258      4BE       0
                text1                               E29      E29       C5     1C52       0
                maintext                              4        4       88        8       0
                cstackBANK0                          20       20       4F       20       1
                cstackCOMMON                         70       70        E       70       1
                cstackBANK1                          A0       A0        E       A0       1
                nvBANK1                              AE       AE        A       A0       1

TOTAL           Name                               Link     Load   Length     Space
        CLASS   CODE           
                end_init                              0        0        3         0
                cinit                               7FC      7FC        4         0
                text9                               CC3      CC3        F         0
                text8                                8C       8C      1D3         0
                text7                               CD2      CD2       27         0
                text6                               4B7      4B7      345         0
                text5                               CF9      CF9       78         0
                text4                               D71      D71       B8         0
                text3                               EEE      EEE      112         0
                text2                               25F      25F      258         0
                text1                               E29      E29       C5         0
                maintext                              4        4       88         0

        CLASS   STRCODE        

        CLASS   STRING         

        CLASS   CONST          

        CLASS   ENTRY          

        CLASS   COMMON         
                cstackCOMMON                         70       70        E         1

        CLASS   BANK0          
                cstackBANK0                          20       20       4F         1

        CLASS   BANK1          
                cstackBANK1                          A0       A0        E         1
                nvBANK1                              AE       AE        A         1

        CLASS   BANK2          

        CLASS   BANK3          

        CLASS   RAM            

        CLASS   ABS1           
                abs_s1                               7E       7E        2         1

        CLASS   SFR0           

        CLASS   SFR1           

        CLASS   SFR2           

        CLASS   SFR3           

        CLASS   CONFIG         
                config                             2007     2007        1         4

        CLASS   IDLOC          
                idloc                              2000     2000        4         5

        CLASS   EEDATA         

        CLASS   HEAP           

        CLASS   STACK          



SEGMENTS        Name                           Load    Length   Top    Selector   Space  Class     Delta

                text4                          000D71  0000B8  000E29      1AE2       0  CODE        2
                text1                          000E29  0000C5  000EEE      1C52       0  CODE        2
                text3                          000EEE  000112  001000      1DDC       0  CODE        2
                reset_vec                      000000  000003  000003         0       0  CODE        2
                text8                          00008C  0001D3  00025F       118       0  CODE        2
                text2                          00025F  000258  0004B7       4BE       0  CODE        2
                maintext                       000004  000088  00008C         8       0  CODE        2
                text7                          000CD2  000027  000CF9      19A4       0  CODE        2
                text9                          000CC3  00000F  000CD2      1986       0  CODE        2
                text5                          000CF9  000078  000D71      19F2       0  CODE        2
                text6                          0004B7  000345  0007FC       96E       0  CODE        2
                cstackBANK0                    000020  00004F  00006F        20       1  BANK0       1
                cstackBANK1                    0000A0  000018  0000B8        A0       1  BANK1       1
                cinit                          0007FC  000004  000800       FF8       0  CODE        2
                cstackCOMMON                   000070  00000E  00007E        70       1  COMMON      1


UNUSED ADDRESS RANGES

        Name                Unused          Largest block    Delta
        BANK0            006F-006F              1           1
        BANK1            00B8-00EF             38           1
        BANK2            0110-016F             60           1
        BANK3            0190-01EF             60           1
        CODE             0003-0003              1           2
                         0800-0CC2            4C3
                         1000-1FFF            800
        CONST            0003-0003              1           2
                         0800-0CC2            100
                         1000-1FFF            100
        EEDATA           2100-21FF            100           2
        ENTRY            0003-0003              1           2
                         0800-0CC2            100
                         1000-1FFF            100
        RAM              006F-006F              1           1
                         00B8-00EF             38
                         0110-016F             60
                         0190-01EF             60
        SFR0             0000-001F             20           1
        SFR1             0080-009F             20           1
        SFR2             0100-010F             10           1
        SFR3             0180-018F             10           1
        STRCODE          0003-0003              1           2
                         0800-0CC2            4C3
                         1000-1FFF           1000
        STRING           0003-0003              1           2
                         0800-0CC2            100
                         1000-1FFF            100

                                  Symbol Table

?__Umul8_16                  cstackCOMMON 0070
?___fladd                    cstackBANK0  004F
?___fldiv                    cstackBANK0  0035
?___flmul                    cstackBANK0  0020
?___fltol                    cstackBANK0  0063
?___xxtofl                   cstackCOMMON 0070
_CCP1CONbits                 (abs)        0017
_CCPR1L                      (abs)        0015
_PR2                         (abs)        0092
_PWM_FREQ                    nvBANK1      00B4
_PWM_PERIOD                  nvBANK1      00AE
_T2CONbits                   (abs)        0012
_TRISCbits                   (abs)        0087
__H__absolute__              __absolute__ 0000
__Habs1                      abs1         0000
__Hbank0                     bank0        0000
__Hbank1                     bank1        0000
__Hbank2                     bank2        0000
__Hbank3                     bank3        0000
__Hcinit                     cinit        0800
__Hclrtext                   clrtext      0000
__Hcode                      code         0000
__Hcommon                    common       0000
__Hconfig                    config       2008
__HcstackBANK0               cstackBANK0  0000
__HcstackBANK1               cstackBANK1  0000
__HcstackCOMMON              cstackCOMMON 0000
__Heeprom_data               eeprom_data  0000
__Hend_init                  end_init     0003
__Hfunctab                   functab      0000
__Hheap                      heap         0000
__Hidloc                     idloc        2004
__Hinit                      init         0000
__Hintentry                  intentry     0000
__Hmaintext                  maintext     0000
__HnvBANK1                   nvBANK1      0000
__Hpowerup                   powerup      0000
__Hram                       ram          0000
__Hreset_vec                 reset_vec    0000
__Hsfr0                      sfr0         0000
__Hsfr1                      sfr1         0000
__Hsfr2                      sfr2         0000
__Hsfr3                      sfr3         0000
__Hspace_0                   (abs)        1000
__Hspace_1                   (abs)        00B8
__Hspace_2                   (abs)        0000
__Hspace_3                   (abs)        0000
__Hspace_4                   (abs)        400F
__Hstack                     stack        0000
__Hstrings                   strings      0000
__Htext                      text         0000
__L__absolute__              __absolute__ 0000
__Labs1                      abs1         0000
__Lbank0                     bank0        0000
__Lbank1                     bank1        0000
__Lbank2                     bank2        0000
__Lbank3                     bank3        0000
__Lcinit                     cinit        07FC
__Lclrtext                   clrtext      0000
__Lcode                      code         0000
__Lcommon                    common       0000
__Lconfig                    config       0000
__LcstackBANK0               cstackBANK0  0000
__LcstackBANK1               cstackBANK1  0000
__LcstackCOMMON              cstackCOMMON 0000
__Leeprom_data               eeprom_data  0000
__Lend_init                  end_init     0000
__Lfunctab                   functab      0000
__Lheap                      heap         0000
__Lidloc                     idloc        0000
__Linit                      init         0000
__Lintentry                  intentry     0000
__Lmaintext                  maintext     0000
__LnvBANK1                   nvBANK1      0000
__Lpowerup                   powerup      0000
__Lram                       ram          0000
__Lreset_vec                 reset_vec    0000
__Lsfr0                      sfr0         0000
__Lsfr1                      sfr1         0000
__Lsfr2                      sfr2         0000
__Lsfr3                      sfr3         0000
__Lspace_0                   (abs)        0000
__Lspace_1                   (abs)        0000
__Lspace_2                   (abs)        0000
__Lspace_3                   (abs)        0000
__Lspace_4                   (abs)        0000
__Lstack                     stack        0000
__Lstrings                   strings      0000
__Ltext                      text         0000
__S0                         (abs)        1000
__S1                         (abs)        00B8
__S3                         (abs)        0000
__Umul8_16                   text7        0CD2
__Umul8_16@multiplicand      cstackCOMMON 0070
__Umul8_16@multiplier        cstackCOMMON 0078
__Umul8_16@product           cstackCOMMON 0074
__Umul8_16@word_mpld         cstackCOMMON 0076
___fladd                     text2        025F
___fladd@a                   cstackBANK0  0053
___fladd@aexp                cstackBANK0  0060
___fladd@b                   cstackBANK0  004F
___fladd@bexp                cstackBANK0  0061
___fladd@grs                 cstackBANK0  0062
___fladd@signs               cstackBANK0  005F
___fldiv                     text8        008C
___fldiv@a                   cstackBANK0  0035
___fldiv@aexp                cstackBANK0  004E
___fldiv@b                   cstackBANK0  0039
___fldiv@bexp                cstackBANK0  004D
___fldiv@grs                 cstackBANK0  0049
___fldiv@new_exp             cstackBANK0  0047
___fldiv@rem                 cstackBANK0  0042
___fldiv@sign                cstackBANK0  0046
___flmul                     text6        04B7
___flmul@a                   cstackBANK0  0024
___flmul@aexp                cstackBANK0  002D
___flmul@b                   cstackBANK0  0020
___flmul@bexp                cstackBANK0  002E
___flmul@grs                 cstackBANK0  0029
___flmul@prod                cstackBANK0  002F
___flmul@sign                cstackBANK0  0028
___flmul@temp                cstackBANK0  0033
___fltol                     text5        0CF9
___fltol@exp1                cstackBANK0  006C
___fltol@f1                  cstackBANK0  0063
___fltol@sign1               cstackBANK0  006B
___heap_hi                   (abs)        0000
___heap_lo                   (abs)        0000
___init_pwm                  text9        0CC3
___int_sp                    stack        0000
___int_stack_hi              stack        0000
___int_stack_lo              stack        0000
___latbits                   (abs)        0002
___set_duty_cycle            text3        0EEE
___set_duty_cycle@dc         cstackBANK1  00A2
___set_duty_cycle@dc_period  cstackBANK1  00A6
___set_duty_cycle@duty_cycle cstackBANK0  006D
___set_duty_cycle@reg_value  cstackBANK1  00AA
___set_pwm_freq              text1        0E29
___set_pwm_freq@PR2_value    cstackBANK1  00A0
___set_pwm_freq@f            cstackBANK0  006D
___sp                        stack        0000
___stack_hi                  stack        0000
___stack_lo                  stack        0000
___stackhi                   (abs)        0000
___stacklo                   (abs)        0000
___xxtofl                    text4        0D71
___xxtofl@arg                cstackCOMMON 007A
___xxtofl@exp                cstackCOMMON 0079
___xxtofl@sign               cstackCOMMON 0078
___xxtofl@val                cstackCOMMON 0070
__end_of__Umul8_16           text7        0CF9
__end_of___fladd             text2        04B7
__end_of___fldiv             text8        025F
__end_of___flmul             text6        07FC
__end_of___fltol             text5        0D71
__end_of___init_pwm          text9        0CD2
__end_of___set_duty_cycle    text3        1000
__end_of___set_pwm_freq      text1        0EEE
__end_of___xxtofl            text4        0E29
__end_of__initialization     cinit        07FC
__end_of_main                maintext     008C
__initialization             cinit        07FC
__pcstackBANK0               cstackBANK0  0020
__pcstackBANK1               cstackBANK1  00A0
__pcstackCOMMON              cstackCOMMON 0070
__pmaintext                  maintext     0004
__pnvBANK1                   nvBANK1      00AE
__ptext1                     text1        0E29
__ptext2                     text2        025F
__ptext3                     text3        0EEE
__ptext4                     text4        0D71
__ptext5                     text5        0CF9
__ptext6                     text6        04B7
__ptext7                     text7        0CD2
__ptext8                     text8        008C
__ptext9                     text9        0CC3
_counter                     nvBANK1      00B2
_main                        maintext     0004
btemp                        (abs)        007E
end_of_initialization        cinit        07FC
intlevel0                    functab      0000
intlevel1                    functab      0000
intlevel2                    functab      0000
intlevel3                    functab      0000
intlevel4                    functab      0000
intlevel5                    functab      0000
reset_vec                    reset_vec    0000
start                        init         0000
start_initialization         cinit        07FC
wtemp0                       (abs)        007E


MODULE INFORMATION

Module		Function		Class		Link	Load	Size
/opt/microchip/xc8/v2.45/pic/sources/c99/common/sprcadd.c
		___fladd       		CODE           	025F	0000	600

/opt/microchip/xc8/v2.45/pic/sources/c99/common/sprcadd.c estimated size: 600

/opt/microchip/xc8/v2.45/pic/sources/c99/common/fltol.c
		___fltol       		CODE           	0CF9	0000	120

/opt/microchip/xc8/v2.45/pic/sources/c99/common/fltol.c estimated size: 120

/opt/microchip/xc8/v2.45/pic/sources/c99/common/Umul8_16.c
		__Umul8_16     		CODE           	0CD2	0000	39

/opt/microchip/xc8/v2.45/pic/sources/c99/common/Umul8_16.c estimated size: 39

shared
		__initialization		CODE           	07FC	0000	1

shared estimated size: 1

/opt/microchip/xc8/v2.45/pic/sources/c99/common/sprcmul.c
		___flmul       		CODE           	04B7	0000	837

/opt/microchip/xc8/v2.45/pic/sources/c99/common/sprcmul.c estimated size: 837

/opt/microchip/xc8/v2.45/pic/sources/c99/common/sprcdiv.c
		___fldiv       		CODE           	008C	0000	467

/opt/microchip/xc8/v2.45/pic/sources/c99/common/sprcdiv.c estimated size: 467

main.c
		_main          		CODE           	0004	0000	136
		___set_duty_cycle		CODE           	0EEE	0000	274
		___init_pwm    		CODE           	0CC3	0000	15
		___set_pwm_freq		CODE           	0E29	0000	197

main.c estimated size: 622

/opt/microchip/xc8/v2.45/pic/sources/c99/common/xxtofl.c
		___xxtofl      		CODE           	0D71	0000	184

/opt/microchip/xc8/v2.45/pic/sources/c99/common/xxtofl.c estimated size: 184

