

Microchip MPLAB XC8 Assembler V2.45 build 20230818022343 
                                                                                               Wed Oct 18 15:27:06 2023

Microchip MPLAB XC8 C Compiler v2.45 (Free license) build 20230818022343 Og1 
     1                           	processor	16F877A
     2                           	pagewidth 120
     3                           	opt	flic
     4                           	psect	nvBANK1,global,class=BANK1,space=1,delta=1,noexec
     5                           	psect	cinit,global,class=CODE,merge=1,delta=2
     6                           	psect	bssBANK1,global,class=BANK1,space=1,delta=1,noexec
     7                           	psect	cstackBANK1,global,class=BANK1,space=1,delta=1,noexec
     8                           	psect	cstackCOMMON,global,class=COMMON,space=1,delta=1,noexec
     9                           	psect	cstackBANK0,global,class=BANK0,space=1,delta=1,noexec
    10                           	psect	maintext,global,class=CODE,split=1,delta=2
    11                           	psect	text1,local,class=CODE,merge=1,delta=2
    12                           	psect	text2,local,class=CODE,merge=1,delta=2,group=1
    13                           	psect	text3,local,class=CODE,merge=1,delta=2
    14                           	psect	text4,local,class=CODE,merge=1,delta=2,group=1
    15                           	psect	text5,local,class=CODE,merge=1,delta=2,group=1
    16                           	psect	text6,local,class=CODE,merge=1,delta=2,group=1
    17                           	psect	text7,local,class=CODE,merge=1,delta=2,group=1
    18                           	psect	text8,local,class=CODE,merge=1,delta=2,group=1
    19                           	psect	text9,local,class=CODE,merge=1,delta=2
    20                           	psect	text10,local,class=CODE,merge=1,delta=2
    21                           	psect	text11,local,class=CODE,merge=1,delta=2,group=1
    22                           	psect	text12,local,class=CODE,merge=1,delta=2
    23                           	psect	idloc,global,abs,ovrld,class=IDLOC,space=5,delta=2,noexec
    24                           	psect	config,global,abs,ovrld,class=CONFIG,space=4,delta=2,noexec
    25                           	dabs	1,0x7E,2
    26     0000                     
    27                           ; Generated 22/03/2023 GMT
    28                           ; 
    29                           ; Copyright © 2023, Microchip Technology Inc. and its subsidiaries ("Microchip")
    30                           ; All rights reserved.
    31                           ; 
    32                           ; This software is developed by Microchip Technology Inc. and its subsidiaries ("Microch
      +                          ip").
    33                           ; 
    34                           ; Redistribution and use in source and binary forms, with or without modification, are
    35                           ; permitted provided that the following conditions are met:
    36                           ; 
    37                           ;     1. Redistributions of source code must retain the above copyright notice, this lis
      +                          t of
    38                           ;        conditions and the following disclaimer.
    39                           ; 
    40                           ;     2. Redistributions in binary form must reproduce the above copyright notice, this 
      +                          list
    41                           ;        of conditions and the following disclaimer in the documentation and/or other
    42                           ;        materials provided with the distribution. Publication is not required when
    43                           ;        this file is used in an embedded application.
    44                           ; 
    45                           ;     3. Microchip's name may not be used to endorse or promote products derived from th
      +                          is
    46                           ;        software without specific prior written permission.
    47                           ; 
    48                           ; THIS SOFTWARE IS PROVIDED BY MICROCHIP "AS IS" AND ANY EXPRESS OR IMPLIED WARRANTIES,
    49                           ; INCLUDING, BUT NOT LIMITED TO, THE IMPLIED WARRANTIES OF MERCHANTABILITY AND FITNESS F
      +                          OR
    50                           ; PURPOSE ARE DISCLAIMED.  IN NO EVENT SHALL MICROCHIP BE LIABLE FOR ANY DIRECT, INDIREC
      +                          T,
    51                           ; INCIDENTAL, SPECIAL, EXEMPLARY, OR CONSEQUENTIAL DAMAGES (INCLUDING BUT NOT LIMITED TO
    52                           ; PROCUREMENT OF SUBSTITUTE GOODS OR SERVICES; LOSS OF USE, DATA OR PROFITS; OR BUSINESS
    53                           ; INTERRUPTION) HOWSOEVER CAUSED AND ON ANY THEORY OF LIABILITY, WHETHER IN CONTRACT, ST
      +                          RICT
    54                           ; LIABILITY, OR TORT (INCLUDING NEGLIGENCE OR OTHERWISE) ARISING IN ANY WAY OUT OF THE U
      +                          SE OF
    55                           ; THIS SOFTWARE, EVEN IF ADVISED OF THE POSSIBILITY OF SUCH DAMAGE.
    56                           ; 
    57                           ; 
    58                           ; Code-generator required, PIC16F877A Definitions
    59                           ; 
    60                           ; SFR Addresses
    61     0000                     	;# 
    62     0001                     	;# 
    63     0002                     	;# 
    64     0003                     	;# 
    65     0004                     	;# 
    66     0005                     	;# 
    67     0006                     	;# 
    68     0007                     	;# 
    69     0008                     	;# 
    70     0009                     	;# 
    71     000A                     	;# 
    72     000B                     	;# 
    73     000C                     	;# 
    74     000D                     	;# 
    75     000E                     	;# 
    76     000E                     	;# 
    77     000F                     	;# 
    78     0010                     	;# 
    79     0011                     	;# 
    80     0012                     	;# 
    81     0013                     	;# 
    82     0014                     	;# 
    83     0015                     	;# 
    84     0015                     	;# 
    85     0016                     	;# 
    86     0017                     	;# 
    87     0018                     	;# 
    88     0019                     	;# 
    89     001A                     	;# 
    90     001B                     	;# 
    91     001B                     	;# 
    92     001C                     	;# 
    93     001D                     	;# 
    94     001E                     	;# 
    95     001F                     	;# 
    96     0081                     	;# 
    97     0085                     	;# 
    98     0086                     	;# 
    99     0087                     	;# 
   100     0088                     	;# 
   101     0089                     	;# 
   102     008C                     	;# 
   103     008D                     	;# 
   104     008E                     	;# 
   105     0091                     	;# 
   106     0092                     	;# 
   107     0093                     	;# 
   108     0094                     	;# 
   109     0098                     	;# 
   110     0099                     	;# 
   111     009C                     	;# 
   112     009D                     	;# 
   113     009E                     	;# 
   114     009F                     	;# 
   115     010C                     	;# 
   116     010D                     	;# 
   117     010E                     	;# 
   118     010F                     	;# 
   119     018C                     	;# 
   120     018D                     	;# 
   121     0000                     	;# 
   122     0001                     	;# 
   123     0002                     	;# 
   124     0003                     	;# 
   125     0004                     	;# 
   126     0005                     	;# 
   127     0006                     	;# 
   128     0007                     	;# 
   129     0008                     	;# 
   130     0009                     	;# 
   131     000A                     	;# 
   132     000B                     	;# 
   133     000C                     	;# 
   134     000D                     	;# 
   135     000E                     	;# 
   136     000E                     	;# 
   137     000F                     	;# 
   138     0010                     	;# 
   139     0011                     	;# 
   140     0012                     	;# 
   141     0013                     	;# 
   142     0014                     	;# 
   143     0015                     	;# 
   144     0015                     	;# 
   145     0016                     	;# 
   146     0017                     	;# 
   147     0018                     	;# 
   148     0019                     	;# 
   149     001A                     	;# 
   150     001B                     	;# 
   151     001B                     	;# 
   152     001C                     	;# 
   153     001D                     	;# 
   154     001E                     	;# 
   155     001F                     	;# 
   156     0081                     	;# 
   157     0085                     	;# 
   158     0086                     	;# 
   159     0087                     	;# 
   160     0088                     	;# 
   161     0089                     	;# 
   162     008C                     	;# 
   163     008D                     	;# 
   164     008E                     	;# 
   165     0091                     	;# 
   166     0092                     	;# 
   167     0093                     	;# 
   168     0094                     	;# 
   169     0098                     	;# 
   170     0099                     	;# 
   171     009C                     	;# 
   172     009D                     	;# 
   173     009E                     	;# 
   174     009F                     	;# 
   175     010C                     	;# 
   176     010D                     	;# 
   177     010E                     	;# 
   178     010F                     	;# 
   179     018C                     	;# 
   180     018D                     	;# 
   181                           
   182                           	psect	nvBANK1
   183     00AF                     __pnvBANK1:
   184     00AF                     _PWM_PERIOD:
   185     00AF                     	ds	4
   186     00B3                     _PWM_FREQ:
   187     00B3                     	ds	4
   188     0015                     _CCPR1L	set	21
   189     0017                     _CCP1CONbits	set	23
   190     0012                     _T2CONbits	set	18
   191     001E                     _ADRESH	set	30
   192     001F                     _ADCON0bits	set	31
   193     0087                     _TRISCbits	set	135
   194     0092                     _PR2	set	146
   195     009E                     _ADRESL	set	158
   196     009F                     _ADCON1bits	set	159
   197                           
   198                           	psect	cinit
   199     07F8                     start_initialization:	
   200                           ; #config settings
   201                           
   202     07F8                     __initialization:
   203                           
   204                           ; Clear objects allocated to BANK1
   205     07F8  1683               	bsf	3,5	;RP0=1, select bank1
   206     07F9  1303               	bcf	3,6	;RP1=0, select bank1
   207     07FA  01B7               	clrf	__pbssBANK1& (0+127)
   208     07FB  01B8               	clrf	(__pbssBANK1+1)& (0+127)
   209     07FC                     end_of_initialization:	
   210                           ;End of C runtime variable initialization code
   211                           
   212     07FC                     __end_of__initialization:
   213     07FC  0183               	clrf	3
   214     07FD  120A  158A  2CDE   	ljmp	_main	;jump to C main() function
   215                           
   216                           	psect	bssBANK1
   217     00B7                     __pbssBANK1:
   218     00B7                     _counter:
   219     00B7                     	ds	2
   220                           
   221                           	psect	cstackBANK1
   222     00A0                     __pcstackBANK1:
   223     00A0                     ?___awdiv:
   224     00A0                     ___set_pwm_freq@PR2_value:	
   225                           ; 2 bytes @ 0x0
   226                           
   227     00A0                     ___awdiv@divisor:	
   228                           ; 2 bytes @ 0x0
   229                           
   230     00A0                     ___set_duty_cycle@dc:	
   231                           ; 2 bytes @ 0x0
   232                           
   233                           
   234                           ; 4 bytes @ 0x0
   235     00A0                     	ds	2
   236     00A2                     ___awdiv@dividend:
   237                           
   238                           ; 2 bytes @ 0x2
   239     00A2                     	ds	2
   240     00A4                     ___awdiv@counter:
   241     00A4                     ___set_duty_cycle@dc_period:	
   242                           ; 1 bytes @ 0x4
   243                           
   244                           
   245                           ; 4 bytes @ 0x4
   246     00A4                     	ds	1
   247     00A5                     ___awdiv@sign:
   248                           
   249                           ; 1 bytes @ 0x5
   250     00A5                     	ds	1
   251     00A6                     ___awdiv@quotient:
   252                           
   253                           ; 2 bytes @ 0x6
   254     00A6                     	ds	2
   255     00A8                     ___set_duty_cycle@reg_value:
   256                           
   257                           ; 1 bytes @ 0x8
   258     00A8                     	ds	1
   259     00A9                     main@adc_value:
   260                           
   261                           ; 4 bytes @ 0x9
   262     00A9                     	ds	4
   263     00AD                     main@pwm_value:
   264                           
   265                           ; 2 bytes @ 0xD
   266     00AD                     	ds	2
   267                           
   268                           	psect	cstackCOMMON
   269     0070                     __pcstackCOMMON:
   270     0070                     ?___init_adc:
   271     0070                     ??___init_adc:	
   272                           ; 1 bytes @ 0x0
   273                           
   274     0070                     ?___init_pwm:	
   275                           ; 1 bytes @ 0x0
   276                           
   277     0070                     ??___init_pwm:	
   278                           ; 1 bytes @ 0x0
   279                           
   280     0070                     ?_main:	
   281                           ; 1 bytes @ 0x0
   282                           
   283     0070                     ?__Umul8_16:	
   284                           ; 1 bytes @ 0x0
   285                           
   286     0070                     ?___adc_read:	
   287                           ; 2 bytes @ 0x0
   288                           
   289     0070                     __Umul8_16@multiplicand:	
   290                           ; 2 bytes @ 0x0
   291                           
   292     0070                     ___adc_read@adc_channel:	
   293                           ; 1 bytes @ 0x0
   294                           
   295                           
   296                           ; 2 bytes @ 0x0
   297     0070                     	ds	2
   298     0072                     ??__Umul8_16:
   299     0072                     ??___adc_read:	
   300                           ; 1 bytes @ 0x2
   301                           
   302                           
   303                           ; 1 bytes @ 0x2
   304     0072                     	ds	2
   305     0074                     ___adc_read@adc_value:
   306     0074                     __Umul8_16@product:	
   307                           ; 2 bytes @ 0x4
   308                           
   309                           
   310                           ; 2 bytes @ 0x4
   311     0074                     	ds	2
   312     0076                     ?___xxtofl:
   313     0076                     __Umul8_16@word_mpld:	
   314                           ; 4 bytes @ 0x6
   315                           
   316     0076                     ___xxtofl@val:	
   317                           ; 2 bytes @ 0x6
   318                           
   319                           
   320                           ; 4 bytes @ 0x6
   321     0076                     	ds	2
   322     0078                     __Umul8_16@multiplier:
   323                           
   324                           ; 1 bytes @ 0x8
   325     0078                     	ds	1
   326     0079                     ??___flmul:
   327                           
   328                           ; 1 bytes @ 0x9
   329     0079                     	ds	1
   330     007A                     ??___xxtofl:
   331                           
   332                           ; 1 bytes @ 0xA
   333     007A                     	ds	4
   334     007E                     ??___set_pwm_freq:
   335     007E                     ??_main:	
   336                           ; 1 bytes @ 0xE
   337                           
   338                           
   339                           	psect	cstackBANK0
   340     0020                     __pcstackBANK0:	
   341                           ; 1 bytes @ 0xE
   342                           
   343     0020                     ?___flmul:
   344     0020                     ___xxtofl@sign:	
   345                           ; 4 bytes @ 0x0
   346                           
   347     0020                     ___flmul@b:	
   348                           ; 1 bytes @ 0x0
   349                           
   350                           
   351                           ; 4 bytes @ 0x0
   352     0020                     	ds	1
   353     0021                     ___xxtofl@exp:
   354                           
   355                           ; 1 bytes @ 0x1
   356     0021                     	ds	1
   357     0022                     ___xxtofl@arg:
   358                           
   359                           ; 4 bytes @ 0x2
   360     0022                     	ds	2
   361     0024                     ___flmul@a:
   362                           
   363                           ; 4 bytes @ 0x4
   364     0024                     	ds	4
   365     0028                     ___flmul@sign:
   366                           
   367                           ; 1 bytes @ 0x8
   368     0028                     	ds	1
   369     0029                     ___flmul@grs:
   370                           
   371                           ; 4 bytes @ 0x9
   372     0029                     	ds	4
   373     002D                     ___flmul@aexp:
   374                           
   375                           ; 1 bytes @ 0xD
   376     002D                     	ds	1
   377     002E                     ___flmul@bexp:
   378                           
   379                           ; 1 bytes @ 0xE
   380     002E                     	ds	1
   381     002F                     ___flmul@prod:
   382                           
   383                           ; 4 bytes @ 0xF
   384     002F                     	ds	4
   385     0033                     ___flmul@temp:
   386                           
   387                           ; 2 bytes @ 0x13
   388     0033                     	ds	2
   389     0035                     ?___fldiv:
   390     0035                     ___fldiv@a:	
   391                           ; 4 bytes @ 0x15
   392                           
   393                           
   394                           ; 4 bytes @ 0x15
   395     0035                     	ds	4
   396     0039                     ___fldiv@b:
   397                           
   398                           ; 4 bytes @ 0x19
   399     0039                     	ds	4
   400     003D                     ??___fldiv:
   401                           
   402                           ; 1 bytes @ 0x1D
   403     003D                     	ds	5
   404     0042                     ___fldiv@rem:
   405                           
   406                           ; 4 bytes @ 0x22
   407     0042                     	ds	4
   408     0046                     ___fldiv@sign:
   409                           
   410                           ; 1 bytes @ 0x26
   411     0046                     	ds	1
   412     0047                     ___fldiv@new_exp:
   413                           
   414                           ; 2 bytes @ 0x27
   415     0047                     	ds	2
   416     0049                     ___fldiv@grs:
   417                           
   418                           ; 4 bytes @ 0x29
   419     0049                     	ds	4
   420     004D                     ___fldiv@bexp:
   421                           
   422                           ; 1 bytes @ 0x2D
   423     004D                     	ds	1
   424     004E                     ___fldiv@aexp:
   425                           
   426                           ; 1 bytes @ 0x2E
   427     004E                     	ds	1
   428     004F                     ?___fladd:
   429     004F                     ___fladd@b:	
   430                           ; 4 bytes @ 0x2F
   431                           
   432                           
   433                           ; 4 bytes @ 0x2F
   434     004F                     	ds	4
   435     0053                     ___fladd@a:
   436                           
   437                           ; 4 bytes @ 0x33
   438     0053                     	ds	4
   439     0057                     ??___fladd:
   440                           
   441                           ; 1 bytes @ 0x37
   442     0057                     	ds	8
   443     005F                     ___fladd@signs:
   444                           
   445                           ; 1 bytes @ 0x3F
   446     005F                     	ds	1
   447     0060                     ___fladd@aexp:
   448                           
   449                           ; 1 bytes @ 0x40
   450     0060                     	ds	1
   451     0061                     ___fladd@bexp:
   452                           
   453                           ; 1 bytes @ 0x41
   454     0061                     	ds	1
   455     0062                     ___fladd@grs:
   456                           
   457                           ; 1 bytes @ 0x42
   458     0062                     	ds	1
   459     0063                     ?___fltol:
   460     0063                     ___fltol@f1:	
   461                           ; 4 bytes @ 0x43
   462                           
   463                           
   464                           ; 4 bytes @ 0x43
   465     0063                     	ds	4
   466     0067                     ??___fltol:
   467                           
   468                           ; 1 bytes @ 0x47
   469     0067                     	ds	4
   470     006B                     ___fltol@sign1:
   471                           
   472                           ; 1 bytes @ 0x4B
   473     006B                     	ds	1
   474     006C                     ___fltol@exp1:
   475                           
   476                           ; 1 bytes @ 0x4C
   477     006C                     	ds	1
   478     006D                     ?___set_pwm_freq:
   479     006D                     ?___set_duty_cycle:	
   480                           ; 1 bytes @ 0x4D
   481                           
   482     006D                     ??___awdiv:	
   483                           ; 1 bytes @ 0x4D
   484                           
   485     006D                     ___set_pwm_freq@f:	
   486                           ; 1 bytes @ 0x4D
   487                           
   488     006D                     ___set_duty_cycle@duty_cycle:	
   489                           ; 2 bytes @ 0x4D
   490                           
   491                           
   492                           ; 2 bytes @ 0x4D
   493     006D                     	ds	2
   494     006F                     ??___set_duty_cycle:
   495                           
   496                           ; 1 bytes @ 0x4F
   497     006F                     	ds	1
   498                           
   499                           	psect	maintext
   500     0CDE                     __pmaintext:	
   501 ;;
   502 ;;Main: autosize = 0, tempsize = 0, incstack = 0, save=0
   503 ;;
   504 ;; *************** function _main *****************
   505 ;; Defined at:
   506 ;;		line 91 in file "main.c"
   507 ;; Parameters:    Size  Location     Type
   508 ;;		None
   509 ;; Auto vars:     Size  Location     Type
   510 ;;  adc_value       4    9[BANK1 ] float 
   511 ;;  pwm_value       2   13[BANK1 ] int 
   512 ;; Return value:  Size  Location     Type
   513 ;;                  1    wreg      void 
   514 ;; Registers used:
   515 ;;		wreg, status,2, status,0, btemp+1, pclath, cstack
   516 ;; Tracked objects:
   517 ;;		On entry : B00/0
   518 ;;		On exit  : 0/0
   519 ;;		Unchanged: 0/0
   520 ;; Data sizes:     COMMON   BANK0   BANK1   BANK3   BANK2
   521 ;;      Params:         0       0       0       0       0
   522 ;;      Locals:         0       0       6       0       0
   523 ;;      Temps:          0       0       0       0       0
   524 ;;      Totals:         0       0       6       0       0
   525 ;;Total ram usage:        6 bytes
   526 ;; Hardware stack levels required when called: 3
   527 ;; This function calls:
   528 ;;		___adc_read
   529 ;;		___awdiv
   530 ;;		___flmul
   531 ;;		___fltol
   532 ;;		___init_adc
   533 ;;		___init_pwm
   534 ;;		___set_duty_cycle
   535 ;;		___set_pwm_freq
   536 ;;		___xxtofl
   537 ;; This function is called by:
   538 ;;		Startup code after reset
   539 ;; This function uses a non-reentrant model
   540 ;;
   541                           
   542     0CDE                     _main:	
   543                           ;psect for function _main
   544                           
   545     0CDE                     l1914:	
   546                           ;incstack = 0
   547                           ; Regs used in _main: [wreg+status,2+status,0+btemp+1+pclath+cstack]
   548                           
   549                           
   550                           ;main.c: 92:     __set_pwm_freq(2000);
   551     0CDE  30D0               	movlw	208
   552     0CDF  1283               	bcf	3,5	;RP0=0, select bank0
   553     0CE0  1303               	bcf	3,6	;RP1=0, select bank0
   554     0CE1  00ED               	movwf	___set_pwm_freq@f
   555     0CE2  3007               	movlw	7
   556     0CE3  00EE               	movwf	___set_pwm_freq@f+1
   557     0CE4  120A  158A  2639  120A  158A  	fcall	___set_pwm_freq
   558     0CE9                     l1916:
   559                           
   560                           ;main.c: 93:     __init_pwm();
   561     0CE9  120A  158A  240F  120A  158A  	fcall	___init_pwm
   562     0CEE                     l1918:
   563                           
   564                           ;main.c: 94:     __set_duty_cycle(0);
   565     0CEE  3000               	movlw	0
   566     0CEF  1283               	bcf	3,5	;RP0=0, select bank0
   567     0CF0  1303               	bcf	3,6	;RP1=0, select bank0
   568     0CF1  00ED               	movwf	___set_duty_cycle@duty_cycle
   569     0CF2  00EE               	movwf	___set_duty_cycle@duty_cycle+1
   570     0CF3  120A  158A  26FE  120A  158A  	fcall	___set_duty_cycle
   571                           
   572                           ;main.c: 96:     __init_adc();
   573     0CF8  120A  158A  2401  120A  158A  	fcall	___init_adc
   574     0CFD                     l49:	
   575                           ;main.c: 98:     while (1) {
   576                           
   577                           
   578                           ;main.c: 99:         float adc_value = (float) __adc_read(1);
   579     0CFD  3001               	movlw	1
   580     0CFE  00F0               	movwf	___adc_read@adc_channel
   581     0CFF  3000               	movlw	0
   582     0D00  00F1               	movwf	___adc_read@adc_channel+1
   583     0D01  120A  158A  2445  120A  158A  	fcall	___adc_read
   584     0D06  0870               	movf	?___adc_read,w
   585     0D07  00F6               	movwf	___xxtofl@val
   586     0D08  0871               	movf	?___adc_read+1,w
   587     0D09  00F7               	movwf	___xxtofl@val+1
   588     0D0A  3000               	movlw	0
   589     0D0B  1BF7               	btfsc	___xxtofl@val+1,7
   590     0D0C  30FF               	movlw	255
   591     0D0D  00F8               	movwf	___xxtofl@val+2
   592     0D0E  00F9               	movwf	___xxtofl@val+3
   593     0D0F  3001               	movlw	1
   594     0D10  120A  158A  257F  120A  158A  	fcall	___xxtofl
   595     0D15  0879               	movf	?___xxtofl+3,w
   596     0D16  1683               	bsf	3,5	;RP0=1, select bank1
   597     0D17  1303               	bcf	3,6	;RP1=0, select bank1
   598     0D18  00AC               	movwf	(main@adc_value+3)^(0+128)
   599     0D19  0878               	movf	?___xxtofl+2,w
   600     0D1A  00AB               	movwf	(main@adc_value+2)^(0+128)
   601     0D1B  0877               	movf	?___xxtofl+1,w
   602     0D1C  00AA               	movwf	(main@adc_value+1)^(0+128)
   603     0D1D  0876               	movf	?___xxtofl,w
   604     0D1E  00A9               	movwf	main@adc_value^(0+128)
   605     0D1F                     l1920:
   606                           
   607                           ;main.c: 100:         int pwm_value = (int) (adc_value * 100) / 1023;
   608     0D1F  30FF               	movlw	255
   609     0D20  00A0               	movwf	___awdiv@divisor^(0+128)
   610     0D21  3003               	movlw	3
   611     0D22  00A1               	movwf	(___awdiv@divisor^(0+128)+1)
   612     0D23  082C               	movf	(main@adc_value+3)^(0+128),w
   613     0D24  1283               	bcf	3,5	;RP0=0, select bank0
   614     0D25  1303               	bcf	3,6	;RP1=0, select bank0
   615     0D26  00A7               	movwf	___flmul@a+3
   616     0D27  1683               	bsf	3,5	;RP0=1, select bank1
   617     0D28  1303               	bcf	3,6	;RP1=0, select bank1
   618     0D29  082B               	movf	(main@adc_value+2)^(0+128),w
   619     0D2A  1283               	bcf	3,5	;RP0=0, select bank0
   620     0D2B  1303               	bcf	3,6	;RP1=0, select bank0
   621     0D2C  00A6               	movwf	___flmul@a+2
   622     0D2D  1683               	bsf	3,5	;RP0=1, select bank1
   623     0D2E  1303               	bcf	3,6	;RP1=0, select bank1
   624     0D2F  082A               	movf	(main@adc_value+1)^(0+128),w
   625     0D30  1283               	bcf	3,5	;RP0=0, select bank0
   626     0D31  1303               	bcf	3,6	;RP1=0, select bank0
   627     0D32  00A5               	movwf	___flmul@a+1
   628     0D33  1683               	bsf	3,5	;RP0=1, select bank1
   629     0D34  1303               	bcf	3,6	;RP1=0, select bank1
   630     0D35  0829               	movf	main@adc_value^(0+128),w
   631     0D36  1283               	bcf	3,5	;RP0=0, select bank0
   632     0D37  1303               	bcf	3,6	;RP1=0, select bank0
   633     0D38  00A4               	movwf	___flmul@a
   634     0D39  3042               	movlw	66
   635     0D3A  00A3               	movwf	___flmul@b+3
   636     0D3B  30C8               	movlw	200
   637     0D3C  00A2               	movwf	___flmul@b+2
   638     0D3D  3000               	movlw	0
   639     0D3E  00A1               	movwf	___flmul@b+1
   640     0D3F  3000               	movlw	0
   641     0D40  00A0               	movwf	___flmul@b
   642     0D41  120A  118A  24B3  120A  158A  	fcall	___flmul
   643     0D46  1283               	bcf	3,5	;RP0=0, select bank0
   644     0D47  1303               	bcf	3,6	;RP1=0, select bank0
   645     0D48  0823               	movf	?___flmul+3,w
   646     0D49  00E6               	movwf	___fltol@f1+3
   647     0D4A  0822               	movf	?___flmul+2,w
   648     0D4B  00E5               	movwf	___fltol@f1+2
   649     0D4C  0821               	movf	?___flmul+1,w
   650     0D4D  00E4               	movwf	___fltol@f1+1
   651     0D4E  0820               	movf	?___flmul,w
   652     0D4F  00E3               	movwf	___fltol@f1
   653     0D50  120A  118A  2010  120A  158A  	fcall	___fltol
   654     0D55  1283               	bcf	3,5	;RP0=0, select bank0
   655     0D56  1303               	bcf	3,6	;RP1=0, select bank0
   656     0D57  0864               	movf	?___fltol+1,w
   657     0D58  1683               	bsf	3,5	;RP0=1, select bank1
   658     0D59  1303               	bcf	3,6	;RP1=0, select bank1
   659     0D5A  00A3               	movwf	(___awdiv@dividend+1)^(0+128)
   660     0D5B  1283               	bcf	3,5	;RP0=0, select bank0
   661     0D5C  1303               	bcf	3,6	;RP1=0, select bank0
   662     0D5D  0863               	movf	?___fltol,w
   663     0D5E  1683               	bsf	3,5	;RP0=1, select bank1
   664     0D5F  1303               	bcf	3,6	;RP1=0, select bank1
   665     0D60  00A2               	movwf	___awdiv@dividend^(0+128)
   666     0D61  120A  158A  246D  120A  158A  	fcall	___awdiv
   667     0D66  1683               	bsf	3,5	;RP0=1, select bank1
   668     0D67  1303               	bcf	3,6	;RP1=0, select bank1
   669     0D68  0821               	movf	(?___awdiv+1)^(0+128),w
   670     0D69  00AE               	movwf	(main@pwm_value+1)^(0+128)
   671     0D6A  0820               	movf	?___awdiv^(0+128),w
   672     0D6B  00AD               	movwf	main@pwm_value^(0+128)
   673     0D6C                     l1922:
   674                           
   675                           ;main.c: 101:         __set_duty_cycle(pwm_value);
   676     0D6C  082E               	movf	(main@pwm_value+1)^(0+128),w
   677     0D6D  1283               	bcf	3,5	;RP0=0, select bank0
   678     0D6E  1303               	bcf	3,6	;RP1=0, select bank0
   679     0D6F  00EE               	movwf	___set_duty_cycle@duty_cycle+1
   680     0D70  1683               	bsf	3,5	;RP0=1, select bank1
   681     0D71  1303               	bcf	3,6	;RP1=0, select bank1
   682     0D72  082D               	movf	main@pwm_value^(0+128),w
   683     0D73  1283               	bcf	3,5	;RP0=0, select bank0
   684     0D74  1303               	bcf	3,6	;RP1=0, select bank0
   685     0D75  00ED               	movwf	___set_duty_cycle@duty_cycle
   686     0D76  120A  158A  26FE  120A  158A  	fcall	___set_duty_cycle
   687     0D7B  2CFD               	goto	l49
   688     0D7C  120A  118A  2800   	ljmp	start
   689     0D7F                     __end_of_main:
   690                           
   691                           	psect	text1
   692     0E39                     __ptext1:	
   693 ;; *************** function ___set_pwm_freq *****************
   694 ;; Defined at:
   695 ;;		line 61 in file "main.c"
   696 ;; Parameters:    Size  Location     Type
   697 ;;  f               2   77[BANK0 ] int 
   698 ;; Auto vars:     Size  Location     Type
   699 ;;  PR2_value       2    0[BANK1 ] int 
   700 ;; Return value:  Size  Location     Type
   701 ;;                  1    wreg      void 
   702 ;; Registers used:
   703 ;;		wreg, status,2, status,0, btemp+1, pclath, cstack
   704 ;; Tracked objects:
   705 ;;		On entry : 0/0
   706 ;;		On exit  : 0/0
   707 ;;		Unchanged: 0/0
   708 ;; Data sizes:     COMMON   BANK0   BANK1   BANK3   BANK2
   709 ;;      Params:         0       2       0       0       0
   710 ;;      Locals:         0       0       2       0       0
   711 ;;      Temps:          0       0       0       0       0
   712 ;;      Totals:         0       2       2       0       0
   713 ;;Total ram usage:        4 bytes
   714 ;; Hardware stack levels used: 1
   715 ;; Hardware stack levels required when called: 2
   716 ;; This function calls:
   717 ;;		___fladd
   718 ;;		___fldiv
   719 ;;		___flmul
   720 ;;		___fltol
   721 ;;		___xxtofl
   722 ;; This function is called by:
   723 ;;		_main
   724 ;; This function uses a non-reentrant model
   725 ;;
   726                           
   727     0E39                     ___set_pwm_freq:	
   728                           ;psect for function ___set_pwm_freq
   729                           
   730     0E39                     l1850:	
   731                           ;incstack = 0
   732                           ; Regs used in ___set_pwm_freq: [wreg+status,2+status,0+btemp+1+pclath+cstack]
   733                           
   734                           
   735                           ;main.c: 62:     PWM_FREQ = f;
   736     0E39  1283               	bcf	3,5	;RP0=0, select bank0
   737     0E3A  1303               	bcf	3,6	;RP1=0, select bank0
   738     0E3B  086D               	movf	___set_pwm_freq@f,w
   739     0E3C  00F6               	movwf	___xxtofl@val
   740     0E3D  086E               	movf	___set_pwm_freq@f+1,w
   741     0E3E  00F7               	movwf	___xxtofl@val+1
   742     0E3F  3000               	movlw	0
   743     0E40  1BF7               	btfsc	___xxtofl@val+1,7
   744     0E41  30FF               	movlw	255
   745     0E42  00F8               	movwf	___xxtofl@val+2
   746     0E43  00F9               	movwf	___xxtofl@val+3
   747     0E44  3001               	movlw	1
   748     0E45  120A  158A  257F  120A  158A  	fcall	___xxtofl
   749     0E4A  0879               	movf	?___xxtofl+3,w
   750     0E4B  1683               	bsf	3,5	;RP0=1, select bank1
   751     0E4C  1303               	bcf	3,6	;RP1=0, select bank1
   752     0E4D  00B6               	movwf	(_PWM_FREQ+3)^(0+128)
   753     0E4E  0878               	movf	?___xxtofl+2,w
   754     0E4F  00B5               	movwf	(_PWM_FREQ+2)^(0+128)
   755     0E50  0877               	movf	?___xxtofl+1,w
   756     0E51  00B4               	movwf	(_PWM_FREQ+1)^(0+128)
   757     0E52  0876               	movf	?___xxtofl,w
   758     0E53  00B3               	movwf	_PWM_FREQ^(0+128)
   759     0E54                     l1852:
   760                           
   761                           ;main.c: 63:     PWM_PERIOD = 1 / PWM_FREQ;
   762     0E54  0836               	movf	(_PWM_FREQ+3)^(0+128),w
   763     0E55  1283               	bcf	3,5	;RP0=0, select bank0
   764     0E56  1303               	bcf	3,6	;RP1=0, select bank0
   765     0E57  00B8               	movwf	___fldiv@a+3
   766     0E58  1683               	bsf	3,5	;RP0=1, select bank1
   767     0E59  1303               	bcf	3,6	;RP1=0, select bank1
   768     0E5A  0835               	movf	(_PWM_FREQ+2)^(0+128),w
   769     0E5B  1283               	bcf	3,5	;RP0=0, select bank0
   770     0E5C  1303               	bcf	3,6	;RP1=0, select bank0
   771     0E5D  00B7               	movwf	___fldiv@a+2
   772     0E5E  1683               	bsf	3,5	;RP0=1, select bank1
   773     0E5F  1303               	bcf	3,6	;RP1=0, select bank1
   774     0E60  0834               	movf	(_PWM_FREQ+1)^(0+128),w
   775     0E61  1283               	bcf	3,5	;RP0=0, select bank0
   776     0E62  1303               	bcf	3,6	;RP1=0, select bank0
   777     0E63  00B6               	movwf	___fldiv@a+1
   778     0E64  1683               	bsf	3,5	;RP0=1, select bank1
   779     0E65  1303               	bcf	3,6	;RP1=0, select bank1
   780     0E66  0833               	movf	_PWM_FREQ^(0+128),w
   781     0E67  1283               	bcf	3,5	;RP0=0, select bank0
   782     0E68  1303               	bcf	3,6	;RP1=0, select bank0
   783     0E69  00B5               	movwf	___fldiv@a
   784     0E6A  303F               	movlw	63
   785     0E6B  00BC               	movwf	___fldiv@b+3
   786     0E6C  3080               	movlw	128
   787     0E6D  00BB               	movwf	___fldiv@b+2
   788     0E6E  3000               	movlw	0
   789     0E6F  00BA               	movwf	___fldiv@b+1
   790     0E70  3000               	movlw	0
   791     0E71  00B9               	movwf	___fldiv@b
   792     0E72  120A  118A  2088  120A  158A  	fcall	___fldiv
   793     0E77  1283               	bcf	3,5	;RP0=0, select bank0
   794     0E78  1303               	bcf	3,6	;RP1=0, select bank0
   795     0E79  0838               	movf	?___fldiv+3,w
   796     0E7A  1683               	bsf	3,5	;RP0=1, select bank1
   797     0E7B  1303               	bcf	3,6	;RP1=0, select bank1
   798     0E7C  00B2               	movwf	(_PWM_PERIOD+3)^(0+128)
   799     0E7D  1283               	bcf	3,5	;RP0=0, select bank0
   800     0E7E  1303               	bcf	3,6	;RP1=0, select bank0
   801     0E7F  0837               	movf	?___fldiv+2,w
   802     0E80  1683               	bsf	3,5	;RP0=1, select bank1
   803     0E81  1303               	bcf	3,6	;RP1=0, select bank1
   804     0E82  00B1               	movwf	(_PWM_PERIOD+2)^(0+128)
   805     0E83  1283               	bcf	3,5	;RP0=0, select bank0
   806     0E84  1303               	bcf	3,6	;RP1=0, select bank0
   807     0E85  0836               	movf	?___fldiv+1,w
   808     0E86  1683               	bsf	3,5	;RP0=1, select bank1
   809     0E87  1303               	bcf	3,6	;RP1=0, select bank1
   810     0E88  00B0               	movwf	(_PWM_PERIOD+1)^(0+128)
   811     0E89  1283               	bcf	3,5	;RP0=0, select bank0
   812     0E8A  1303               	bcf	3,6	;RP1=0, select bank0
   813     0E8B  0835               	movf	?___fldiv,w
   814     0E8C  1683               	bsf	3,5	;RP0=1, select bank1
   815     0E8D  1303               	bcf	3,6	;RP1=0, select bank1
   816     0E8E  00AF               	movwf	_PWM_PERIOD^(0+128)
   817     0E8F                     l1854:
   818                           
   819                           ;main.c: 64:     int PR2_value = (int) ((PWM_PERIOD * 16000000) / (4 * 16) - 1);
   820     0E8F  0832               	movf	(_PWM_PERIOD+3)^(0+128),w
   821     0E90  1283               	bcf	3,5	;RP0=0, select bank0
   822     0E91  1303               	bcf	3,6	;RP1=0, select bank0
   823     0E92  00A7               	movwf	___flmul@a+3
   824     0E93  1683               	bsf	3,5	;RP0=1, select bank1
   825     0E94  1303               	bcf	3,6	;RP1=0, select bank1
   826     0E95  0831               	movf	(_PWM_PERIOD+2)^(0+128),w
   827     0E96  1283               	bcf	3,5	;RP0=0, select bank0
   828     0E97  1303               	bcf	3,6	;RP1=0, select bank0
   829     0E98  00A6               	movwf	___flmul@a+2
   830     0E99  1683               	bsf	3,5	;RP0=1, select bank1
   831     0E9A  1303               	bcf	3,6	;RP1=0, select bank1
   832     0E9B  0830               	movf	(_PWM_PERIOD+1)^(0+128),w
   833     0E9C  1283               	bcf	3,5	;RP0=0, select bank0
   834     0E9D  1303               	bcf	3,6	;RP1=0, select bank0
   835     0E9E  00A5               	movwf	___flmul@a+1
   836     0E9F  1683               	bsf	3,5	;RP0=1, select bank1
   837     0EA0  1303               	bcf	3,6	;RP1=0, select bank1
   838     0EA1  082F               	movf	_PWM_PERIOD^(0+128),w
   839     0EA2  1283               	bcf	3,5	;RP0=0, select bank0
   840     0EA3  1303               	bcf	3,6	;RP1=0, select bank0
   841     0EA4  00A4               	movwf	___flmul@a
   842     0EA5  304B               	movlw	75
   843     0EA6  00A3               	movwf	___flmul@b+3
   844     0EA7  3074               	movlw	116
   845     0EA8  00A2               	movwf	___flmul@b+2
   846     0EA9  3024               	movlw	36
   847     0EAA  00A1               	movwf	___flmul@b+1
   848     0EAB  3000               	movlw	0
   849     0EAC  00A0               	movwf	___flmul@b
   850     0EAD  120A  118A  24B3  120A  158A  	fcall	___flmul
   851     0EB2  1283               	bcf	3,5	;RP0=0, select bank0
   852     0EB3  1303               	bcf	3,6	;RP1=0, select bank0
   853     0EB4  0823               	movf	?___flmul+3,w
   854     0EB5  00BC               	movwf	___fldiv@b+3
   855     0EB6  0822               	movf	?___flmul+2,w
   856     0EB7  00BB               	movwf	___fldiv@b+2
   857     0EB8  0821               	movf	?___flmul+1,w
   858     0EB9  00BA               	movwf	___fldiv@b+1
   859     0EBA  0820               	movf	?___flmul,w
   860     0EBB  00B9               	movwf	___fldiv@b
   861     0EBC  3042               	movlw	66
   862     0EBD  00B8               	movwf	___fldiv@a+3
   863     0EBE  3080               	movlw	128
   864     0EBF  00B7               	movwf	___fldiv@a+2
   865     0EC0  3000               	movlw	0
   866     0EC1  00B6               	movwf	___fldiv@a+1
   867     0EC2  3000               	movlw	0
   868     0EC3  00B5               	movwf	___fldiv@a
   869     0EC4  120A  118A  2088  120A  158A  	fcall	___fldiv
   870     0EC9  1283               	bcf	3,5	;RP0=0, select bank0
   871     0ECA  1303               	bcf	3,6	;RP1=0, select bank0
   872     0ECB  0838               	movf	?___fldiv+3,w
   873     0ECC  00D6               	movwf	___fladd@a+3
   874     0ECD  0837               	movf	?___fldiv+2,w
   875     0ECE  00D5               	movwf	___fladd@a+2
   876     0ECF  0836               	movf	?___fldiv+1,w
   877     0ED0  00D4               	movwf	___fladd@a+1
   878     0ED1  0835               	movf	?___fldiv,w
   879     0ED2  00D3               	movwf	___fladd@a
   880     0ED3  30BF               	movlw	191
   881     0ED4  00D2               	movwf	___fladd@b+3
   882     0ED5  3080               	movlw	128
   883     0ED6  00D1               	movwf	___fladd@b+2
   884     0ED7  3000               	movlw	0
   885     0ED8  00D0               	movwf	___fladd@b+1
   886     0ED9  3000               	movlw	0
   887     0EDA  00CF               	movwf	___fladd@b
   888     0EDB  120A  118A  225B  120A  158A  	fcall	___fladd
   889     0EE0  1283               	bcf	3,5	;RP0=0, select bank0
   890     0EE1  1303               	bcf	3,6	;RP1=0, select bank0
   891     0EE2  0852               	movf	?___fladd+3,w
   892     0EE3  00E6               	movwf	___fltol@f1+3
   893     0EE4  0851               	movf	?___fladd+2,w
   894     0EE5  00E5               	movwf	___fltol@f1+2
   895     0EE6  0850               	movf	?___fladd+1,w
   896     0EE7  00E4               	movwf	___fltol@f1+1
   897     0EE8  084F               	movf	?___fladd,w
   898     0EE9  00E3               	movwf	___fltol@f1
   899     0EEA  120A  118A  2010  120A  158A  	fcall	___fltol
   900     0EEF  1283               	bcf	3,5	;RP0=0, select bank0
   901     0EF0  1303               	bcf	3,6	;RP1=0, select bank0
   902     0EF1  0864               	movf	?___fltol+1,w
   903     0EF2  1683               	bsf	3,5	;RP0=1, select bank1
   904     0EF3  1303               	bcf	3,6	;RP1=0, select bank1
   905     0EF4  00A1               	movwf	(___set_pwm_freq@PR2_value+1)^(0+128)
   906     0EF5  1283               	bcf	3,5	;RP0=0, select bank0
   907     0EF6  1303               	bcf	3,6	;RP1=0, select bank0
   908     0EF7  0863               	movf	?___fltol,w
   909     0EF8  1683               	bsf	3,5	;RP0=1, select bank1
   910     0EF9  1303               	bcf	3,6	;RP1=0, select bank1
   911     0EFA  00A0               	movwf	___set_pwm_freq@PR2_value^(0+128)
   912     0EFB                     l1856:
   913                           
   914                           ;main.c: 65:     PR2 = (uint8_t) PR2_value;
   915     0EFB  0820               	movf	___set_pwm_freq@PR2_value^(0+128),w
   916     0EFC  0092               	movwf	18	;volatile
   917     0EFD                     l38:
   918     0EFD  0008               	return
   919     0EFE                     __end_of___set_pwm_freq:
   920                           
   921                           	psect	text2
   922     025B                     __ptext2:	
   923 ;; *************** function ___fladd *****************
   924 ;; Defined at:
   925 ;;		line 10 in file "/opt/microchip/xc8/v2.45/pic/sources/c99/common/sprcadd.c"
   926 ;; Parameters:    Size  Location     Type
   927 ;;  b               4   47[BANK0 ] void 
   928 ;;  a               4   51[BANK0 ] void 
   929 ;; Auto vars:     Size  Location     Type
   930 ;;  grs             1   66[BANK0 ] unsigned char 
   931 ;;  bexp            1   65[BANK0 ] unsigned char 
   932 ;;  aexp            1   64[BANK0 ] unsigned char 
   933 ;;  signs           1   63[BANK0 ] unsigned char 
   934 ;; Return value:  Size  Location     Type
   935 ;;                  4   47[BANK0 ] unsigned char 
   936 ;; Registers used:
   937 ;;		wreg, status,2, status,0, btemp+1
   938 ;; Tracked objects:
   939 ;;		On entry : 0/0
   940 ;;		On exit  : 0/0
   941 ;;		Unchanged: 0/0
   942 ;; Data sizes:     COMMON   BANK0   BANK1   BANK3   BANK2
   943 ;;      Params:         0       8       0       0       0
   944 ;;      Locals:         0       4       0       0       0
   945 ;;      Temps:          0       8       0       0       0
   946 ;;      Totals:         0      20       0       0       0
   947 ;;Total ram usage:       20 bytes
   948 ;; Hardware stack levels used: 1
   949 ;; This function calls:
   950 ;;		Nothing
   951 ;; This function is called by:
   952 ;;		___set_pwm_freq
   953 ;; This function uses a non-reentrant model
   954 ;;
   955                           
   956     025B                     ___fladd:	
   957                           ;psect for function ___fladd
   958                           
   959     025B                     l1310:	
   960                           ;incstack = 0
   961                           ; Regs used in ___fladd: [wreg+status,2+status,0+btemp+1]
   962                           
   963     025B  1283               	bcf	3,5	;RP0=0, select bank0
   964     025C  1303               	bcf	3,6	;RP1=0, select bank0
   965     025D  0852               	movf	___fladd@b+3,w
   966     025E  3980               	andlw	128
   967     025F  00DF               	movwf	___fladd@signs
   968     0260                     l1312:
   969     0260  0852               	movf	___fladd@b+3,w
   970     0261  00D7               	movwf	??___fladd
   971     0262  0757               	addwf	??___fladd,w
   972     0263  00E1               	movwf	___fladd@bexp
   973     0264                     l1314:
   974     0264  1FD1               	btfss	___fladd@b+2,7
   975     0265  2A67               	goto	u1651
   976     0266  2A68               	goto	u1650
   977     0267                     u1651:
   978     0267  2A69               	goto	l1318
   979     0268                     u1650:
   980     0268                     l1316:
   981     0268  1461               	bsf	___fladd@bexp,0
   982     0269                     l1318:
   983     0269  0861               	movf	___fladd@bexp,w
   984     026A  1903               	btfsc	3,2
   985     026B  2A6D               	goto	u1661
   986     026C  2A6E               	goto	u1660
   987     026D                     u1661:
   988     026D  2A7E               	goto	l1328
   989     026E                     u1660:
   990     026E                     l1320:
   991     026E  0A61               	incf	___fladd@bexp,w
   992     026F  1D03               	btfss	3,2
   993     0270  2A72               	goto	u1671
   994     0271  2A73               	goto	u1670
   995     0272                     u1671:
   996     0272  2A7B               	goto	l1324
   997     0273                     u1670:
   998     0273                     l1322:
   999     0273  3000               	movlw	0
  1000     0274  00D2               	movwf	___fladd@b+3
  1001     0275  3000               	movlw	0
  1002     0276  00D1               	movwf	___fladd@b+2
  1003     0277  3000               	movlw	0
  1004     0278  00D0               	movwf	___fladd@b+1
  1005     0279  3000               	movlw	0
  1006     027A  00CF               	movwf	___fladd@b
  1007     027B                     l1324:
  1008     027B  17D1               	bsf	___fladd@b+2,7
  1009     027C                     l1326:
  1010     027C  01D2               	clrf	___fladd@b+3
  1011     027D  2A86               	goto	l1330
  1012     027E                     l1328:
  1013     027E  3000               	movlw	0
  1014     027F  00D2               	movwf	___fladd@b+3
  1015     0280  3000               	movlw	0
  1016     0281  00D1               	movwf	___fladd@b+2
  1017     0282  3000               	movlw	0
  1018     0283  00D0               	movwf	___fladd@b+1
  1019     0284  3000               	movlw	0
  1020     0285  00CF               	movwf	___fladd@b
  1021     0286                     l1330:
  1022     0286  0856               	movf	___fladd@a+3,w
  1023     0287  3980               	andlw	128
  1024     0288  00E0               	movwf	___fladd@aexp
  1025     0289                     l1332:
  1026     0289  0860               	movf	___fladd@aexp,w
  1027     028A  065F               	xorwf	___fladd@signs,w
  1028     028B  1903               	skipnz
  1029     028C  2A8E               	goto	u1681
  1030     028D  2A8F               	goto	u1680
  1031     028E                     u1681:
  1032     028E  2A90               	goto	l1336
  1033     028F                     u1680:
  1034     028F                     l1334:
  1035     028F  175F               	bsf	___fladd@signs,6
  1036     0290                     l1336:
  1037     0290  0856               	movf	___fladd@a+3,w
  1038     0291  00D7               	movwf	??___fladd
  1039     0292  0757               	addwf	??___fladd,w
  1040     0293  00E0               	movwf	___fladd@aexp
  1041     0294                     l1338:
  1042     0294  1FD5               	btfss	___fladd@a+2,7
  1043     0295  2A97               	goto	u1691
  1044     0296  2A98               	goto	u1690
  1045     0297                     u1691:
  1046     0297  2A99               	goto	l1342
  1047     0298                     u1690:
  1048     0298                     l1340:
  1049     0298  1460               	bsf	___fladd@aexp,0
  1050     0299                     l1342:
  1051     0299  0860               	movf	___fladd@aexp,w
  1052     029A  1903               	btfsc	3,2
  1053     029B  2A9D               	goto	u1701
  1054     029C  2A9E               	goto	u1700
  1055     029D                     u1701:
  1056     029D  2AAE               	goto	l1352
  1057     029E                     u1700:
  1058     029E                     l1344:
  1059     029E  0A60               	incf	___fladd@aexp,w
  1060     029F  1D03               	btfss	3,2
  1061     02A0  2AA2               	goto	u1711
  1062     02A1  2AA3               	goto	u1710
  1063     02A2                     u1711:
  1064     02A2  2AAB               	goto	l1348
  1065     02A3                     u1710:
  1066     02A3                     l1346:
  1067     02A3  3000               	movlw	0
  1068     02A4  00D6               	movwf	___fladd@a+3
  1069     02A5  3000               	movlw	0
  1070     02A6  00D5               	movwf	___fladd@a+2
  1071     02A7  3000               	movlw	0
  1072     02A8  00D4               	movwf	___fladd@a+1
  1073     02A9  3000               	movlw	0
  1074     02AA  00D3               	movwf	___fladd@a
  1075     02AB                     l1348:
  1076     02AB  17D5               	bsf	___fladd@a+2,7
  1077     02AC                     l1350:
  1078     02AC  01D6               	clrf	___fladd@a+3
  1079     02AD  2AB6               	goto	l439
  1080     02AE                     l1352:
  1081     02AE  3000               	movlw	0
  1082     02AF  00D6               	movwf	___fladd@a+3
  1083     02B0  3000               	movlw	0
  1084     02B1  00D5               	movwf	___fladd@a+2
  1085     02B2  3000               	movlw	0
  1086     02B3  00D4               	movwf	___fladd@a+1
  1087     02B4  3000               	movlw	0
  1088     02B5  00D3               	movwf	___fladd@a
  1089     02B6                     l439:
  1090     02B6  0861               	movf	___fladd@bexp,w
  1091     02B7  0260               	subwf	___fladd@aexp,w
  1092     02B8  1803               	skipnc
  1093     02B9  2ABB               	goto	u1721
  1094     02BA  2ABC               	goto	u1720
  1095     02BB                     u1721:
  1096     02BB  2AE2               	goto	l1388
  1097     02BC                     u1720:
  1098     02BC                     l1354:
  1099     02BC  1F5F               	btfss	___fladd@signs,6
  1100     02BD  2ABF               	goto	u1731
  1101     02BE  2AC0               	goto	u1730
  1102     02BF                     u1731:
  1103     02BF  2AC4               	goto	l1358
  1104     02C0                     u1730:
  1105     02C0                     l1356:
  1106     02C0  3080               	movlw	128
  1107     02C1  00D7               	movwf	??___fladd
  1108     02C2  0857               	movf	??___fladd,w
  1109     02C3  06DF               	xorwf	___fladd@signs,f
  1110     02C4                     l1358:
  1111     02C4  0861               	movf	___fladd@bexp,w
  1112     02C5  00E2               	movwf	___fladd@grs
  1113     02C6                     l1360:
  1114     02C6  0860               	movf	___fladd@aexp,w
  1115     02C7  00E1               	movwf	___fladd@bexp
  1116     02C8                     l1362:
  1117     02C8  0862               	movf	___fladd@grs,w
  1118     02C9  00E0               	movwf	___fladd@aexp
  1119     02CA                     l1364:
  1120     02CA  084F               	movf	___fladd@b,w
  1121     02CB  00E2               	movwf	___fladd@grs
  1122     02CC                     l1366:
  1123     02CC  0853               	movf	___fladd@a,w
  1124     02CD  00CF               	movwf	___fladd@b
  1125     02CE                     l1368:
  1126     02CE  0862               	movf	___fladd@grs,w
  1127     02CF  00D3               	movwf	___fladd@a
  1128     02D0                     l1370:
  1129     02D0  0850               	movf	___fladd@b+1,w
  1130     02D1  00E2               	movwf	___fladd@grs
  1131     02D2                     l1372:
  1132     02D2  0854               	movf	___fladd@a+1,w
  1133     02D3  00D0               	movwf	___fladd@b+1
  1134     02D4                     l1374:
  1135     02D4  0862               	movf	___fladd@grs,w
  1136     02D5  00D4               	movwf	___fladd@a+1
  1137     02D6                     l1376:
  1138     02D6  0851               	movf	___fladd@b+2,w
  1139     02D7  00E2               	movwf	___fladd@grs
  1140     02D8                     l1378:
  1141     02D8  0855               	movf	___fladd@a+2,w
  1142     02D9  00D1               	movwf	___fladd@b+2
  1143     02DA                     l1380:
  1144     02DA  0862               	movf	___fladd@grs,w
  1145     02DB  00D5               	movwf	___fladd@a+2
  1146     02DC                     l1382:
  1147     02DC  0852               	movf	___fladd@b+3,w
  1148     02DD  00E2               	movwf	___fladd@grs
  1149     02DE                     l1384:
  1150     02DE  0856               	movf	___fladd@a+3,w
  1151     02DF  00D2               	movwf	___fladd@b+3
  1152     02E0                     l1386:
  1153     02E0  0862               	movf	___fladd@grs,w
  1154     02E1  00D6               	movwf	___fladd@a+3
  1155     02E2                     l1388:
  1156     02E2  01E2               	clrf	___fladd@grs
  1157     02E3                     l1390:
  1158     02E3  0860               	movf	___fladd@aexp,w
  1159     02E4  00D7               	movwf	??___fladd
  1160     02E5  01D8               	clrf	??___fladd+1
  1161     02E6  0858               	movf	??___fladd+1,w
  1162     02E7  00DA               	movwf	??___fladd+3
  1163     02E8  0861               	movf	___fladd@bexp,w
  1164     02E9  0257               	subwf	??___fladd,w
  1165     02EA  00D9               	movwf	??___fladd+2
  1166     02EB  1C03               	skipc
  1167     02EC  03DA               	decf	??___fladd+3,f
  1168     02ED  085A               	movf	??___fladd+3,w
  1169     02EE  3A80               	xorlw	128
  1170     02EF  00FF               	movwf	btemp+1
  1171     02F0  3080               	movlw	128
  1172     02F1  027F               	subwf	btemp+1,w
  1173     02F2  1D03               	skipz
  1174     02F3  2AF6               	goto	u1745
  1175     02F4  301A               	movlw	26
  1176     02F5  0259               	subwf	??___fladd+2,w
  1177     02F6                     u1745:
  1178     02F6  1C03               	skipc
  1179     02F7  2AF9               	goto	u1741
  1180     02F8  2AFA               	goto	u1740
  1181     02F9                     u1741:
  1182     02F9  2B31               	goto	l1406
  1183     02FA                     u1740:
  1184     02FA                     l1392:
  1185     02FA  1283               	bcf	3,5	;RP0=0, select bank0
  1186     02FB  1303               	bcf	3,6	;RP1=0, select bank0
  1187     02FC  0852               	movf	___fladd@b+3,w
  1188     02FD  0451               	iorwf	___fladd@b+2,w
  1189     02FE  0450               	iorwf	___fladd@b+1,w
  1190     02FF  044F               	iorwf	___fladd@b,w
  1191     0300  1D03               	skipz
  1192     0301  2B03               	goto	u1751
  1193     0302  2B05               	goto	u1750
  1194     0303                     u1751:
  1195     0303  3001               	movlw	1
  1196     0304  2B06               	goto	u1760
  1197     0305                     u1750:
  1198     0305  3000               	movlw	0
  1199     0306                     u1760:
  1200     0306  00E2               	movwf	___fladd@grs
  1201     0307  3000               	movlw	0
  1202     0308  00D2               	movwf	___fladd@b+3
  1203     0309  3000               	movlw	0
  1204     030A  00D1               	movwf	___fladd@b+2
  1205     030B  3000               	movlw	0
  1206     030C  00D0               	movwf	___fladd@b+1
  1207     030D  3000               	movlw	0
  1208     030E  00CF               	movwf	___fladd@b
  1209     030F  0860               	movf	___fladd@aexp,w
  1210     0310  00E1               	movwf	___fladd@bexp
  1211     0311  2B39               	goto	l443
  1212     0312                     l445:
  1213     0312  1C62               	btfss	___fladd@grs,0
  1214     0313  2B15               	goto	u1771
  1215     0314  2B16               	goto	u1770
  1216     0315                     u1771:
  1217     0315  2B1D               	goto	l1396
  1218     0316                     u1770:
  1219     0316                     l1394:
  1220     0316  0862               	movf	___fladd@grs,w
  1221     0317  00D7               	movwf	??___fladd
  1222     0318  1003               	clrc
  1223     0319  0C57               	rrf	??___fladd,w
  1224     031A  3801               	iorlw	1
  1225     031B  00E2               	movwf	___fladd@grs
  1226     031C  2B1F               	goto	l1398
  1227     031D                     l1396:
  1228     031D  1003               	clrc
  1229     031E  0CE2               	rrf	___fladd@grs,f
  1230     031F                     l1398:
  1231     031F  1C4F               	btfss	___fladd@b,0
  1232     0320  2B22               	goto	u1781
  1233     0321  2B23               	goto	u1780
  1234     0322                     u1781:
  1235     0322  2B24               	goto	l1402
  1236     0323                     u1780:
  1237     0323                     l1400:
  1238     0323  17E2               	bsf	___fladd@grs,7
  1239     0324                     l1402:
  1240     0324  3001               	movlw	1
  1241     0325  00D7               	movwf	??___fladd
  1242     0326                     u1795:
  1243     0326  0D52               	rlf	___fladd@b+3,w
  1244     0327  0CD2               	rrf	___fladd@b+3,f
  1245     0328  0CD1               	rrf	___fladd@b+2,f
  1246     0329  0CD0               	rrf	___fladd@b+1,f
  1247     032A  0CCF               	rrf	___fladd@b,f
  1248     032B  0BD7               	decfsz	??___fladd& (0+127),f
  1249     032C  2B26               	goto	u1795
  1250     032D                     l1404:
  1251     032D  3001               	movlw	1
  1252     032E  00D7               	movwf	??___fladd
  1253     032F  0857               	movf	??___fladd,w
  1254     0330  07E1               	addwf	___fladd@bexp,f
  1255     0331                     l1406:
  1256     0331  1283               	bcf	3,5	;RP0=0, select bank0
  1257     0332  1303               	bcf	3,6	;RP1=0, select bank0
  1258     0333  0860               	movf	___fladd@aexp,w
  1259     0334  0261               	subwf	___fladd@bexp,w
  1260     0335  1C03               	skipc
  1261     0336  2B38               	goto	u1801
  1262     0337  2B39               	goto	u1800
  1263     0338                     u1801:
  1264     0338  2B12               	goto	l445
  1265     0339                     u1800:
  1266     0339                     l443:
  1267     0339  1B5F               	btfsc	___fladd@signs,6
  1268     033A  2B3C               	goto	u1811
  1269     033B  2B3D               	goto	u1810
  1270     033C                     u1811:
  1271     033C  2B86               	goto	l1432
  1272     033D                     u1810:
  1273     033D                     l1408:
  1274     033D  0861               	movf	___fladd@bexp,w
  1275     033E  1D03               	btfss	3,2
  1276     033F  2B41               	goto	u1821
  1277     0340  2B42               	goto	u1820
  1278     0341                     u1821:
  1279     0341  2B4B               	goto	l1414
  1280     0342                     u1820:
  1281     0342                     l1410:
  1282     0342  3000               	movlw	0
  1283     0343  00D2               	movwf	?___fladd+3
  1284     0344  3000               	movlw	0
  1285     0345  00D1               	movwf	?___fladd+2
  1286     0346  3000               	movlw	0
  1287     0347  00D0               	movwf	?___fladd+1
  1288     0348  3000               	movlw	0
  1289     0349  00CF               	movwf	?___fladd
  1290     034A  2CB2               	goto	l452
  1291     034B                     l1414:
  1292     034B  0853               	movf	___fladd@a,w
  1293     034C  07CF               	addwf	___fladd@b,f
  1294     034D  0854               	movf	___fladd@a+1,w
  1295     034E  1103               	clrz
  1296     034F  1803               	skipnc
  1297     0350  3E01               	addlw	1
  1298     0351  1903               	skipnz
  1299     0352  2B54               	goto	u1831
  1300     0353  07D0               	addwf	___fladd@b+1,f
  1301     0354                     u1831:
  1302     0354  0855               	movf	___fladd@a+2,w
  1303     0355  1103               	clrz
  1304     0356  1803               	skipnc
  1305     0357  3E01               	addlw	1
  1306     0358  1903               	skipnz
  1307     0359  2B5B               	goto	u1832
  1308     035A  07D1               	addwf	___fladd@b+2,f
  1309     035B                     u1832:
  1310     035B  0856               	movf	___fladd@a+3,w
  1311     035C  1103               	clrz
  1312     035D  1803               	skipnc
  1313     035E  3E01               	addlw	1
  1314     035F  1903               	skipnz
  1315     0360  2B62               	goto	u1833
  1316     0361  07D2               	addwf	___fladd@b+3,f
  1317     0362                     u1833:
  1318     0362                     l1416:
  1319     0362  1C52               	btfss	___fladd@b+3,0
  1320     0363  2B65               	goto	u1841
  1321     0364  2B66               	goto	u1840
  1322     0365                     u1841:
  1323     0365  2C3A               	goto	l1466
  1324     0366                     u1840:
  1325     0366                     l1418:
  1326     0366  1C62               	btfss	___fladd@grs,0
  1327     0367  2B69               	goto	u1851
  1328     0368  2B6A               	goto	u1850
  1329     0369                     u1851:
  1330     0369  2B71               	goto	l1422
  1331     036A                     u1850:
  1332     036A                     l1420:
  1333     036A  0862               	movf	___fladd@grs,w
  1334     036B  00D7               	movwf	??___fladd
  1335     036C  1003               	clrc
  1336     036D  0C57               	rrf	??___fladd,w
  1337     036E  3801               	iorlw	1
  1338     036F  00E2               	movwf	___fladd@grs
  1339     0370  2B73               	goto	l1424
  1340     0371                     l1422:
  1341     0371  1003               	clrc
  1342     0372  0CE2               	rrf	___fladd@grs,f
  1343     0373                     l1424:
  1344     0373  1C4F               	btfss	___fladd@b,0
  1345     0374  2B76               	goto	u1861
  1346     0375  2B77               	goto	u1860
  1347     0376                     u1861:
  1348     0376  2B78               	goto	l1428
  1349     0377                     u1860:
  1350     0377                     l1426:
  1351     0377  17E2               	bsf	___fladd@grs,7
  1352     0378                     l1428:
  1353     0378  3001               	movlw	1
  1354     0379  00D7               	movwf	??___fladd
  1355     037A                     u1875:
  1356     037A  0D52               	rlf	___fladd@b+3,w
  1357     037B  0CD2               	rrf	___fladd@b+3,f
  1358     037C  0CD1               	rrf	___fladd@b+2,f
  1359     037D  0CD0               	rrf	___fladd@b+1,f
  1360     037E  0CCF               	rrf	___fladd@b,f
  1361     037F  0BD7               	decfsz	??___fladd& (0+127),f
  1362     0380  2B7A               	goto	u1875
  1363     0381                     l1430:
  1364     0381  3001               	movlw	1
  1365     0382  00D7               	movwf	??___fladd
  1366     0383  0857               	movf	??___fladd,w
  1367     0384  07E1               	addwf	___fladd@bexp,f
  1368     0385  2C3A               	goto	l1466
  1369     0386                     l1432:
  1370     0386  0852               	movf	___fladd@b+3,w
  1371     0387  3A80               	xorlw	128
  1372     0388  00FF               	movwf	btemp+1
  1373     0389  0856               	movf	___fladd@a+3,w
  1374     038A  3A80               	xorlw	128
  1375     038B  027F               	subwf	btemp+1,w
  1376     038C  1D03               	skipz
  1377     038D  2B98               	goto	u1883
  1378     038E  0855               	movf	___fladd@a+2,w
  1379     038F  0251               	subwf	___fladd@b+2,w
  1380     0390  1D03               	skipz
  1381     0391  2B98               	goto	u1883
  1382     0392  0854               	movf	___fladd@a+1,w
  1383     0393  0250               	subwf	___fladd@b+1,w
  1384     0394  1D03               	skipz
  1385     0395  2B98               	goto	u1883
  1386     0396  0853               	movf	___fladd@a,w
  1387     0397  024F               	subwf	___fladd@b,w
  1388     0398                     u1883:
  1389     0398  1803               	skipnc
  1390     0399  2B9B               	goto	u1881
  1391     039A  2B9C               	goto	u1880
  1392     039B                     u1881:
  1393     039B  2BF4               	goto	l1442
  1394     039C                     u1880:
  1395     039C                     l1434:
  1396     039C  30FF               	movlw	255
  1397     039D  00D7               	movwf	??___fladd
  1398     039E  30FF               	movlw	255
  1399     039F  00D8               	movwf	??___fladd+1
  1400     03A0  30FF               	movlw	255
  1401     03A1  00D9               	movwf	??___fladd+2
  1402     03A2  30FF               	movlw	255
  1403     03A3  00DA               	movwf	??___fladd+3
  1404     03A4  0853               	movf	___fladd@a,w
  1405     03A5  00DB               	movwf	??___fladd+4
  1406     03A6  0854               	movf	___fladd@a+1,w
  1407     03A7  00DC               	movwf	??___fladd+5
  1408     03A8  0855               	movf	___fladd@a+2,w
  1409     03A9  00DD               	movwf	??___fladd+6
  1410     03AA  0856               	movf	___fladd@a+3,w
  1411     03AB  00DE               	movwf	??___fladd+7
  1412     03AC  084F               	movf	___fladd@b,w
  1413     03AD  02DB               	subwf	??___fladd+4,f
  1414     03AE  0850               	movf	___fladd@b+1,w
  1415     03AF  1C03               	skipc
  1416     03B0  0F50               	incfsz	___fladd@b+1,w
  1417     03B1  2BB3               	goto	u1891
  1418     03B2  2BB4               	goto	u1892
  1419     03B3                     u1891:
  1420     03B3  02DC               	subwf	??___fladd+5,f
  1421     03B4                     u1892:
  1422     03B4  0851               	movf	___fladd@b+2,w
  1423     03B5  1C03               	skipc
  1424     03B6  0F51               	incfsz	___fladd@b+2,w
  1425     03B7  2BB9               	goto	u1893
  1426     03B8  2BBA               	goto	u1894
  1427     03B9                     u1893:
  1428     03B9  02DD               	subwf	??___fladd+6,f
  1429     03BA                     u1894:
  1430     03BA  0852               	movf	___fladd@b+3,w
  1431     03BB  1C03               	skipc
  1432     03BC  0F52               	incfsz	___fladd@b+3,w
  1433     03BD  2BBF               	goto	u1895
  1434     03BE  2BC0               	goto	u1896
  1435     03BF                     u1895:
  1436     03BF  02DE               	subwf	??___fladd+7,f
  1437     03C0                     u1896:
  1438     03C0  085B               	movf	??___fladd+4,w
  1439     03C1  07D7               	addwf	??___fladd,f
  1440     03C2  085C               	movf	??___fladd+5,w
  1441     03C3  1803               	skipnc
  1442     03C4  0F5C               	incfsz	??___fladd+5,w
  1443     03C5  2BC7               	goto	u1900
  1444     03C6  2BC8               	goto	u1901
  1445     03C7                     u1900:
  1446     03C7  07D8               	addwf	??___fladd+1,f
  1447     03C8                     u1901:
  1448     03C8  085D               	movf	??___fladd+6,w
  1449     03C9  1803               	skipnc
  1450     03CA  0F5D               	incfsz	??___fladd+6,w
  1451     03CB  2BCD               	goto	u1902
  1452     03CC  2BCE               	goto	u1903
  1453     03CD                     u1902:
  1454     03CD  07D9               	addwf	??___fladd+2,f
  1455     03CE                     u1903:
  1456     03CE  085E               	movf	??___fladd+7,w
  1457     03CF  1803               	skipnc
  1458     03D0  0A5E               	incf	??___fladd+7,w
  1459     03D1  07DA               	addwf	??___fladd+3,f
  1460     03D2  085A               	movf	??___fladd+3,w
  1461     03D3  00D2               	movwf	___fladd@b+3
  1462     03D4  0859               	movf	??___fladd+2,w
  1463     03D5  00D1               	movwf	___fladd@b+2
  1464     03D6  0858               	movf	??___fladd+1,w
  1465     03D7  00D0               	movwf	___fladd@b+1
  1466     03D8  0857               	movf	??___fladd,w
  1467     03D9  00CF               	movwf	___fladd@b
  1468     03DA                     l1436:
  1469     03DA  3080               	movlw	128
  1470     03DB  00D7               	movwf	??___fladd
  1471     03DC  0857               	movf	??___fladd,w
  1472     03DD  06DF               	xorwf	___fladd@signs,f
  1473     03DE  09E2               	comf	___fladd@grs,f
  1474     03DF  0AE2               	incf	___fladd@grs,f
  1475     03E0                     l1438:
  1476     03E0  0862               	movf	___fladd@grs,w
  1477     03E1  1D03               	btfss	3,2
  1478     03E2  2BE4               	goto	u1911
  1479     03E3  2BE5               	goto	u1910
  1480     03E4                     u1911:
  1481     03E4  2C02               	goto	l460
  1482     03E5                     u1910:
  1483     03E5                     l1440:
  1484     03E5  3001               	movlw	1
  1485     03E6  07CF               	addwf	___fladd@b,f
  1486     03E7  3000               	movlw	0
  1487     03E8  1803               	skipnc
  1488     03E9  3001               	movlw	1
  1489     03EA  07D0               	addwf	___fladd@b+1,f
  1490     03EB  3000               	movlw	0
  1491     03EC  1803               	skipnc
  1492     03ED  3001               	movlw	1
  1493     03EE  07D1               	addwf	___fladd@b+2,f
  1494     03EF  3000               	movlw	0
  1495     03F0  1803               	skipnc
  1496     03F1  3001               	movlw	1
  1497     03F2  07D2               	addwf	___fladd@b+3,f
  1498     03F3  2C02               	goto	l460
  1499     03F4                     l1442:
  1500     03F4  0853               	movf	___fladd@a,w
  1501     03F5  02CF               	subwf	___fladd@b,f
  1502     03F6  0854               	movf	___fladd@a+1,w
  1503     03F7  1C03               	skipc
  1504     03F8  0F54               	incfsz	___fladd@a+1,w
  1505     03F9  02D0               	subwf	___fladd@b+1,f
  1506     03FA  0855               	movf	___fladd@a+2,w
  1507     03FB  1C03               	skipc
  1508     03FC  0F55               	incfsz	___fladd@a+2,w
  1509     03FD  02D1               	subwf	___fladd@b+2,f
  1510     03FE  0856               	movf	___fladd@a+3,w
  1511     03FF  1C03               	skipc
  1512     0400  0F56               	incfsz	___fladd@a+3,w
  1513     0401  02D2               	subwf	___fladd@b+3,f
  1514     0402                     l460:
  1515     0402  0852               	movf	___fladd@b+3,w
  1516     0403  0451               	iorwf	___fladd@b+2,w
  1517     0404  0450               	iorwf	___fladd@b+1,w
  1518     0405  044F               	iorwf	___fladd@b,w
  1519     0406  1D03               	skipz
  1520     0407  2C09               	goto	u1921
  1521     0408  2C0A               	goto	u1920
  1522     0409                     u1921:
  1523     0409  2C36               	goto	l1464
  1524     040A                     u1920:
  1525     040A                     l1444:
  1526     040A  0862               	movf	___fladd@grs,w
  1527     040B  1D03               	btfss	3,2
  1528     040C  2C0E               	goto	u1931
  1529     040D  2C0F               	goto	u1930
  1530     040E                     u1931:
  1531     040E  2C36               	goto	l1464
  1532     040F                     u1930:
  1533     040F                     l1446:
  1534     040F  3000               	movlw	0
  1535     0410  00D2               	movwf	?___fladd+3
  1536     0411  3000               	movlw	0
  1537     0412  00D1               	movwf	?___fladd+2
  1538     0413  3000               	movlw	0
  1539     0414  00D0               	movwf	?___fladd+1
  1540     0415  3000               	movlw	0
  1541     0416  00CF               	movwf	?___fladd
  1542     0417  2CB2               	goto	l452
  1543     0418                     l1450:
  1544     0418  3001               	movlw	1
  1545     0419  00D7               	movwf	??___fladd
  1546     041A                     u1945:
  1547     041A  1003               	clrc
  1548     041B  0DCF               	rlf	___fladd@b,f
  1549     041C  0DD0               	rlf	___fladd@b+1,f
  1550     041D  0DD1               	rlf	___fladd@b+2,f
  1551     041E  0DD2               	rlf	___fladd@b+3,f
  1552     041F  0BD7               	decfsz	??___fladd,f
  1553     0420  2C1A               	goto	u1945
  1554     0421                     l1452:
  1555     0421  1FE2               	btfss	___fladd@grs,7
  1556     0422  2C24               	goto	u1951
  1557     0423  2C25               	goto	u1950
  1558     0424                     u1951:
  1559     0424  2C26               	goto	l464
  1560     0425                     u1950:
  1561     0425                     l1454:
  1562     0425  144F               	bsf	___fladd@b,0
  1563     0426                     l464:
  1564     0426  1C62               	btfss	___fladd@grs,0
  1565     0427  2C29               	goto	u1961
  1566     0428  2C2A               	goto	u1960
  1567     0429                     u1961:
  1568     0429  2C2D               	goto	l1458
  1569     042A                     u1960:
  1570     042A                     l1456:
  1571     042A  1403               	setc
  1572     042B  0DE2               	rlf	___fladd@grs,f
  1573     042C  2C2F               	goto	l1460
  1574     042D                     l1458:
  1575     042D  1003               	clrc
  1576     042E  0DE2               	rlf	___fladd@grs,f
  1577     042F                     l1460:
  1578     042F  0861               	movf	___fladd@bexp,w
  1579     0430  1903               	btfsc	3,2
  1580     0431  2C33               	goto	u1971
  1581     0432  2C34               	goto	u1970
  1582     0433                     u1971:
  1583     0433  2C36               	goto	l1464
  1584     0434                     u1970:
  1585     0434                     l1462:
  1586     0434  3001               	movlw	1
  1587     0435  02E1               	subwf	___fladd@bexp,f
  1588     0436                     l1464:
  1589     0436  1FD1               	btfss	___fladd@b+2,7
  1590     0437  2C39               	goto	u1981
  1591     0438  2C3A               	goto	u1980
  1592     0439                     u1981:
  1593     0439  2C18               	goto	l1450
  1594     043A                     u1980:
  1595     043A                     l1466:
  1596     043A  01E0               	clrf	___fladd@aexp
  1597     043B                     l1468:
  1598     043B  1FE2               	btfss	___fladd@grs,7
  1599     043C  2C3E               	goto	u1991
  1600     043D  2C3F               	goto	u1990
  1601     043E                     u1991:
  1602     043E  2C4D               	goto	l1476
  1603     043F                     u1990:
  1604     043F                     l1470:
  1605     043F  0862               	movf	___fladd@grs,w
  1606     0440  397F               	andlw	127
  1607     0441  1903               	btfsc	3,2
  1608     0442  2C44               	goto	u2001
  1609     0443  2C45               	goto	u2000
  1610     0444                     u2001:
  1611     0444  2C48               	goto	l470
  1612     0445                     u2000:
  1613     0445                     l1472:
  1614     0445  01E0               	clrf	___fladd@aexp
  1615     0446  0AE0               	incf	___fladd@aexp,f
  1616     0447  2C4D               	goto	l1476
  1617     0448                     l470:
  1618     0448  1C4F               	btfss	___fladd@b,0
  1619     0449  2C4B               	goto	u2011
  1620     044A  2C4C               	goto	u2010
  1621     044B                     u2011:
  1622     044B  2C4D               	goto	l1476
  1623     044C                     u2010:
  1624     044C  2C45               	goto	l1472
  1625     044D                     l1476:
  1626     044D  0860               	movf	___fladd@aexp,w
  1627     044E  1903               	btfsc	3,2
  1628     044F  2C51               	goto	u2021
  1629     0450  2C52               	goto	u2020
  1630     0451                     u2021:
  1631     0451  2C86               	goto	l473
  1632     0452                     u2020:
  1633     0452                     l1478:
  1634     0452  3001               	movlw	1
  1635     0453  07CF               	addwf	___fladd@b,f
  1636     0454  3000               	movlw	0
  1637     0455  1803               	skipnc
  1638     0456  3001               	movlw	1
  1639     0457  07D0               	addwf	___fladd@b+1,f
  1640     0458  3000               	movlw	0
  1641     0459  1803               	skipnc
  1642     045A  3001               	movlw	1
  1643     045B  07D1               	addwf	___fladd@b+2,f
  1644     045C  3000               	movlw	0
  1645     045D  1803               	skipnc
  1646     045E  3001               	movlw	1
  1647     045F  07D2               	addwf	___fladd@b+3,f
  1648     0460                     l1480:
  1649     0460  1C52               	btfss	___fladd@b+3,0
  1650     0461  2C63               	goto	u2031
  1651     0462  2C64               	goto	u2030
  1652     0463                     u2031:
  1653     0463  2C86               	goto	l473
  1654     0464                     u2030:
  1655     0464                     l1482:
  1656     0464  084F               	movf	___fladd@b,w
  1657     0465  00D7               	movwf	??___fladd
  1658     0466  0850               	movf	___fladd@b+1,w
  1659     0467  00D8               	movwf	??___fladd+1
  1660     0468  0851               	movf	___fladd@b+2,w
  1661     0469  00D9               	movwf	??___fladd+2
  1662     046A  0852               	movf	___fladd@b+3,w
  1663     046B  00DA               	movwf	??___fladd+3
  1664     046C  3001               	movlw	1
  1665     046D  00DB               	movwf	??___fladd+4
  1666     046E                     u2045:
  1667     046E  0D5A               	rlf	??___fladd+3,w
  1668     046F  0CDA               	rrf	??___fladd+3,f
  1669     0470  0CD9               	rrf	??___fladd+2,f
  1670     0471  0CD8               	rrf	??___fladd+1,f
  1671     0472  0CD7               	rrf	??___fladd,f
  1672     0473                     u2040:
  1673     0473  0BDB               	decfsz	??___fladd+4,f
  1674     0474  2C6E               	goto	u2045
  1675     0475  085A               	movf	??___fladd+3,w
  1676     0476  00D2               	movwf	___fladd@b+3
  1677     0477  0859               	movf	??___fladd+2,w
  1678     0478  00D1               	movwf	___fladd@b+2
  1679     0479  0858               	movf	??___fladd+1,w
  1680     047A  00D0               	movwf	___fladd@b+1
  1681     047B  0857               	movf	??___fladd,w
  1682     047C  00CF               	movwf	___fladd@b
  1683     047D  0A61               	incf	___fladd@bexp,w
  1684     047E  1903               	btfsc	3,2
  1685     047F  2C81               	goto	u2051
  1686     0480  2C82               	goto	u2050
  1687     0481                     u2051:
  1688     0481  2C86               	goto	l473
  1689     0482                     u2050:
  1690     0482                     l1484:
  1691     0482  3001               	movlw	1
  1692     0483  00D7               	movwf	??___fladd
  1693     0484  0857               	movf	??___fladd,w
  1694     0485  07E1               	addwf	___fladd@bexp,f
  1695     0486                     l473:
  1696     0486  0A61               	incf	___fladd@bexp,w
  1697     0487  1903               	btfsc	3,2
  1698     0488  2C8A               	goto	u2061
  1699     0489  2C8B               	goto	u2060
  1700     048A                     u2061:
  1701     048A  2C90               	goto	l1488
  1702     048B                     u2060:
  1703     048B                     l1486:
  1704     048B  0861               	movf	___fladd@bexp,w
  1705     048C  1D03               	btfss	3,2
  1706     048D  2C8F               	goto	u2071
  1707     048E  2C90               	goto	u2070
  1708     048F                     u2071:
  1709     048F  2C9E               	goto	l1494
  1710     0490                     u2070:
  1711     0490                     l1488:
  1712     0490  3000               	movlw	0
  1713     0491  00D2               	movwf	___fladd@b+3
  1714     0492  3000               	movlw	0
  1715     0493  00D1               	movwf	___fladd@b+2
  1716     0494  3000               	movlw	0
  1717     0495  00D0               	movwf	___fladd@b+1
  1718     0496  3000               	movlw	0
  1719     0497  00CF               	movwf	___fladd@b
  1720     0498                     l1490:
  1721     0498  0861               	movf	___fladd@bexp,w
  1722     0499  1D03               	btfss	3,2
  1723     049A  2C9C               	goto	u2081
  1724     049B  2C9D               	goto	u2080
  1725     049C                     u2081:
  1726     049C  2C9E               	goto	l1494
  1727     049D                     u2080:
  1728     049D                     l1492:
  1729     049D  01DF               	clrf	___fladd@signs
  1730     049E                     l1494:
  1731     049E  1C61               	btfss	___fladd@bexp,0
  1732     049F  2CA1               	goto	u2091
  1733     04A0  2CA2               	goto	u2090
  1734     04A1                     u2091:
  1735     04A1  2CA4               	goto	l1498
  1736     04A2                     u2090:
  1737     04A2                     l1496:
  1738     04A2  17D1               	bsf	___fladd@b+2,7
  1739     04A3  2CA8               	goto	l481
  1740     04A4                     l1498:
  1741     04A4  307F               	movlw	127
  1742     04A5  00D7               	movwf	??___fladd
  1743     04A6  0857               	movf	??___fladd,w
  1744     04A7  05D1               	andwf	___fladd@b+2,f
  1745     04A8                     l481:
  1746     04A8  0861               	movf	___fladd@bexp,w
  1747     04A9  00D7               	movwf	??___fladd
  1748     04AA  1003               	clrc
  1749     04AB  0C57               	rrf	??___fladd,w
  1750     04AC  00D2               	movwf	___fladd@b+3
  1751     04AD                     l1500:
  1752     04AD  1FDF               	btfss	___fladd@signs,7
  1753     04AE  2CB0               	goto	u2101
  1754     04AF  2CB1               	goto	u2100
  1755     04B0                     u2101:
  1756     04B0  2CB2               	goto	l482
  1757     04B1                     u2100:
  1758     04B1                     l1502:
  1759     04B1  17D2               	bsf	___fladd@b+3,7
  1760     04B2                     l482:
  1761     04B2                     l452:
  1762     04B2  0008               	return
  1763     04B3                     __end_of___fladd:
  1764                           
  1765                           	psect	text3
  1766     0EFE                     __ptext3:	
  1767 ;; *************** function ___set_duty_cycle *****************
  1768 ;; Defined at:
  1769 ;;		line 76 in file "main.c"
  1770 ;; Parameters:    Size  Location     Type
  1771 ;;  duty_cycle      2   77[BANK0 ] int 
  1772 ;; Auto vars:     Size  Location     Type
  1773 ;;  dc_period       4    4[BANK1 ] float 
  1774 ;;  dc              4    0[BANK1 ] float 
  1775 ;;  reg_value       1    8[BANK1 ] unsigned char 
  1776 ;; Return value:  Size  Location     Type
  1777 ;;                  1    wreg      void 
  1778 ;; Registers used:
  1779 ;;		wreg, status,2, status,0, btemp+1, pclath, cstack
  1780 ;; Tracked objects:
  1781 ;;		On entry : 0/0
  1782 ;;		On exit  : 0/0
  1783 ;;		Unchanged: 0/0
  1784 ;; Data sizes:     COMMON   BANK0   BANK1   BANK3   BANK2
  1785 ;;      Params:         0       2       0       0       0
  1786 ;;      Locals:         0       0       9       0       0
  1787 ;;      Temps:          0       1       0       0       0
  1788 ;;      Totals:         0       3       9       0       0
  1789 ;;Total ram usage:       12 bytes
  1790 ;; Hardware stack levels used: 1
  1791 ;; Hardware stack levels required when called: 2
  1792 ;; This function calls:
  1793 ;;		___fldiv
  1794 ;;		___flmul
  1795 ;;		___fltol
  1796 ;;		___xxtofl
  1797 ;; This function is called by:
  1798 ;;		_main
  1799 ;; This function uses a non-reentrant model
  1800 ;;
  1801                           
  1802     0EFE                     ___set_duty_cycle:	
  1803                           ;psect for function ___set_duty_cycle
  1804                           
  1805     0EFE                     l1862:	
  1806                           ;incstack = 0
  1807                           ; Regs used in ___set_duty_cycle: [wreg+status,2+status,0+btemp+1+pclath+cstack]
  1808                           
  1809                           
  1810                           ;main.c: 77:     float dc = (float) duty_cycle / 100;
  1811     0EFE  3042               	movlw	66
  1812     0EFF  1283               	bcf	3,5	;RP0=0, select bank0
  1813     0F00  1303               	bcf	3,6	;RP1=0, select bank0
  1814     0F01  00B8               	movwf	___fldiv@a+3
  1815     0F02  30C8               	movlw	200
  1816     0F03  00B7               	movwf	___fldiv@a+2
  1817     0F04  3000               	movlw	0
  1818     0F05  00B6               	movwf	___fldiv@a+1
  1819     0F06  3000               	movlw	0
  1820     0F07  00B5               	movwf	___fldiv@a
  1821     0F08  086D               	movf	___set_duty_cycle@duty_cycle,w
  1822     0F09  00F6               	movwf	___xxtofl@val
  1823     0F0A  086E               	movf	___set_duty_cycle@duty_cycle+1,w
  1824     0F0B  00F7               	movwf	___xxtofl@val+1
  1825     0F0C  3000               	movlw	0
  1826     0F0D  1BF7               	btfsc	___xxtofl@val+1,7
  1827     0F0E  30FF               	movlw	255
  1828     0F0F  00F8               	movwf	___xxtofl@val+2
  1829     0F10  00F9               	movwf	___xxtofl@val+3
  1830     0F11  3001               	movlw	1
  1831     0F12  120A  158A  257F  120A  158A  	fcall	___xxtofl
  1832     0F17  0879               	movf	?___xxtofl+3,w
  1833     0F18  1283               	bcf	3,5	;RP0=0, select bank0
  1834     0F19  1303               	bcf	3,6	;RP1=0, select bank0
  1835     0F1A  00BC               	movwf	___fldiv@b+3
  1836     0F1B  0878               	movf	?___xxtofl+2,w
  1837     0F1C  00BB               	movwf	___fldiv@b+2
  1838     0F1D  0877               	movf	?___xxtofl+1,w
  1839     0F1E  00BA               	movwf	___fldiv@b+1
  1840     0F1F  0876               	movf	?___xxtofl,w
  1841     0F20  00B9               	movwf	___fldiv@b
  1842     0F21  120A  118A  2088  120A  158A  	fcall	___fldiv
  1843     0F26  1283               	bcf	3,5	;RP0=0, select bank0
  1844     0F27  1303               	bcf	3,6	;RP1=0, select bank0
  1845     0F28  0838               	movf	?___fldiv+3,w
  1846     0F29  1683               	bsf	3,5	;RP0=1, select bank1
  1847     0F2A  1303               	bcf	3,6	;RP1=0, select bank1
  1848     0F2B  00A3               	movwf	(___set_duty_cycle@dc+3)^(0+128)
  1849     0F2C  1283               	bcf	3,5	;RP0=0, select bank0
  1850     0F2D  1303               	bcf	3,6	;RP1=0, select bank0
  1851     0F2E  0837               	movf	?___fldiv+2,w
  1852     0F2F  1683               	bsf	3,5	;RP0=1, select bank1
  1853     0F30  1303               	bcf	3,6	;RP1=0, select bank1
  1854     0F31  00A2               	movwf	(___set_duty_cycle@dc+2)^(0+128)
  1855     0F32  1283               	bcf	3,5	;RP0=0, select bank0
  1856     0F33  1303               	bcf	3,6	;RP1=0, select bank0
  1857     0F34  0836               	movf	?___fldiv+1,w
  1858     0F35  1683               	bsf	3,5	;RP0=1, select bank1
  1859     0F36  1303               	bcf	3,6	;RP1=0, select bank1
  1860     0F37  00A1               	movwf	(___set_duty_cycle@dc+1)^(0+128)
  1861     0F38  1283               	bcf	3,5	;RP0=0, select bank0
  1862     0F39  1303               	bcf	3,6	;RP1=0, select bank0
  1863     0F3A  0835               	movf	?___fldiv,w
  1864     0F3B  1683               	bsf	3,5	;RP0=1, select bank1
  1865     0F3C  1303               	bcf	3,6	;RP1=0, select bank1
  1866     0F3D  00A0               	movwf	___set_duty_cycle@dc^(0+128)
  1867                           
  1868                           ;main.c: 78:     float dc_period = dc * PWM_PERIOD;
  1869     0F3E  0832               	movf	(_PWM_PERIOD+3)^(0+128),w
  1870     0F3F  1283               	bcf	3,5	;RP0=0, select bank0
  1871     0F40  1303               	bcf	3,6	;RP1=0, select bank0
  1872     0F41  00A3               	movwf	___flmul@b+3
  1873     0F42  1683               	bsf	3,5	;RP0=1, select bank1
  1874     0F43  1303               	bcf	3,6	;RP1=0, select bank1
  1875     0F44  0831               	movf	(_PWM_PERIOD+2)^(0+128),w
  1876     0F45  1283               	bcf	3,5	;RP0=0, select bank0
  1877     0F46  1303               	bcf	3,6	;RP1=0, select bank0
  1878     0F47  00A2               	movwf	___flmul@b+2
  1879     0F48  1683               	bsf	3,5	;RP0=1, select bank1
  1880     0F49  1303               	bcf	3,6	;RP1=0, select bank1
  1881     0F4A  0830               	movf	(_PWM_PERIOD+1)^(0+128),w
  1882     0F4B  1283               	bcf	3,5	;RP0=0, select bank0
  1883     0F4C  1303               	bcf	3,6	;RP1=0, select bank0
  1884     0F4D  00A1               	movwf	___flmul@b+1
  1885     0F4E  1683               	bsf	3,5	;RP0=1, select bank1
  1886     0F4F  1303               	bcf	3,6	;RP1=0, select bank1
  1887     0F50  082F               	movf	_PWM_PERIOD^(0+128),w
  1888     0F51  1283               	bcf	3,5	;RP0=0, select bank0
  1889     0F52  1303               	bcf	3,6	;RP1=0, select bank0
  1890     0F53  00A0               	movwf	___flmul@b
  1891     0F54  1683               	bsf	3,5	;RP0=1, select bank1
  1892     0F55  1303               	bcf	3,6	;RP1=0, select bank1
  1893     0F56  0823               	movf	(___set_duty_cycle@dc+3)^(0+128),w
  1894     0F57  1283               	bcf	3,5	;RP0=0, select bank0
  1895     0F58  1303               	bcf	3,6	;RP1=0, select bank0
  1896     0F59  00A7               	movwf	___flmul@a+3
  1897     0F5A  1683               	bsf	3,5	;RP0=1, select bank1
  1898     0F5B  1303               	bcf	3,6	;RP1=0, select bank1
  1899     0F5C  0822               	movf	(___set_duty_cycle@dc+2)^(0+128),w
  1900     0F5D  1283               	bcf	3,5	;RP0=0, select bank0
  1901     0F5E  1303               	bcf	3,6	;RP1=0, select bank0
  1902     0F5F  00A6               	movwf	___flmul@a+2
  1903     0F60  1683               	bsf	3,5	;RP0=1, select bank1
  1904     0F61  1303               	bcf	3,6	;RP1=0, select bank1
  1905     0F62  0821               	movf	(___set_duty_cycle@dc+1)^(0+128),w
  1906     0F63  1283               	bcf	3,5	;RP0=0, select bank0
  1907     0F64  1303               	bcf	3,6	;RP1=0, select bank0
  1908     0F65  00A5               	movwf	___flmul@a+1
  1909     0F66  1683               	bsf	3,5	;RP0=1, select bank1
  1910     0F67  1303               	bcf	3,6	;RP1=0, select bank1
  1911     0F68  0820               	movf	___set_duty_cycle@dc^(0+128),w
  1912     0F69  1283               	bcf	3,5	;RP0=0, select bank0
  1913     0F6A  1303               	bcf	3,6	;RP1=0, select bank0
  1914     0F6B  00A4               	movwf	___flmul@a
  1915     0F6C  120A  118A  24B3  120A  158A  	fcall	___flmul
  1916     0F71  1283               	bcf	3,5	;RP0=0, select bank0
  1917     0F72  1303               	bcf	3,6	;RP1=0, select bank0
  1918     0F73  0823               	movf	?___flmul+3,w
  1919     0F74  1683               	bsf	3,5	;RP0=1, select bank1
  1920     0F75  1303               	bcf	3,6	;RP1=0, select bank1
  1921     0F76  00A7               	movwf	(___set_duty_cycle@dc_period+3)^(0+128)
  1922     0F77  1283               	bcf	3,5	;RP0=0, select bank0
  1923     0F78  1303               	bcf	3,6	;RP1=0, select bank0
  1924     0F79  0822               	movf	?___flmul+2,w
  1925     0F7A  1683               	bsf	3,5	;RP0=1, select bank1
  1926     0F7B  1303               	bcf	3,6	;RP1=0, select bank1
  1927     0F7C  00A6               	movwf	(___set_duty_cycle@dc_period+2)^(0+128)
  1928     0F7D  1283               	bcf	3,5	;RP0=0, select bank0
  1929     0F7E  1303               	bcf	3,6	;RP1=0, select bank0
  1930     0F7F  0821               	movf	?___flmul+1,w
  1931     0F80  1683               	bsf	3,5	;RP0=1, select bank1
  1932     0F81  1303               	bcf	3,6	;RP1=0, select bank1
  1933     0F82  00A5               	movwf	(___set_duty_cycle@dc_period+1)^(0+128)
  1934     0F83  1283               	bcf	3,5	;RP0=0, select bank0
  1935     0F84  1303               	bcf	3,6	;RP1=0, select bank0
  1936     0F85  0820               	movf	?___flmul,w
  1937     0F86  1683               	bsf	3,5	;RP0=1, select bank1
  1938     0F87  1303               	bcf	3,6	;RP1=0, select bank1
  1939     0F88  00A4               	movwf	___set_duty_cycle@dc_period^(0+128)
  1940                           
  1941                           ;main.c: 79:     uint8_t reg_value = (uint8_t) ((dc_period * 16000000) / 16);
  1942     0F89  0827               	movf	(___set_duty_cycle@dc_period+3)^(0+128),w
  1943     0F8A  1283               	bcf	3,5	;RP0=0, select bank0
  1944     0F8B  1303               	bcf	3,6	;RP1=0, select bank0
  1945     0F8C  00A7               	movwf	___flmul@a+3
  1946     0F8D  1683               	bsf	3,5	;RP0=1, select bank1
  1947     0F8E  1303               	bcf	3,6	;RP1=0, select bank1
  1948     0F8F  0826               	movf	(___set_duty_cycle@dc_period+2)^(0+128),w
  1949     0F90  1283               	bcf	3,5	;RP0=0, select bank0
  1950     0F91  1303               	bcf	3,6	;RP1=0, select bank0
  1951     0F92  00A6               	movwf	___flmul@a+2
  1952     0F93  1683               	bsf	3,5	;RP0=1, select bank1
  1953     0F94  1303               	bcf	3,6	;RP1=0, select bank1
  1954     0F95  0825               	movf	(___set_duty_cycle@dc_period+1)^(0+128),w
  1955     0F96  1283               	bcf	3,5	;RP0=0, select bank0
  1956     0F97  1303               	bcf	3,6	;RP1=0, select bank0
  1957     0F98  00A5               	movwf	___flmul@a+1
  1958     0F99  1683               	bsf	3,5	;RP0=1, select bank1
  1959     0F9A  1303               	bcf	3,6	;RP1=0, select bank1
  1960     0F9B  0824               	movf	___set_duty_cycle@dc_period^(0+128),w
  1961     0F9C  1283               	bcf	3,5	;RP0=0, select bank0
  1962     0F9D  1303               	bcf	3,6	;RP1=0, select bank0
  1963     0F9E  00A4               	movwf	___flmul@a
  1964     0F9F  304B               	movlw	75
  1965     0FA0  00A3               	movwf	___flmul@b+3
  1966     0FA1  3074               	movlw	116
  1967     0FA2  00A2               	movwf	___flmul@b+2
  1968     0FA3  3024               	movlw	36
  1969     0FA4  00A1               	movwf	___flmul@b+1
  1970     0FA5  3000               	movlw	0
  1971     0FA6  00A0               	movwf	___flmul@b
  1972     0FA7  120A  118A  24B3  120A  158A  	fcall	___flmul
  1973     0FAC  1283               	bcf	3,5	;RP0=0, select bank0
  1974     0FAD  1303               	bcf	3,6	;RP1=0, select bank0
  1975     0FAE  0823               	movf	?___flmul+3,w
  1976     0FAF  00BC               	movwf	___fldiv@b+3
  1977     0FB0  0822               	movf	?___flmul+2,w
  1978     0FB1  00BB               	movwf	___fldiv@b+2
  1979     0FB2  0821               	movf	?___flmul+1,w
  1980     0FB3  00BA               	movwf	___fldiv@b+1
  1981     0FB4  0820               	movf	?___flmul,w
  1982     0FB5  00B9               	movwf	___fldiv@b
  1983     0FB6  3041               	movlw	65
  1984     0FB7  00B8               	movwf	___fldiv@a+3
  1985     0FB8  3080               	movlw	128
  1986     0FB9  00B7               	movwf	___fldiv@a+2
  1987     0FBA  3000               	movlw	0
  1988     0FBB  00B6               	movwf	___fldiv@a+1
  1989     0FBC  3000               	movlw	0
  1990     0FBD  00B5               	movwf	___fldiv@a
  1991     0FBE  120A  118A  2088  120A  158A  	fcall	___fldiv
  1992     0FC3  1283               	bcf	3,5	;RP0=0, select bank0
  1993     0FC4  1303               	bcf	3,6	;RP1=0, select bank0
  1994     0FC5  0838               	movf	?___fldiv+3,w
  1995     0FC6  00E6               	movwf	___fltol@f1+3
  1996     0FC7  0837               	movf	?___fldiv+2,w
  1997     0FC8  00E5               	movwf	___fltol@f1+2
  1998     0FC9  0836               	movf	?___fldiv+1,w
  1999     0FCA  00E4               	movwf	___fltol@f1+1
  2000     0FCB  0835               	movf	?___fldiv,w
  2001     0FCC  00E3               	movwf	___fltol@f1
  2002     0FCD  120A  118A  2010  120A  158A  	fcall	___fltol
  2003     0FD2  1283               	bcf	3,5	;RP0=0, select bank0
  2004     0FD3  1303               	bcf	3,6	;RP1=0, select bank0
  2005     0FD4  0863               	movf	?___fltol,w
  2006     0FD5  1683               	bsf	3,5	;RP0=1, select bank1
  2007     0FD6  1303               	bcf	3,6	;RP1=0, select bank1
  2008     0FD7  00A8               	movwf	___set_duty_cycle@reg_value^(0+128)
  2009     0FD8                     l1864:
  2010                           
  2011                           ;main.c: 85:     CCPR1L = reg_value >> 2;
  2012     0FD8  0828               	movf	___set_duty_cycle@reg_value^(0+128),w
  2013     0FD9  1283               	bcf	3,5	;RP0=0, select bank0
  2014     0FDA  1303               	bcf	3,6	;RP1=0, select bank0
  2015     0FDB  00EF               	movwf	??___set_duty_cycle
  2016     0FDC  3002               	movlw	2
  2017     0FDD                     u2925:
  2018     0FDD  1003               	clrc
  2019     0FDE  0CEF               	rrf	??___set_duty_cycle,f
  2020     0FDF  3EFF               	addlw	-1
  2021     0FE0  1D03               	skipz
  2022     0FE1  2FDD               	goto	u2925
  2023     0FE2  086F               	movf	??___set_duty_cycle,w
  2024     0FE3  0095               	movwf	21	;volatile
  2025     0FE4                     l1866:
  2026                           
  2027                           ;main.c: 86:     CCP1CONbits.CCP1X = (reg_value & 0b00000001);
  2028     0FE4  1683               	bsf	3,5	;RP0=1, select bank1
  2029     0FE5  1303               	bcf	3,6	;RP1=0, select bank1
  2030     0FE6  0828               	movf	___set_duty_cycle@reg_value^(0+128),w
  2031     0FE7  3901               	andlw	1
  2032     0FE8  1283               	bcf	3,5	;RP0=0, select bank0
  2033     0FE9  1303               	bcf	3,6	;RP1=0, select bank0
  2034     0FEA  00EF               	movwf	??___set_duty_cycle
  2035     0FEB  0EEF               	swapf	??___set_duty_cycle,f
  2036     0FEC  0DEF               	rlf	??___set_duty_cycle,f
  2037     0FED  0817               	movf	23,w	;volatile
  2038     0FEE  066F               	xorwf	??___set_duty_cycle,w
  2039     0FEF  39DF               	andlw	-33
  2040     0FF0  066F               	xorwf	??___set_duty_cycle,w
  2041     0FF1  0097               	movwf	23	;volatile
  2042     0FF2                     l1868:
  2043                           
  2044                           ;main.c: 87:     CCP1CONbits.CCP1Y = (reg_value & 0b00000010);
  2045     0FF2  1683               	bsf	3,5	;RP0=1, select bank1
  2046     0FF3  1303               	bcf	3,6	;RP1=0, select bank1
  2047     0FF4  0828               	movf	___set_duty_cycle@reg_value^(0+128),w
  2048     0FF5  3902               	andlw	2
  2049     0FF6  1283               	bcf	3,5	;RP0=0, select bank0
  2050     0FF7  1303               	bcf	3,6	;RP1=0, select bank0
  2051     0FF8  00EF               	movwf	??___set_duty_cycle
  2052     0FF9  0EEF               	swapf	??___set_duty_cycle,f
  2053     0FFA  0817               	movf	23,w	;volatile
  2054     0FFB  066F               	xorwf	??___set_duty_cycle,w
  2055     0FFC  39EF               	andlw	-17
  2056     0FFD  066F               	xorwf	??___set_duty_cycle,w
  2057     0FFE  0097               	movwf	23	;volatile
  2058     0FFF                     l44:
  2059     0FFF  0008               	return
  2060     1000                     __end_of___set_duty_cycle:
  2061                           
  2062                           	psect	text4
  2063     0D7F                     __ptext4:	
  2064 ;; *************** function ___xxtofl *****************
  2065 ;; Defined at:
  2066 ;;		line 10 in file "/opt/microchip/xc8/v2.45/pic/sources/c99/common/xxtofl.c"
  2067 ;; Parameters:    Size  Location     Type
  2068 ;;  sign            1    wreg     unsigned char 
  2069 ;;  val             4    6[COMMON] long 
  2070 ;; Auto vars:     Size  Location     Type
  2071 ;;  sign            1    0[BANK0 ] unsigned char 
  2072 ;;  arg             4    2[BANK0 ] unsigned long 
  2073 ;;  exp             1    1[BANK0 ] unsigned char 
  2074 ;; Return value:  Size  Location     Type
  2075 ;;                  4    6[COMMON] unsigned char 
  2076 ;; Registers used:
  2077 ;;		wreg, status,2, status,0
  2078 ;; Tracked objects:
  2079 ;;		On entry : 0/0
  2080 ;;		On exit  : 0/0
  2081 ;;		Unchanged: 0/0
  2082 ;; Data sizes:     COMMON   BANK0   BANK1   BANK3   BANK2
  2083 ;;      Params:         4       0       0       0       0
  2084 ;;      Locals:         0       6       0       0       0
  2085 ;;      Temps:          4       0       0       0       0
  2086 ;;      Totals:         8       6       0       0       0
  2087 ;;Total ram usage:       14 bytes
  2088 ;; Hardware stack levels used: 1
  2089 ;; This function calls:
  2090 ;;		Nothing
  2091 ;; This function is called by:
  2092 ;;		___set_pwm_freq
  2093 ;;		___set_duty_cycle
  2094 ;;		_main
  2095 ;; This function uses a non-reentrant model
  2096 ;;
  2097                           
  2098     0D7F                     ___xxtofl:	
  2099                           ;psect for function ___xxtofl
  2100                           
  2101                           
  2102                           ;incstack = 0
  2103                           ; Regs used in ___xxtofl: [wreg+status,2+status,0]
  2104                           ;___xxtofl@sign stored from wreg
  2105     0D7F  1283               	bcf	3,5	;RP0=0, select bank0
  2106     0D80  1303               	bcf	3,6	;RP1=0, select bank0
  2107     0D81  00A0               	movwf	___xxtofl@sign
  2108     0D82                     l1786:
  2109     0D82  0820               	movf	___xxtofl@sign,w
  2110     0D83  1903               	btfsc	3,2
  2111     0D84  2D86               	goto	u2771
  2112     0D85  2D87               	goto	u2770
  2113     0D86                     u2771:
  2114     0D86  2D9B               	goto	l1792
  2115     0D87                     u2770:
  2116     0D87                     l1788:
  2117     0D87  1FF9               	btfss	___xxtofl@val+3,7
  2118     0D88  2D8A               	goto	u2781
  2119     0D89  2D8B               	goto	u2780
  2120     0D8A                     u2781:
  2121     0D8A  2D9B               	goto	l1792
  2122     0D8B                     u2780:
  2123     0D8B                     l1790:
  2124     0D8B  0976               	comf	___xxtofl@val,w
  2125     0D8C  00A2               	movwf	___xxtofl@arg
  2126     0D8D  0977               	comf	___xxtofl@val+1,w
  2127     0D8E  00A3               	movwf	___xxtofl@arg+1
  2128     0D8F  0978               	comf	___xxtofl@val+2,w
  2129     0D90  00A4               	movwf	___xxtofl@arg+2
  2130     0D91  0979               	comf	___xxtofl@val+3,w
  2131     0D92  00A5               	movwf	___xxtofl@arg+3
  2132     0D93  0AA2               	incf	___xxtofl@arg,f
  2133     0D94  1903               	skipnz
  2134     0D95  0AA3               	incf	___xxtofl@arg+1,f
  2135     0D96  1903               	skipnz
  2136     0D97  0AA4               	incf	___xxtofl@arg+2,f
  2137     0D98  1903               	skipnz
  2138     0D99  0AA5               	incf	___xxtofl@arg+3,f
  2139     0D9A  2DA3               	goto	l579
  2140     0D9B                     l1792:
  2141     0D9B  0879               	movf	___xxtofl@val+3,w
  2142     0D9C  00A5               	movwf	___xxtofl@arg+3
  2143     0D9D  0878               	movf	___xxtofl@val+2,w
  2144     0D9E  00A4               	movwf	___xxtofl@arg+2
  2145     0D9F  0877               	movf	___xxtofl@val+1,w
  2146     0DA0  00A3               	movwf	___xxtofl@arg+1
  2147     0DA1  0876               	movf	___xxtofl@val,w
  2148     0DA2  00A2               	movwf	___xxtofl@arg
  2149     0DA3                     l579:
  2150     0DA3  0879               	movf	___xxtofl@val+3,w
  2151     0DA4  0478               	iorwf	___xxtofl@val+2,w
  2152     0DA5  0477               	iorwf	___xxtofl@val+1,w
  2153     0DA6  0476               	iorwf	___xxtofl@val,w
  2154     0DA7  1D03               	skipz
  2155     0DA8  2DAA               	goto	u2791
  2156     0DA9  2DAB               	goto	u2790
  2157     0DAA                     u2791:
  2158     0DAA  2DB4               	goto	l1798
  2159     0DAB                     u2790:
  2160     0DAB                     l1794:
  2161     0DAB  3000               	movlw	0
  2162     0DAC  00F9               	movwf	?___xxtofl+3
  2163     0DAD  3000               	movlw	0
  2164     0DAE  00F8               	movwf	?___xxtofl+2
  2165     0DAF  3000               	movlw	0
  2166     0DB0  00F7               	movwf	?___xxtofl+1
  2167     0DB1  3000               	movlw	0
  2168     0DB2  00F6               	movwf	?___xxtofl
  2169     0DB3  2E38               	goto	l581
  2170     0DB4                     l1798:
  2171     0DB4  3096               	movlw	150
  2172     0DB5  00A1               	movwf	___xxtofl@exp
  2173     0DB6  2DC4               	goto	l1802
  2174     0DB7                     l1800:
  2175     0DB7  3001               	movlw	1
  2176     0DB8  00FA               	movwf	??___xxtofl
  2177     0DB9  087A               	movf	??___xxtofl,w
  2178     0DBA  07A1               	addwf	___xxtofl@exp,f
  2179     0DBB  3001               	movlw	1
  2180     0DBC                     u2805:
  2181     0DBC  1003               	clrc
  2182     0DBD  0CA5               	rrf	___xxtofl@arg+3,f
  2183     0DBE  0CA4               	rrf	___xxtofl@arg+2,f
  2184     0DBF  0CA3               	rrf	___xxtofl@arg+1,f
  2185     0DC0  0CA2               	rrf	___xxtofl@arg,f
  2186     0DC1  3EFF               	addlw	-1
  2187     0DC2  1D03               	skipz
  2188     0DC3  2DBC               	goto	u2805
  2189     0DC4                     l1802:
  2190     0DC4  30FE               	movlw	254
  2191     0DC5  0525               	andwf	___xxtofl@arg+3,w
  2192     0DC6  1D03               	btfss	3,2
  2193     0DC7  2DC9               	goto	u2811
  2194     0DC8  2DCA               	goto	u2810
  2195     0DC9                     u2811:
  2196     0DC9  2DB7               	goto	l1800
  2197     0DCA                     u2810:
  2198     0DCA  2DE6               	goto	l585
  2199     0DCB                     l1804:
  2200     0DCB  3001               	movlw	1
  2201     0DCC  00FA               	movwf	??___xxtofl
  2202     0DCD  087A               	movf	??___xxtofl,w
  2203     0DCE  07A1               	addwf	___xxtofl@exp,f
  2204     0DCF                     l1806:
  2205     0DCF  3001               	movlw	1
  2206     0DD0  07A2               	addwf	___xxtofl@arg,f
  2207     0DD1  3000               	movlw	0
  2208     0DD2  1803               	skipnc
  2209     0DD3  3001               	movlw	1
  2210     0DD4  07A3               	addwf	___xxtofl@arg+1,f
  2211     0DD5  3000               	movlw	0
  2212     0DD6  1803               	skipnc
  2213     0DD7  3001               	movlw	1
  2214     0DD8  07A4               	addwf	___xxtofl@arg+2,f
  2215     0DD9  3000               	movlw	0
  2216     0DDA  1803               	skipnc
  2217     0DDB  3001               	movlw	1
  2218     0DDC  07A5               	addwf	___xxtofl@arg+3,f
  2219     0DDD                     l1808:
  2220     0DDD  3001               	movlw	1
  2221     0DDE                     u2825:
  2222     0DDE  1003               	clrc
  2223     0DDF  0CA5               	rrf	___xxtofl@arg+3,f
  2224     0DE0  0CA4               	rrf	___xxtofl@arg+2,f
  2225     0DE1  0CA3               	rrf	___xxtofl@arg+1,f
  2226     0DE2  0CA2               	rrf	___xxtofl@arg,f
  2227     0DE3  3EFF               	addlw	-1
  2228     0DE4  1D03               	skipz
  2229     0DE5  2DDE               	goto	u2825
  2230     0DE6                     l585:
  2231     0DE6  30FF               	movlw	255
  2232     0DE7  0525               	andwf	___xxtofl@arg+3,w
  2233     0DE8  1D03               	btfss	3,2
  2234     0DE9  2DEB               	goto	u2831
  2235     0DEA  2DEC               	goto	u2830
  2236     0DEB                     u2831:
  2237     0DEB  2DCB               	goto	l1804
  2238     0DEC                     u2830:
  2239     0DEC  2DF8               	goto	l1812
  2240     0DED                     l1810:
  2241     0DED  3001               	movlw	1
  2242     0DEE  02A1               	subwf	___xxtofl@exp,f
  2243     0DEF  3001               	movlw	1
  2244     0DF0  00FA               	movwf	??___xxtofl
  2245     0DF1                     u2845:
  2246     0DF1  1003               	clrc
  2247     0DF2  0DA2               	rlf	___xxtofl@arg,f
  2248     0DF3  0DA3               	rlf	___xxtofl@arg+1,f
  2249     0DF4  0DA4               	rlf	___xxtofl@arg+2,f
  2250     0DF5  0DA5               	rlf	___xxtofl@arg+3,f
  2251     0DF6  0BFA               	decfsz	??___xxtofl,f
  2252     0DF7  2DF1               	goto	u2845
  2253     0DF8                     l1812:
  2254     0DF8  1BA4               	btfsc	___xxtofl@arg+2,7
  2255     0DF9  2DFB               	goto	u2851
  2256     0DFA  2DFC               	goto	u2850
  2257     0DFB                     u2851:
  2258     0DFB  2E02               	goto	l592
  2259     0DFC                     u2850:
  2260     0DFC                     l1814:
  2261     0DFC  3002               	movlw	2
  2262     0DFD  0221               	subwf	___xxtofl@exp,w
  2263     0DFE  1803               	skipnc
  2264     0DFF  2E01               	goto	u2861
  2265     0E00  2E02               	goto	u2860
  2266     0E01                     u2861:
  2267     0E01  2DED               	goto	l1810
  2268     0E02                     u2860:
  2269     0E02                     l592:
  2270     0E02  1821               	btfsc	___xxtofl@exp,0
  2271     0E03  2E05               	goto	u2871
  2272     0E04  2E06               	goto	u2870
  2273     0E05                     u2871:
  2274     0E05  2E0E               	goto	l593
  2275     0E06                     u2870:
  2276     0E06                     l1816:
  2277     0E06  30FF               	movlw	255
  2278     0E07  05A2               	andwf	___xxtofl@arg,f
  2279     0E08  30FF               	movlw	255
  2280     0E09  05A3               	andwf	___xxtofl@arg+1,f
  2281     0E0A  307F               	movlw	127
  2282     0E0B  05A4               	andwf	___xxtofl@arg+2,f
  2283     0E0C  30FF               	movlw	255
  2284     0E0D  05A5               	andwf	___xxtofl@arg+3,f
  2285     0E0E                     l593:
  2286     0E0E  1003               	clrc
  2287     0E0F  0CA1               	rrf	___xxtofl@exp,f
  2288     0E10                     l1818:
  2289     0E10  0821               	movf	___xxtofl@exp,w
  2290     0E11  00FA               	movwf	??___xxtofl
  2291     0E12  01FB               	clrf	??___xxtofl+1
  2292     0E13  01FC               	clrf	??___xxtofl+2
  2293     0E14  01FD               	clrf	??___xxtofl+3
  2294     0E15  3018               	movlw	24
  2295     0E16                     u2885:
  2296     0E16  1003               	clrc
  2297     0E17  0DFA               	rlf	??___xxtofl,f
  2298     0E18  0DFB               	rlf	??___xxtofl+1,f
  2299     0E19  0DFC               	rlf	??___xxtofl+2,f
  2300     0E1A  0DFD               	rlf	??___xxtofl+3,f
  2301     0E1B                     u2880:
  2302     0E1B  3EFF               	addlw	-1
  2303     0E1C  1D03               	skipz
  2304     0E1D  2E16               	goto	u2885
  2305     0E1E  087A               	movf	??___xxtofl,w
  2306     0E1F  04A2               	iorwf	___xxtofl@arg,f
  2307     0E20  087B               	movf	??___xxtofl+1,w
  2308     0E21  04A3               	iorwf	___xxtofl@arg+1,f
  2309     0E22  087C               	movf	??___xxtofl+2,w
  2310     0E23  04A4               	iorwf	___xxtofl@arg+2,f
  2311     0E24  087D               	movf	??___xxtofl+3,w
  2312     0E25  04A5               	iorwf	___xxtofl@arg+3,f
  2313     0E26                     l1820:
  2314     0E26  0820               	movf	___xxtofl@sign,w
  2315     0E27  1903               	btfsc	3,2
  2316     0E28  2E2A               	goto	u2891
  2317     0E29  2E2B               	goto	u2890
  2318     0E2A                     u2891:
  2319     0E2A  2E30               	goto	l1826
  2320     0E2B                     u2890:
  2321     0E2B                     l1822:
  2322     0E2B  1FF9               	btfss	___xxtofl@val+3,7
  2323     0E2C  2E2E               	goto	u2901
  2324     0E2D  2E2F               	goto	u2900
  2325     0E2E                     u2901:
  2326     0E2E  2E30               	goto	l1826
  2327     0E2F                     u2900:
  2328     0E2F                     l1824:
  2329     0E2F  17A5               	bsf	___xxtofl@arg+3,7
  2330     0E30                     l1826:
  2331     0E30  0825               	movf	___xxtofl@arg+3,w
  2332     0E31  00F9               	movwf	?___xxtofl+3
  2333     0E32  0824               	movf	___xxtofl@arg+2,w
  2334     0E33  00F8               	movwf	?___xxtofl+2
  2335     0E34  0823               	movf	___xxtofl@arg+1,w
  2336     0E35  00F7               	movwf	?___xxtofl+1
  2337     0E36  0822               	movf	___xxtofl@arg,w
  2338     0E37  00F6               	movwf	?___xxtofl
  2339     0E38                     l581:
  2340     0E38  0008               	return
  2341     0E39                     __end_of___xxtofl:
  2342                           
  2343                           	psect	text5
  2344     0010                     __ptext5:	
  2345 ;; *************** function ___fltol *****************
  2346 ;; Defined at:
  2347 ;;		line 43 in file "/opt/microchip/xc8/v2.45/pic/sources/c99/common/fltol.c"
  2348 ;; Parameters:    Size  Location     Type
  2349 ;;  f1              4   67[BANK0 ] unsigned char 
  2350 ;; Auto vars:     Size  Location     Type
  2351 ;;  exp1            1   76[BANK0 ] unsigned char 
  2352 ;;  sign1           1   75[BANK0 ] unsigned char 
  2353 ;; Return value:  Size  Location     Type
  2354 ;;                  4   67[BANK0 ] long 
  2355 ;; Registers used:
  2356 ;;		wreg, status,2, status,0
  2357 ;; Tracked objects:
  2358 ;;		On entry : 0/0
  2359 ;;		On exit  : 0/0
  2360 ;;		Unchanged: 0/0
  2361 ;; Data sizes:     COMMON   BANK0   BANK1   BANK3   BANK2
  2362 ;;      Params:         0       4       0       0       0
  2363 ;;      Locals:         0       2       0       0       0
  2364 ;;      Temps:          0       4       0       0       0
  2365 ;;      Totals:         0      10       0       0       0
  2366 ;;Total ram usage:       10 bytes
  2367 ;; Hardware stack levels used: 1
  2368 ;; This function calls:
  2369 ;;		Nothing
  2370 ;; This function is called by:
  2371 ;;		___set_pwm_freq
  2372 ;;		___set_duty_cycle
  2373 ;;		_main
  2374 ;; This function uses a non-reentrant model
  2375 ;;
  2376                           
  2377     0010                     ___fltol:	
  2378                           ;psect for function ___fltol
  2379                           
  2380     0010                     l1274:	
  2381                           ;incstack = 0
  2382                           ; Regs used in ___fltol: [wreg+status,2+status,0]
  2383                           
  2384     0010  1003               	clrc
  2385     0011  1283               	bcf	3,5	;RP0=0, select bank0
  2386     0012  1303               	bcf	3,6	;RP1=0, select bank0
  2387     0013  0D65               	rlf	___fltol@f1+2,w
  2388     0014  0D66               	rlf	___fltol@f1+3,w
  2389     0015  00EC               	movwf	___fltol@exp1
  2390     0016  086C               	movf	___fltol@exp1,w
  2391     0017  1D03               	btfss	3,2
  2392     0018  281A               	goto	u1551
  2393     0019  281B               	goto	u1550
  2394     001A                     u1551:
  2395     001A  2824               	goto	l1280
  2396     001B                     u1550:
  2397     001B                     l1276:
  2398     001B  3000               	movlw	0
  2399     001C  00E6               	movwf	?___fltol+3
  2400     001D  3000               	movlw	0
  2401     001E  00E5               	movwf	?___fltol+2
  2402     001F  3000               	movlw	0
  2403     0020  00E4               	movwf	?___fltol+1
  2404     0021  3000               	movlw	0
  2405     0022  00E3               	movwf	?___fltol
  2406     0023  2887               	goto	l332
  2407     0024                     l1280:
  2408     0024  0863               	movf	___fltol@f1,w
  2409     0025  00E7               	movwf	??___fltol
  2410     0026  0864               	movf	___fltol@f1+1,w
  2411     0027  00E8               	movwf	??___fltol+1
  2412     0028  0865               	movf	___fltol@f1+2,w
  2413     0029  00E9               	movwf	??___fltol+2
  2414     002A  0866               	movf	___fltol@f1+3,w
  2415     002B  00EA               	movwf	??___fltol+3
  2416     002C  301F               	movlw	31
  2417     002D                     u1565:
  2418     002D  1003               	clrc
  2419     002E  0CEA               	rrf	??___fltol+3,f
  2420     002F  0CE9               	rrf	??___fltol+2,f
  2421     0030  0CE8               	rrf	??___fltol+1,f
  2422     0031  0CE7               	rrf	??___fltol,f
  2423     0032                     u1560:
  2424     0032  3EFF               	addlw	-1
  2425     0033  1D03               	skipz
  2426     0034  282D               	goto	u1565
  2427     0035  0867               	movf	??___fltol,w
  2428     0036  00EB               	movwf	___fltol@sign1
  2429     0037                     l1282:
  2430     0037  17E5               	bsf	___fltol@f1+2,7
  2431     0038                     l1284:
  2432     0038  30FF               	movlw	255
  2433     0039  05E3               	andwf	___fltol@f1,f
  2434     003A  30FF               	movlw	255
  2435     003B  05E4               	andwf	___fltol@f1+1,f
  2436     003C  30FF               	movlw	255
  2437     003D  05E5               	andwf	___fltol@f1+2,f
  2438     003E  3000               	movlw	0
  2439     003F  05E6               	andwf	___fltol@f1+3,f
  2440     0040                     l1286:
  2441     0040  3096               	movlw	150
  2442     0041  02EC               	subwf	___fltol@exp1,f
  2443     0042                     l1288:
  2444     0042  1FEC               	btfss	___fltol@exp1,7
  2445     0043  2845               	goto	u1571
  2446     0044  2846               	goto	u1570
  2447     0045                     u1571:
  2448     0045  2860               	goto	l1298
  2449     0046                     u1570:
  2450     0046                     l1290:
  2451     0046  086C               	movf	___fltol@exp1,w
  2452     0047  3A80               	xorlw	128
  2453     0048  3E97               	addlw	151
  2454     0049  1803               	skipnc
  2455     004A  284C               	goto	u1581
  2456     004B  284D               	goto	u1580
  2457     004C                     u1581:
  2458     004C  284E               	goto	l1296
  2459     004D                     u1580:
  2460     004D  281B               	goto	l1276
  2461     004E                     l1296:
  2462     004E  3001               	movlw	1
  2463     004F                     u1595:
  2464     004F  1003               	clrc
  2465     0050  0CE6               	rrf	___fltol@f1+3,f
  2466     0051  0CE5               	rrf	___fltol@f1+2,f
  2467     0052  0CE4               	rrf	___fltol@f1+1,f
  2468     0053  0CE3               	rrf	___fltol@f1,f
  2469     0054  3EFF               	addlw	-1
  2470     0055  1D03               	skipz
  2471     0056  284F               	goto	u1595
  2472     0057  3001               	movlw	1
  2473     0058  00E7               	movwf	??___fltol
  2474     0059  0867               	movf	??___fltol,w
  2475     005A  07EC               	addwf	___fltol@exp1,f
  2476     005B  1D03               	btfss	3,2
  2477     005C  285E               	goto	u1601
  2478     005D  285F               	goto	u1600
  2479     005E                     u1601:
  2480     005E  284E               	goto	l1296
  2481     005F                     u1600:
  2482     005F  2877               	goto	l1306
  2483     0060                     l1298:
  2484     0060  3020               	movlw	32
  2485     0061  026C               	subwf	___fltol@exp1,w
  2486     0062  1C03               	skipc
  2487     0063  2865               	goto	u1611
  2488     0064  2866               	goto	u1610
  2489     0065                     u1611:
  2490     0065  2872               	goto	l339
  2491     0066                     u1610:
  2492     0066  281B               	goto	l1276
  2493     0067                     l1304:
  2494     0067  3001               	movlw	1
  2495     0068  00E7               	movwf	??___fltol
  2496     0069                     u1625:
  2497     0069  1003               	clrc
  2498     006A  0DE3               	rlf	___fltol@f1,f
  2499     006B  0DE4               	rlf	___fltol@f1+1,f
  2500     006C  0DE5               	rlf	___fltol@f1+2,f
  2501     006D  0DE6               	rlf	___fltol@f1+3,f
  2502     006E  0BE7               	decfsz	??___fltol,f
  2503     006F  2869               	goto	u1625
  2504     0070  3001               	movlw	1
  2505     0071  02EC               	subwf	___fltol@exp1,f
  2506     0072                     l339:
  2507     0072  086C               	movf	___fltol@exp1,w
  2508     0073  1D03               	btfss	3,2
  2509     0074  2876               	goto	u1631
  2510     0075  2877               	goto	u1630
  2511     0076                     u1631:
  2512     0076  2867               	goto	l1304
  2513     0077                     u1630:
  2514     0077                     l1306:
  2515     0077  086B               	movf	___fltol@sign1,w
  2516     0078  1903               	btfsc	3,2
  2517     0079  287B               	goto	u1641
  2518     007A  287C               	goto	u1640
  2519     007B                     u1641:
  2520     007B  2887               	goto	l342
  2521     007C                     u1640:
  2522     007C                     l1308:
  2523     007C  09E3               	comf	___fltol@f1,f
  2524     007D  09E4               	comf	___fltol@f1+1,f
  2525     007E  09E5               	comf	___fltol@f1+2,f
  2526     007F  09E6               	comf	___fltol@f1+3,f
  2527     0080  0AE3               	incf	___fltol@f1,f
  2528     0081  1903               	skipnz
  2529     0082  0AE4               	incf	___fltol@f1+1,f
  2530     0083  1903               	skipnz
  2531     0084  0AE5               	incf	___fltol@f1+2,f
  2532     0085  1903               	skipnz
  2533     0086  0AE6               	incf	___fltol@f1+3,f
  2534     0087                     l342:
  2535     0087                     l332:
  2536     0087  0008               	return
  2537     0088                     __end_of___fltol:
  2538                           
  2539                           	psect	text6
  2540     04B3                     __ptext6:	
  2541 ;; *************** function ___flmul *****************
  2542 ;; Defined at:
  2543 ;;		line 8 in file "/opt/microchip/xc8/v2.45/pic/sources/c99/common/sprcmul.c"
  2544 ;; Parameters:    Size  Location     Type
  2545 ;;  b               4    0[BANK0 ] long 
  2546 ;;  a               4    4[BANK0 ] long 
  2547 ;; Auto vars:     Size  Location     Type
  2548 ;;  prod            4   15[BANK0 ] struct .
  2549 ;;  grs             4    9[BANK0 ] unsigned long 
  2550 ;;  temp            2   19[BANK0 ] struct .
  2551 ;;  bexp            1   14[BANK0 ] unsigned char 
  2552 ;;  aexp            1   13[BANK0 ] unsigned char 
  2553 ;;  sign            1    8[BANK0 ] unsigned char 
  2554 ;; Return value:  Size  Location     Type
  2555 ;;                  4    0[BANK0 ] unsigned char 
  2556 ;; Registers used:
  2557 ;;		wreg, status,2, status,0, btemp+1, pclath, cstack
  2558 ;; Tracked objects:
  2559 ;;		On entry : 0/0
  2560 ;;		On exit  : 0/0
  2561 ;;		Unchanged: 0/0
  2562 ;; Data sizes:     COMMON   BANK0   BANK1   BANK3   BANK2
  2563 ;;      Params:         0       8       0       0       0
  2564 ;;      Locals:         0      13       0       0       0
  2565 ;;      Temps:          5       0       0       0       0
  2566 ;;      Totals:         5      21       0       0       0
  2567 ;;Total ram usage:       26 bytes
  2568 ;; Hardware stack levels used: 1
  2569 ;; Hardware stack levels required when called: 1
  2570 ;; This function calls:
  2571 ;;		__Umul8_16
  2572 ;; This function is called by:
  2573 ;;		___set_pwm_freq
  2574 ;;		___set_duty_cycle
  2575 ;;		_main
  2576 ;; This function uses a non-reentrant model
  2577 ;;
  2578                           
  2579     04B3                     ___flmul:	
  2580                           ;psect for function ___flmul
  2581                           
  2582     04B3                     l1646:	
  2583                           ;incstack = 0
  2584                           ; Regs used in ___flmul: [wreg+status,2+status,0+btemp+1+pclath+cstack]
  2585                           
  2586     04B3  1283               	bcf	3,5	;RP0=0, select bank0
  2587     04B4  1303               	bcf	3,6	;RP1=0, select bank0
  2588     04B5  0823               	movf	___flmul@b+3,w
  2589     04B6  3980               	andlw	128
  2590     04B7  00A8               	movwf	___flmul@sign
  2591     04B8                     l1648:
  2592     04B8  0823               	movf	___flmul@b+3,w
  2593     04B9  00F9               	movwf	??___flmul
  2594     04BA  0779               	addwf	??___flmul,w
  2595     04BB  00AE               	movwf	___flmul@bexp
  2596     04BC                     l1650:
  2597     04BC  1FA2               	btfss	___flmul@b+2,7
  2598     04BD  2CBF               	goto	u2401
  2599     04BE  2CC0               	goto	u2400
  2600     04BF                     u2401:
  2601     04BF  2CC1               	goto	l1654
  2602     04C0                     u2400:
  2603     04C0                     l1652:
  2604     04C0  142E               	bsf	___flmul@bexp,0
  2605     04C1                     l1654:
  2606     04C1  082E               	movf	___flmul@bexp,w
  2607     04C2  1903               	btfsc	3,2
  2608     04C3  2CC5               	goto	u2411
  2609     04C4  2CC6               	goto	u2410
  2610     04C5                     u2411:
  2611     04C5  2CD5               	goto	l1662
  2612     04C6                     u2410:
  2613     04C6                     l1656:
  2614     04C6  0A2E               	incf	___flmul@bexp,w
  2615     04C7  1D03               	btfss	3,2
  2616     04C8  2CCA               	goto	u2421
  2617     04C9  2CCB               	goto	u2420
  2618     04CA                     u2421:
  2619     04CA  2CD3               	goto	l1660
  2620     04CB                     u2420:
  2621     04CB                     l1658:
  2622     04CB  3000               	movlw	0
  2623     04CC  00A3               	movwf	___flmul@b+3
  2624     04CD  3000               	movlw	0
  2625     04CE  00A2               	movwf	___flmul@b+2
  2626     04CF  3000               	movlw	0
  2627     04D0  00A1               	movwf	___flmul@b+1
  2628     04D1  3000               	movlw	0
  2629     04D2  00A0               	movwf	___flmul@b
  2630     04D3                     l1660:
  2631     04D3  17A2               	bsf	___flmul@b+2,7
  2632     04D4  2CDD               	goto	l1664
  2633     04D5                     l1662:
  2634     04D5  3000               	movlw	0
  2635     04D6  00A3               	movwf	___flmul@b+3
  2636     04D7  3000               	movlw	0
  2637     04D8  00A2               	movwf	___flmul@b+2
  2638     04D9  3000               	movlw	0
  2639     04DA  00A1               	movwf	___flmul@b+1
  2640     04DB  3000               	movlw	0
  2641     04DC  00A0               	movwf	___flmul@b
  2642     04DD                     l1664:
  2643     04DD  0827               	movf	___flmul@a+3,w
  2644     04DE  3980               	andlw	128
  2645     04DF  00F9               	movwf	??___flmul
  2646     04E0  0879               	movf	??___flmul,w
  2647     04E1  06A8               	xorwf	___flmul@sign,f
  2648     04E2                     l1666:
  2649     04E2  0827               	movf	___flmul@a+3,w
  2650     04E3  00F9               	movwf	??___flmul
  2651     04E4  0779               	addwf	??___flmul,w
  2652     04E5  00AD               	movwf	___flmul@aexp
  2653     04E6                     l1668:
  2654     04E6  1FA6               	btfss	___flmul@a+2,7
  2655     04E7  2CE9               	goto	u2431
  2656     04E8  2CEA               	goto	u2430
  2657     04E9                     u2431:
  2658     04E9  2CEB               	goto	l1672
  2659     04EA                     u2430:
  2660     04EA                     l1670:
  2661     04EA  142D               	bsf	___flmul@aexp,0
  2662     04EB                     l1672:
  2663     04EB  082D               	movf	___flmul@aexp,w
  2664     04EC  1903               	btfsc	3,2
  2665     04ED  2CEF               	goto	u2441
  2666     04EE  2CF0               	goto	u2440
  2667     04EF                     u2441:
  2668     04EF  2CFF               	goto	l1680
  2669     04F0                     u2440:
  2670     04F0                     l1674:
  2671     04F0  0A2D               	incf	___flmul@aexp,w
  2672     04F1  1D03               	btfss	3,2
  2673     04F2  2CF4               	goto	u2451
  2674     04F3  2CF5               	goto	u2450
  2675     04F4                     u2451:
  2676     04F4  2CFD               	goto	l1678
  2677     04F5                     u2450:
  2678     04F5                     l1676:
  2679     04F5  3000               	movlw	0
  2680     04F6  00A7               	movwf	___flmul@a+3
  2681     04F7  3000               	movlw	0
  2682     04F8  00A6               	movwf	___flmul@a+2
  2683     04F9  3000               	movlw	0
  2684     04FA  00A5               	movwf	___flmul@a+1
  2685     04FB  3000               	movlw	0
  2686     04FC  00A4               	movwf	___flmul@a
  2687     04FD                     l1678:
  2688     04FD  17A6               	bsf	___flmul@a+2,7
  2689     04FE  2D07               	goto	l1682
  2690     04FF                     l1680:
  2691     04FF  3000               	movlw	0
  2692     0500  00A7               	movwf	___flmul@a+3
  2693     0501  3000               	movlw	0
  2694     0502  00A6               	movwf	___flmul@a+2
  2695     0503  3000               	movlw	0
  2696     0504  00A5               	movwf	___flmul@a+1
  2697     0505  3000               	movlw	0
  2698     0506  00A4               	movwf	___flmul@a
  2699     0507                     l1682:
  2700     0507  082D               	movf	___flmul@aexp,w
  2701     0508  1903               	btfsc	3,2
  2702     0509  2D0B               	goto	u2461
  2703     050A  2D0C               	goto	u2460
  2704     050B                     u2461:
  2705     050B  2D11               	goto	l1686
  2706     050C                     u2460:
  2707     050C                     l1684:
  2708     050C  082E               	movf	___flmul@bexp,w
  2709     050D  1D03               	btfss	3,2
  2710     050E  2D10               	goto	u2471
  2711     050F  2D11               	goto	u2470
  2712     0510                     u2471:
  2713     0510  2D1A               	goto	l1690
  2714     0511                     u2470:
  2715     0511                     l1686:
  2716     0511  3000               	movlw	0
  2717     0512  00A3               	movwf	?___flmul+3
  2718     0513  3000               	movlw	0
  2719     0514  00A2               	movwf	?___flmul+2
  2720     0515  3000               	movlw	0
  2721     0516  00A1               	movwf	?___flmul+1
  2722     0517  3000               	movlw	0
  2723     0518  00A0               	movwf	?___flmul
  2724     0519  2FF7               	goto	l535
  2725     051A                     l1690:
  2726     051A  0820               	movf	___flmul@b,w
  2727     051B  00F0               	movwf	__Umul8_16@multiplicand
  2728     051C  0826               	movf	___flmul@a+2,w
  2729     051D  120A  158A  241E  120A  118A  	fcall	__Umul8_16
  2730     0522  0871               	movf	?__Umul8_16+1,w
  2731     0523  1283               	bcf	3,5	;RP0=0, select bank0
  2732     0524  1303               	bcf	3,6	;RP1=0, select bank0
  2733     0525  00B4               	movwf	___flmul@temp+1
  2734     0526  0870               	movf	?__Umul8_16,w
  2735     0527  00B3               	movwf	___flmul@temp
  2736     0528                     l1692:
  2737     0528  0833               	movf	___flmul@temp,w
  2738     0529  00F9               	movwf	??___flmul
  2739     052A  01FA               	clrf	??___flmul+1
  2740     052B  01FB               	clrf	??___flmul+2
  2741     052C  01FC               	clrf	??___flmul+3
  2742     052D  087C               	movf	??___flmul+3,w
  2743     052E  00AC               	movwf	___flmul@grs+3
  2744     052F  087B               	movf	??___flmul+2,w
  2745     0530  00AB               	movwf	___flmul@grs+2
  2746     0531  087A               	movf	??___flmul+1,w
  2747     0532  00AA               	movwf	___flmul@grs+1
  2748     0533  0879               	movf	??___flmul,w
  2749     0534  00A9               	movwf	___flmul@grs
  2750     0535                     l1694:
  2751     0535  0834               	movf	___flmul@temp+1,w
  2752     0536  00F9               	movwf	??___flmul
  2753     0537  01FA               	clrf	??___flmul+1
  2754     0538  01FB               	clrf	??___flmul+2
  2755     0539  01FC               	clrf	??___flmul+3
  2756     053A  087C               	movf	??___flmul+3,w
  2757     053B  00B2               	movwf	___flmul@prod+3
  2758     053C  087B               	movf	??___flmul+2,w
  2759     053D  00B1               	movwf	___flmul@prod+2
  2760     053E  087A               	movf	??___flmul+1,w
  2761     053F  00B0               	movwf	___flmul@prod+1
  2762     0540  0879               	movf	??___flmul,w
  2763     0541  00AF               	movwf	___flmul@prod
  2764     0542  0821               	movf	___flmul@b+1,w
  2765     0543  00F0               	movwf	__Umul8_16@multiplicand
  2766     0544  0825               	movf	___flmul@a+1,w
  2767     0545  120A  158A  241E  120A  118A  	fcall	__Umul8_16
  2768     054A  0871               	movf	?__Umul8_16+1,w
  2769     054B  1283               	bcf	3,5	;RP0=0, select bank0
  2770     054C  1303               	bcf	3,6	;RP1=0, select bank0
  2771     054D  00B4               	movwf	___flmul@temp+1
  2772     054E  0870               	movf	?__Umul8_16,w
  2773     054F  00B3               	movwf	___flmul@temp
  2774     0550                     l1696:
  2775     0550  0833               	movf	___flmul@temp,w
  2776     0551  00F9               	movwf	??___flmul
  2777     0552  01FA               	clrf	??___flmul+1
  2778     0553  01FB               	clrf	??___flmul+2
  2779     0554  01FC               	clrf	??___flmul+3
  2780     0555  0879               	movf	??___flmul,w
  2781     0556  07A9               	addwf	___flmul@grs,f
  2782     0557  087A               	movf	??___flmul+1,w
  2783     0558  1103               	clrz
  2784     0559  1803               	skipnc
  2785     055A  3E01               	addlw	1
  2786     055B  1903               	skipnz
  2787     055C  2D5E               	goto	u2481
  2788     055D  07AA               	addwf	___flmul@grs+1,f
  2789     055E                     u2481:
  2790     055E  087B               	movf	??___flmul+2,w
  2791     055F  1103               	clrz
  2792     0560  1803               	skipnc
  2793     0561  3E01               	addlw	1
  2794     0562  1903               	skipnz
  2795     0563  2D65               	goto	u2482
  2796     0564  07AB               	addwf	___flmul@grs+2,f
  2797     0565                     u2482:
  2798     0565  087C               	movf	??___flmul+3,w
  2799     0566  1103               	clrz
  2800     0567  1803               	skipnc
  2801     0568  3E01               	addlw	1
  2802     0569  1903               	skipnz
  2803     056A  2D6C               	goto	u2483
  2804     056B  07AC               	addwf	___flmul@grs+3,f
  2805     056C                     u2483:
  2806     056C                     l1698:
  2807     056C  0834               	movf	___flmul@temp+1,w
  2808     056D  00F9               	movwf	??___flmul
  2809     056E  01FA               	clrf	??___flmul+1
  2810     056F  01FB               	clrf	??___flmul+2
  2811     0570  01FC               	clrf	??___flmul+3
  2812     0571  0879               	movf	??___flmul,w
  2813     0572  07AF               	addwf	___flmul@prod,f
  2814     0573  087A               	movf	??___flmul+1,w
  2815     0574  1103               	clrz
  2816     0575  1803               	skipnc
  2817     0576  3E01               	addlw	1
  2818     0577  1903               	skipnz
  2819     0578  2D7A               	goto	u2491
  2820     0579  07B0               	addwf	___flmul@prod+1,f
  2821     057A                     u2491:
  2822     057A  087B               	movf	??___flmul+2,w
  2823     057B  1103               	clrz
  2824     057C  1803               	skipnc
  2825     057D  3E01               	addlw	1
  2826     057E  1903               	skipnz
  2827     057F  2D81               	goto	u2492
  2828     0580  07B1               	addwf	___flmul@prod+2,f
  2829     0581                     u2492:
  2830     0581  087C               	movf	??___flmul+3,w
  2831     0582  1103               	clrz
  2832     0583  1803               	skipnc
  2833     0584  3E01               	addlw	1
  2834     0585  1903               	skipnz
  2835     0586  2D88               	goto	u2493
  2836     0587  07B2               	addwf	___flmul@prod+3,f
  2837     0588                     u2493:
  2838     0588  0822               	movf	___flmul@b+2,w
  2839     0589  00F0               	movwf	__Umul8_16@multiplicand
  2840     058A  0824               	movf	___flmul@a,w
  2841     058B  120A  158A  241E  120A  118A  	fcall	__Umul8_16
  2842     0590  0871               	movf	?__Umul8_16+1,w
  2843     0591  1283               	bcf	3,5	;RP0=0, select bank0
  2844     0592  1303               	bcf	3,6	;RP1=0, select bank0
  2845     0593  00B4               	movwf	___flmul@temp+1
  2846     0594  0870               	movf	?__Umul8_16,w
  2847     0595  00B3               	movwf	___flmul@temp
  2848     0596                     l1700:
  2849     0596  0833               	movf	___flmul@temp,w
  2850     0597  00F9               	movwf	??___flmul
  2851     0598  01FA               	clrf	??___flmul+1
  2852     0599  01FB               	clrf	??___flmul+2
  2853     059A  01FC               	clrf	??___flmul+3
  2854     059B  0879               	movf	??___flmul,w
  2855     059C  07A9               	addwf	___flmul@grs,f
  2856     059D  087A               	movf	??___flmul+1,w
  2857     059E  1103               	clrz
  2858     059F  1803               	skipnc
  2859     05A0  3E01               	addlw	1
  2860     05A1  1903               	skipnz
  2861     05A2  2DA4               	goto	u2501
  2862     05A3  07AA               	addwf	___flmul@grs+1,f
  2863     05A4                     u2501:
  2864     05A4  087B               	movf	??___flmul+2,w
  2865     05A5  1103               	clrz
  2866     05A6  1803               	skipnc
  2867     05A7  3E01               	addlw	1
  2868     05A8  1903               	skipnz
  2869     05A9  2DAB               	goto	u2502
  2870     05AA  07AB               	addwf	___flmul@grs+2,f
  2871     05AB                     u2502:
  2872     05AB  087C               	movf	??___flmul+3,w
  2873     05AC  1103               	clrz
  2874     05AD  1803               	skipnc
  2875     05AE  3E01               	addlw	1
  2876     05AF  1903               	skipnz
  2877     05B0  2DB2               	goto	u2503
  2878     05B1  07AC               	addwf	___flmul@grs+3,f
  2879     05B2                     u2503:
  2880     05B2                     l1702:
  2881     05B2  0834               	movf	___flmul@temp+1,w
  2882     05B3  00F9               	movwf	??___flmul
  2883     05B4  01FA               	clrf	??___flmul+1
  2884     05B5  01FB               	clrf	??___flmul+2
  2885     05B6  01FC               	clrf	??___flmul+3
  2886     05B7  0879               	movf	??___flmul,w
  2887     05B8  07AF               	addwf	___flmul@prod,f
  2888     05B9  087A               	movf	??___flmul+1,w
  2889     05BA  1103               	clrz
  2890     05BB  1803               	skipnc
  2891     05BC  3E01               	addlw	1
  2892     05BD  1903               	skipnz
  2893     05BE  2DC0               	goto	u2511
  2894     05BF  07B0               	addwf	___flmul@prod+1,f
  2895     05C0                     u2511:
  2896     05C0  087B               	movf	??___flmul+2,w
  2897     05C1  1103               	clrz
  2898     05C2  1803               	skipnc
  2899     05C3  3E01               	addlw	1
  2900     05C4  1903               	skipnz
  2901     05C5  2DC7               	goto	u2512
  2902     05C6  07B1               	addwf	___flmul@prod+2,f
  2903     05C7                     u2512:
  2904     05C7  087C               	movf	??___flmul+3,w
  2905     05C8  1103               	clrz
  2906     05C9  1803               	skipnc
  2907     05CA  3E01               	addlw	1
  2908     05CB  1903               	skipnz
  2909     05CC  2DCE               	goto	u2513
  2910     05CD  07B2               	addwf	___flmul@prod+3,f
  2911     05CE                     u2513:
  2912     05CE                     l1704:
  2913     05CE  3008               	movlw	8
  2914     05CF  00F9               	movwf	??___flmul
  2915     05D0                     u2525:
  2916     05D0  1003               	clrc
  2917     05D1  0DA9               	rlf	___flmul@grs,f
  2918     05D2  0DAA               	rlf	___flmul@grs+1,f
  2919     05D3  0DAB               	rlf	___flmul@grs+2,f
  2920     05D4  0DAC               	rlf	___flmul@grs+3,f
  2921     05D5  0BF9               	decfsz	??___flmul,f
  2922     05D6  2DD0               	goto	u2525
  2923     05D7                     l1706:
  2924     05D7  0821               	movf	___flmul@b+1,w
  2925     05D8  00F0               	movwf	__Umul8_16@multiplicand
  2926     05D9  0824               	movf	___flmul@a,w
  2927     05DA  120A  158A  241E  120A  118A  	fcall	__Umul8_16
  2928     05DF  0871               	movf	?__Umul8_16+1,w
  2929     05E0  1283               	bcf	3,5	;RP0=0, select bank0
  2930     05E1  1303               	bcf	3,6	;RP1=0, select bank0
  2931     05E2  00B4               	movwf	___flmul@temp+1
  2932     05E3  0870               	movf	?__Umul8_16,w
  2933     05E4  00B3               	movwf	___flmul@temp
  2934     05E5                     l1708:
  2935     05E5  0833               	movf	___flmul@temp,w
  2936     05E6  00F9               	movwf	??___flmul
  2937     05E7  0834               	movf	___flmul@temp+1,w
  2938     05E8  00FA               	movwf	??___flmul+1
  2939     05E9  01FB               	clrf	??___flmul+2
  2940     05EA  01FC               	clrf	??___flmul+3
  2941     05EB  0879               	movf	??___flmul,w
  2942     05EC  07A9               	addwf	___flmul@grs,f
  2943     05ED  087A               	movf	??___flmul+1,w
  2944     05EE  1103               	clrz
  2945     05EF  1803               	skipnc
  2946     05F0  3E01               	addlw	1
  2947     05F1  1903               	skipnz
  2948     05F2  2DF4               	goto	u2531
  2949     05F3  07AA               	addwf	___flmul@grs+1,f
  2950     05F4                     u2531:
  2951     05F4  087B               	movf	??___flmul+2,w
  2952     05F5  1103               	clrz
  2953     05F6  1803               	skipnc
  2954     05F7  3E01               	addlw	1
  2955     05F8  1903               	skipnz
  2956     05F9  2DFB               	goto	u2532
  2957     05FA  07AB               	addwf	___flmul@grs+2,f
  2958     05FB                     u2532:
  2959     05FB  087C               	movf	??___flmul+3,w
  2960     05FC  1103               	clrz
  2961     05FD  1803               	skipnc
  2962     05FE  3E01               	addlw	1
  2963     05FF  1903               	skipnz
  2964     0600  2E02               	goto	u2533
  2965     0601  07AC               	addwf	___flmul@grs+3,f
  2966     0602                     u2533:
  2967     0602                     l1710:
  2968     0602  0820               	movf	___flmul@b,w
  2969     0603  00F0               	movwf	__Umul8_16@multiplicand
  2970     0604  0825               	movf	___flmul@a+1,w
  2971     0605  120A  158A  241E  120A  118A  	fcall	__Umul8_16
  2972     060A  0871               	movf	?__Umul8_16+1,w
  2973     060B  1283               	bcf	3,5	;RP0=0, select bank0
  2974     060C  1303               	bcf	3,6	;RP1=0, select bank0
  2975     060D  00B4               	movwf	___flmul@temp+1
  2976     060E  0870               	movf	?__Umul8_16,w
  2977     060F  00B3               	movwf	___flmul@temp
  2978     0610                     l1712:
  2979     0610  0833               	movf	___flmul@temp,w
  2980     0611  00F9               	movwf	??___flmul
  2981     0612  0834               	movf	___flmul@temp+1,w
  2982     0613  00FA               	movwf	??___flmul+1
  2983     0614  01FB               	clrf	??___flmul+2
  2984     0615  01FC               	clrf	??___flmul+3
  2985     0616  0879               	movf	??___flmul,w
  2986     0617  07A9               	addwf	___flmul@grs,f
  2987     0618  087A               	movf	??___flmul+1,w
  2988     0619  1103               	clrz
  2989     061A  1803               	skipnc
  2990     061B  3E01               	addlw	1
  2991     061C  1903               	skipnz
  2992     061D  2E1F               	goto	u2541
  2993     061E  07AA               	addwf	___flmul@grs+1,f
  2994     061F                     u2541:
  2995     061F  087B               	movf	??___flmul+2,w
  2996     0620  1103               	clrz
  2997     0621  1803               	skipnc
  2998     0622  3E01               	addlw	1
  2999     0623  1903               	skipnz
  3000     0624  2E26               	goto	u2542
  3001     0625  07AB               	addwf	___flmul@grs+2,f
  3002     0626                     u2542:
  3003     0626  087C               	movf	??___flmul+3,w
  3004     0627  1103               	clrz
  3005     0628  1803               	skipnc
  3006     0629  3E01               	addlw	1
  3007     062A  1903               	skipnz
  3008     062B  2E2D               	goto	u2543
  3009     062C  07AC               	addwf	___flmul@grs+3,f
  3010     062D                     u2543:
  3011     062D                     l1714:
  3012     062D  3008               	movlw	8
  3013     062E  00F9               	movwf	??___flmul
  3014     062F                     u2555:
  3015     062F  1003               	clrc
  3016     0630  0DA9               	rlf	___flmul@grs,f
  3017     0631  0DAA               	rlf	___flmul@grs+1,f
  3018     0632  0DAB               	rlf	___flmul@grs+2,f
  3019     0633  0DAC               	rlf	___flmul@grs+3,f
  3020     0634  0BF9               	decfsz	??___flmul,f
  3021     0635  2E2F               	goto	u2555
  3022     0636  0820               	movf	___flmul@b,w
  3023     0637  00F0               	movwf	__Umul8_16@multiplicand
  3024     0638  0824               	movf	___flmul@a,w
  3025     0639  120A  158A  241E  120A  118A  	fcall	__Umul8_16
  3026     063E  0871               	movf	?__Umul8_16+1,w
  3027     063F  1283               	bcf	3,5	;RP0=0, select bank0
  3028     0640  1303               	bcf	3,6	;RP1=0, select bank0
  3029     0641  00B4               	movwf	___flmul@temp+1
  3030     0642  0870               	movf	?__Umul8_16,w
  3031     0643  00B3               	movwf	___flmul@temp
  3032     0644                     l1716:
  3033     0644  0833               	movf	___flmul@temp,w
  3034     0645  00F9               	movwf	??___flmul
  3035     0646  0834               	movf	___flmul@temp+1,w
  3036     0647  00FA               	movwf	??___flmul+1
  3037     0648  01FB               	clrf	??___flmul+2
  3038     0649  01FC               	clrf	??___flmul+3
  3039     064A  0879               	movf	??___flmul,w
  3040     064B  07A9               	addwf	___flmul@grs,f
  3041     064C  087A               	movf	??___flmul+1,w
  3042     064D  1103               	clrz
  3043     064E  1803               	skipnc
  3044     064F  3E01               	addlw	1
  3045     0650  1903               	skipnz
  3046     0651  2E53               	goto	u2561
  3047     0652  07AA               	addwf	___flmul@grs+1,f
  3048     0653                     u2561:
  3049     0653  087B               	movf	??___flmul+2,w
  3050     0654  1103               	clrz
  3051     0655  1803               	skipnc
  3052     0656  3E01               	addlw	1
  3053     0657  1903               	skipnz
  3054     0658  2E5A               	goto	u2562
  3055     0659  07AB               	addwf	___flmul@grs+2,f
  3056     065A                     u2562:
  3057     065A  087C               	movf	??___flmul+3,w
  3058     065B  1103               	clrz
  3059     065C  1803               	skipnc
  3060     065D  3E01               	addlw	1
  3061     065E  1903               	skipnz
  3062     065F  2E61               	goto	u2563
  3063     0660  07AC               	addwf	___flmul@grs+3,f
  3064     0661                     u2563:
  3065     0661                     l1718:
  3066     0661  0821               	movf	___flmul@b+1,w
  3067     0662  00F0               	movwf	__Umul8_16@multiplicand
  3068     0663  0826               	movf	___flmul@a+2,w
  3069     0664  120A  158A  241E  120A  118A  	fcall	__Umul8_16
  3070     0669  0871               	movf	?__Umul8_16+1,w
  3071     066A  1283               	bcf	3,5	;RP0=0, select bank0
  3072     066B  1303               	bcf	3,6	;RP1=0, select bank0
  3073     066C  00B4               	movwf	___flmul@temp+1
  3074     066D  0870               	movf	?__Umul8_16,w
  3075     066E  00B3               	movwf	___flmul@temp
  3076     066F  0833               	movf	___flmul@temp,w
  3077     0670  00F9               	movwf	??___flmul
  3078     0671  0834               	movf	___flmul@temp+1,w
  3079     0672  00FA               	movwf	??___flmul+1
  3080     0673  01FB               	clrf	??___flmul+2
  3081     0674  01FC               	clrf	??___flmul+3
  3082     0675  0879               	movf	??___flmul,w
  3083     0676  07AF               	addwf	___flmul@prod,f
  3084     0677  087A               	movf	??___flmul+1,w
  3085     0678  1103               	clrz
  3086     0679  1803               	skipnc
  3087     067A  3E01               	addlw	1
  3088     067B  1903               	skipnz
  3089     067C  2E7E               	goto	u2571
  3090     067D  07B0               	addwf	___flmul@prod+1,f
  3091     067E                     u2571:
  3092     067E  087B               	movf	??___flmul+2,w
  3093     067F  1103               	clrz
  3094     0680  1803               	skipnc
  3095     0681  3E01               	addlw	1
  3096     0682  1903               	skipnz
  3097     0683  2E85               	goto	u2572
  3098     0684  07B1               	addwf	___flmul@prod+2,f
  3099     0685                     u2572:
  3100     0685  087C               	movf	??___flmul+3,w
  3101     0686  1103               	clrz
  3102     0687  1803               	skipnc
  3103     0688  3E01               	addlw	1
  3104     0689  1903               	skipnz
  3105     068A  2E8C               	goto	u2573
  3106     068B  07B2               	addwf	___flmul@prod+3,f
  3107     068C                     u2573:
  3108     068C                     l1720:
  3109     068C  0822               	movf	___flmul@b+2,w
  3110     068D  00F0               	movwf	__Umul8_16@multiplicand
  3111     068E  0825               	movf	___flmul@a+1,w
  3112     068F  120A  158A  241E  120A  118A  	fcall	__Umul8_16
  3113     0694  0871               	movf	?__Umul8_16+1,w
  3114     0695  1283               	bcf	3,5	;RP0=0, select bank0
  3115     0696  1303               	bcf	3,6	;RP1=0, select bank0
  3116     0697  00B4               	movwf	___flmul@temp+1
  3117     0698  0870               	movf	?__Umul8_16,w
  3118     0699  00B3               	movwf	___flmul@temp
  3119     069A                     l1722:
  3120     069A  0833               	movf	___flmul@temp,w
  3121     069B  00F9               	movwf	??___flmul
  3122     069C  0834               	movf	___flmul@temp+1,w
  3123     069D  00FA               	movwf	??___flmul+1
  3124     069E  01FB               	clrf	??___flmul+2
  3125     069F  01FC               	clrf	??___flmul+3
  3126     06A0  0879               	movf	??___flmul,w
  3127     06A1  07AF               	addwf	___flmul@prod,f
  3128     06A2  087A               	movf	??___flmul+1,w
  3129     06A3  1103               	clrz
  3130     06A4  1803               	skipnc
  3131     06A5  3E01               	addlw	1
  3132     06A6  1903               	skipnz
  3133     06A7  2EA9               	goto	u2581
  3134     06A8  07B0               	addwf	___flmul@prod+1,f
  3135     06A9                     u2581:
  3136     06A9  087B               	movf	??___flmul+2,w
  3137     06AA  1103               	clrz
  3138     06AB  1803               	skipnc
  3139     06AC  3E01               	addlw	1
  3140     06AD  1903               	skipnz
  3141     06AE  2EB0               	goto	u2582
  3142     06AF  07B1               	addwf	___flmul@prod+2,f
  3143     06B0                     u2582:
  3144     06B0  087C               	movf	??___flmul+3,w
  3145     06B1  1103               	clrz
  3146     06B2  1803               	skipnc
  3147     06B3  3E01               	addlw	1
  3148     06B4  1903               	skipnz
  3149     06B5  2EB7               	goto	u2583
  3150     06B6  07B2               	addwf	___flmul@prod+3,f
  3151     06B7                     u2583:
  3152     06B7  0822               	movf	___flmul@b+2,w
  3153     06B8  00F0               	movwf	__Umul8_16@multiplicand
  3154     06B9  0826               	movf	___flmul@a+2,w
  3155     06BA  120A  158A  241E  120A  118A  	fcall	__Umul8_16
  3156     06BF  0871               	movf	?__Umul8_16+1,w
  3157     06C0  1283               	bcf	3,5	;RP0=0, select bank0
  3158     06C1  1303               	bcf	3,6	;RP1=0, select bank0
  3159     06C2  00B4               	movwf	___flmul@temp+1
  3160     06C3  0870               	movf	?__Umul8_16,w
  3161     06C4  00B3               	movwf	___flmul@temp
  3162     06C5                     l1724:
  3163     06C5  0833               	movf	___flmul@temp,w
  3164     06C6  00F9               	movwf	??___flmul
  3165     06C7  0834               	movf	___flmul@temp+1,w
  3166     06C8  00FA               	movwf	??___flmul+1
  3167     06C9  01FB               	clrf	??___flmul+2
  3168     06CA  01FC               	clrf	??___flmul+3
  3169     06CB  3008               	movlw	8
  3170     06CC                     u2595:
  3171     06CC  1003               	clrc
  3172     06CD  0DF9               	rlf	??___flmul,f
  3173     06CE  0DFA               	rlf	??___flmul+1,f
  3174     06CF  0DFB               	rlf	??___flmul+2,f
  3175     06D0  0DFC               	rlf	??___flmul+3,f
  3176     06D1                     u2590:
  3177     06D1  3EFF               	addlw	-1
  3178     06D2  1D03               	skipz
  3179     06D3  2ECC               	goto	u2595
  3180     06D4  0879               	movf	??___flmul,w
  3181     06D5  07AF               	addwf	___flmul@prod,f
  3182     06D6  087A               	movf	??___flmul+1,w
  3183     06D7  1103               	clrz
  3184     06D8  1803               	skipnc
  3185     06D9  3E01               	addlw	1
  3186     06DA  1903               	skipnz
  3187     06DB  2EDD               	goto	u2601
  3188     06DC  07B0               	addwf	___flmul@prod+1,f
  3189     06DD                     u2601:
  3190     06DD  087B               	movf	??___flmul+2,w
  3191     06DE  1103               	clrz
  3192     06DF  1803               	skipnc
  3193     06E0  3E01               	addlw	1
  3194     06E1  1903               	skipnz
  3195     06E2  2EE4               	goto	u2602
  3196     06E3  07B1               	addwf	___flmul@prod+2,f
  3197     06E4                     u2602:
  3198     06E4  087C               	movf	??___flmul+3,w
  3199     06E5  1103               	clrz
  3200     06E6  1803               	skipnc
  3201     06E7  3E01               	addlw	1
  3202     06E8  1903               	skipnz
  3203     06E9  2EEB               	goto	u2603
  3204     06EA  07B2               	addwf	___flmul@prod+3,f
  3205     06EB                     u2603:
  3206     06EB                     l1726:
  3207     06EB  0829               	movf	___flmul@grs,w
  3208     06EC  00F9               	movwf	??___flmul
  3209     06ED  082A               	movf	___flmul@grs+1,w
  3210     06EE  00FA               	movwf	??___flmul+1
  3211     06EF  082B               	movf	___flmul@grs+2,w
  3212     06F0  00FB               	movwf	??___flmul+2
  3213     06F1  082C               	movf	___flmul@grs+3,w
  3214     06F2  00FC               	movwf	??___flmul+3
  3215     06F3  3018               	movlw	24
  3216     06F4                     u2615:
  3217     06F4  1003               	clrc
  3218     06F5  0CFC               	rrf	??___flmul+3,f
  3219     06F6  0CFB               	rrf	??___flmul+2,f
  3220     06F7  0CFA               	rrf	??___flmul+1,f
  3221     06F8  0CF9               	rrf	??___flmul,f
  3222     06F9                     u2610:
  3223     06F9  3EFF               	addlw	-1
  3224     06FA  1D03               	skipz
  3225     06FB  2EF4               	goto	u2615
  3226     06FC  0879               	movf	??___flmul,w
  3227     06FD  07AF               	addwf	___flmul@prod,f
  3228     06FE  087A               	movf	??___flmul+1,w
  3229     06FF  1103               	clrz
  3230     0700  1803               	skipnc
  3231     0701  3E01               	addlw	1
  3232     0702  1903               	skipnz
  3233     0703  2F05               	goto	u2621
  3234     0704  07B0               	addwf	___flmul@prod+1,f
  3235     0705                     u2621:
  3236     0705  087B               	movf	??___flmul+2,w
  3237     0706  1103               	clrz
  3238     0707  1803               	skipnc
  3239     0708  3E01               	addlw	1
  3240     0709  1903               	skipnz
  3241     070A  2F0C               	goto	u2622
  3242     070B  07B1               	addwf	___flmul@prod+2,f
  3243     070C                     u2622:
  3244     070C  087C               	movf	??___flmul+3,w
  3245     070D  1103               	clrz
  3246     070E  1803               	skipnc
  3247     070F  3E01               	addlw	1
  3248     0710  1903               	skipnz
  3249     0711  2F13               	goto	u2623
  3250     0712  07B2               	addwf	___flmul@prod+3,f
  3251     0713                     u2623:
  3252     0713                     l1728:
  3253     0713  3008               	movlw	8
  3254     0714  00F9               	movwf	??___flmul
  3255     0715                     u2635:
  3256     0715  1003               	clrc
  3257     0716  0DA9               	rlf	___flmul@grs,f
  3258     0717  0DAA               	rlf	___flmul@grs+1,f
  3259     0718  0DAB               	rlf	___flmul@grs+2,f
  3260     0719  0DAC               	rlf	___flmul@grs+3,f
  3261     071A  0BF9               	decfsz	??___flmul,f
  3262     071B  2F15               	goto	u2635
  3263     071C                     l1730:
  3264     071C  082E               	movf	___flmul@bexp,w
  3265     071D  072D               	addwf	___flmul@aexp,w
  3266     071E  00F9               	movwf	??___flmul
  3267     071F  01FA               	clrf	??___flmul+1
  3268     0720  0DFA               	rlf	??___flmul+1,f
  3269     0721  0879               	movf	??___flmul,w
  3270     0722  3E82               	addlw	130
  3271     0723  00B3               	movwf	___flmul@temp
  3272     0724  087A               	movf	??___flmul+1,w
  3273     0725  1803               	skipnc
  3274     0726  3E01               	addlw	1
  3275     0727  3EFF               	addlw	255
  3276     0728  00B4               	movwf	___flmul@temp+1
  3277     0729  2F47               	goto	l1742
  3278     072A                     l1732:
  3279     072A  3001               	movlw	1
  3280     072B  00F9               	movwf	??___flmul
  3281     072C                     u2645:
  3282     072C  1003               	clrc
  3283     072D  0DAF               	rlf	___flmul@prod,f
  3284     072E  0DB0               	rlf	___flmul@prod+1,f
  3285     072F  0DB1               	rlf	___flmul@prod+2,f
  3286     0730  0DB2               	rlf	___flmul@prod+3,f
  3287     0731  0BF9               	decfsz	??___flmul,f
  3288     0732  2F2C               	goto	u2645
  3289     0733                     l1734:
  3290     0733  1FAC               	btfss	___flmul@grs+3,7
  3291     0734  2F36               	goto	u2651
  3292     0735  2F37               	goto	u2650
  3293     0736                     u2651:
  3294     0736  2F38               	goto	l1738
  3295     0737                     u2650:
  3296     0737                     l1736:
  3297     0737  142F               	bsf	___flmul@prod,0
  3298     0738                     l1738:
  3299     0738  3001               	movlw	1
  3300     0739  00F9               	movwf	??___flmul
  3301     073A                     u2665:
  3302     073A  1003               	clrc
  3303     073B  0DA9               	rlf	___flmul@grs,f
  3304     073C  0DAA               	rlf	___flmul@grs+1,f
  3305     073D  0DAB               	rlf	___flmul@grs+2,f
  3306     073E  0DAC               	rlf	___flmul@grs+3,f
  3307     073F  0BF9               	decfsz	??___flmul,f
  3308     0740  2F3A               	goto	u2665
  3309     0741                     l1740:
  3310     0741  30FF               	movlw	255
  3311     0742  07B3               	addwf	___flmul@temp,f
  3312     0743  1803               	skipnc
  3313     0744  0AB4               	incf	___flmul@temp+1,f
  3314     0745  30FF               	movlw	255
  3315     0746  07B4               	addwf	___flmul@temp+1,f
  3316     0747                     l1742:
  3317     0747  1FB1               	btfss	___flmul@prod+2,7
  3318     0748  2F4A               	goto	u2671
  3319     0749  2F4B               	goto	u2670
  3320     074A                     u2671:
  3321     074A  2F2A               	goto	l1732
  3322     074B                     u2670:
  3323     074B                     l1744:
  3324     074B  01AD               	clrf	___flmul@aexp
  3325     074C                     l1746:
  3326     074C  1FAC               	btfss	___flmul@grs+3,7
  3327     074D  2F4F               	goto	u2681
  3328     074E  2F50               	goto	u2680
  3329     074F                     u2681:
  3330     074F  2F6C               	goto	l1754
  3331     0750                     u2680:
  3332     0750                     l1748:
  3333     0750  30FF               	movlw	255
  3334     0751  0529               	andwf	___flmul@grs,w
  3335     0752  00F9               	movwf	??___flmul
  3336     0753  30FF               	movlw	255
  3337     0754  052A               	andwf	___flmul@grs+1,w
  3338     0755  00FA               	movwf	??___flmul+1
  3339     0756  30FF               	movlw	255
  3340     0757  052B               	andwf	___flmul@grs+2,w
  3341     0758  00FB               	movwf	??___flmul+2
  3342     0759  307F               	movlw	127
  3343     075A  052C               	andwf	___flmul@grs+3,w
  3344     075B  00FC               	movwf	??___flmul+3
  3345     075C  087C               	movf	??___flmul+3,w
  3346     075D  047B               	iorwf	??___flmul+2,w
  3347     075E  047A               	iorwf	??___flmul+1,w
  3348     075F  0479               	iorwf	??___flmul,w
  3349     0760  1903               	skipnz
  3350     0761  2F63               	goto	u2691
  3351     0762  2F64               	goto	u2690
  3352     0763                     u2691:
  3353     0763  2F67               	goto	l541
  3354     0764                     u2690:
  3355     0764                     l1750:
  3356     0764  01AD               	clrf	___flmul@aexp
  3357     0765  0AAD               	incf	___flmul@aexp,f
  3358     0766  2F6C               	goto	l1754
  3359     0767                     l541:
  3360     0767  1C2F               	btfss	___flmul@prod,0
  3361     0768  2F6A               	goto	u2701
  3362     0769  2F6B               	goto	u2700
  3363     076A                     u2701:
  3364     076A  2F6C               	goto	l1754
  3365     076B                     u2700:
  3366     076B  2F64               	goto	l1750
  3367     076C                     l1754:
  3368     076C  082D               	movf	___flmul@aexp,w
  3369     076D  1903               	btfsc	3,2
  3370     076E  2F70               	goto	u2711
  3371     076F  2F71               	goto	u2710
  3372     0770                     u2711:
  3373     0770  2FA2               	goto	l1764
  3374     0771                     u2710:
  3375     0771                     l1756:
  3376     0771  3001               	movlw	1
  3377     0772  07AF               	addwf	___flmul@prod,f
  3378     0773  3000               	movlw	0
  3379     0774  1803               	skipnc
  3380     0775  3001               	movlw	1
  3381     0776  07B0               	addwf	___flmul@prod+1,f
  3382     0777  3000               	movlw	0
  3383     0778  1803               	skipnc
  3384     0779  3001               	movlw	1
  3385     077A  07B1               	addwf	___flmul@prod+2,f
  3386     077B  3000               	movlw	0
  3387     077C  1803               	skipnc
  3388     077D  3001               	movlw	1
  3389     077E  07B2               	addwf	___flmul@prod+3,f
  3390     077F                     l1758:
  3391     077F  1C32               	btfss	___flmul@prod+3,0
  3392     0780  2F82               	goto	u2721
  3393     0781  2F83               	goto	u2720
  3394     0782                     u2721:
  3395     0782  2FA2               	goto	l1764
  3396     0783                     u2720:
  3397     0783                     l1760:
  3398     0783  082F               	movf	___flmul@prod,w
  3399     0784  00F9               	movwf	??___flmul
  3400     0785  0830               	movf	___flmul@prod+1,w
  3401     0786  00FA               	movwf	??___flmul+1
  3402     0787  0831               	movf	___flmul@prod+2,w
  3403     0788  00FB               	movwf	??___flmul+2
  3404     0789  0832               	movf	___flmul@prod+3,w
  3405     078A  00FC               	movwf	??___flmul+3
  3406     078B  3001               	movlw	1
  3407     078C  00FD               	movwf	??___flmul+4
  3408     078D                     u2735:
  3409     078D  0D7C               	rlf	??___flmul+3,w
  3410     078E  0CFC               	rrf	??___flmul+3,f
  3411     078F  0CFB               	rrf	??___flmul+2,f
  3412     0790  0CFA               	rrf	??___flmul+1,f
  3413     0791  0CF9               	rrf	??___flmul,f
  3414     0792                     u2730:
  3415     0792  0BFD               	decfsz	??___flmul+4,f
  3416     0793  2F8D               	goto	u2735
  3417     0794  087C               	movf	??___flmul+3,w
  3418     0795  00B2               	movwf	___flmul@prod+3
  3419     0796  087B               	movf	??___flmul+2,w
  3420     0797  00B1               	movwf	___flmul@prod+2
  3421     0798  087A               	movf	??___flmul+1,w
  3422     0799  00B0               	movwf	___flmul@prod+1
  3423     079A  0879               	movf	??___flmul,w
  3424     079B  00AF               	movwf	___flmul@prod
  3425     079C                     l1762:
  3426     079C  3001               	movlw	1
  3427     079D  07B3               	addwf	___flmul@temp,f
  3428     079E  1803               	skipnc
  3429     079F  0AB4               	incf	___flmul@temp+1,f
  3430     07A0  3000               	movlw	0
  3431     07A1  07B4               	addwf	___flmul@temp+1,f
  3432     07A2                     l1764:
  3433     07A2  0834               	movf	___flmul@temp+1,w
  3434     07A3  3A80               	xorlw	128
  3435     07A4  00FF               	movwf	btemp+1
  3436     07A5  3080               	movlw	128
  3437     07A6  027F               	subwf	btemp+1,w
  3438     07A7  1D03               	skipz
  3439     07A8  2FAB               	goto	u2745
  3440     07A9  30FF               	movlw	255
  3441     07AA  0233               	subwf	___flmul@temp,w
  3442     07AB                     u2745:
  3443     07AB  1C03               	skipc
  3444     07AC  2FAE               	goto	u2741
  3445     07AD  2FAF               	goto	u2740
  3446     07AE                     u2741:
  3447     07AE  2FBA               	goto	l1768
  3448     07AF                     u2740:
  3449     07AF                     l1766:
  3450     07AF  307F               	movlw	127
  3451     07B0  1283               	bcf	3,5	;RP0=0, select bank0
  3452     07B1  1303               	bcf	3,6	;RP1=0, select bank0
  3453     07B2  00B2               	movwf	___flmul@prod+3
  3454     07B3  3080               	movlw	128
  3455     07B4  00B1               	movwf	___flmul@prod+2
  3456     07B5  3000               	movlw	0
  3457     07B6  00B0               	movwf	___flmul@prod+1
  3458     07B7  3000               	movlw	0
  3459     07B8  00AF               	movwf	___flmul@prod
  3460     07B9  2FEB               	goto	l547
  3461     07BA                     l1768:
  3462     07BA  1283               	bcf	3,5	;RP0=0, select bank0
  3463     07BB  1303               	bcf	3,6	;RP1=0, select bank0
  3464     07BC  0834               	movf	___flmul@temp+1,w
  3465     07BD  3A80               	xorlw	128
  3466     07BE  00FF               	movwf	btemp+1
  3467     07BF  3080               	movlw	128
  3468     07C0  027F               	subwf	btemp+1,w
  3469     07C1  1D03               	skipz
  3470     07C2  2FC5               	goto	u2755
  3471     07C3  3001               	movlw	1
  3472     07C4  0233               	subwf	___flmul@temp,w
  3473     07C5                     u2755:
  3474     07C5  1803               	skipnc
  3475     07C6  2FC8               	goto	u2751
  3476     07C7  2FC9               	goto	u2750
  3477     07C8                     u2751:
  3478     07C8  2FD5               	goto	l1774
  3479     07C9                     u2750:
  3480     07C9                     l1770:
  3481     07C9  3000               	movlw	0
  3482     07CA  1283               	bcf	3,5	;RP0=0, select bank0
  3483     07CB  1303               	bcf	3,6	;RP1=0, select bank0
  3484     07CC  00B2               	movwf	___flmul@prod+3
  3485     07CD  3000               	movlw	0
  3486     07CE  00B1               	movwf	___flmul@prod+2
  3487     07CF  3000               	movlw	0
  3488     07D0  00B0               	movwf	___flmul@prod+1
  3489     07D1  3000               	movlw	0
  3490     07D2  00AF               	movwf	___flmul@prod
  3491     07D3                     l1772:
  3492     07D3  01A8               	clrf	___flmul@sign
  3493     07D4  2FEB               	goto	l547
  3494     07D5                     l1774:
  3495     07D5  1283               	bcf	3,5	;RP0=0, select bank0
  3496     07D6  1303               	bcf	3,6	;RP1=0, select bank0
  3497     07D7  0833               	movf	___flmul@temp,w
  3498     07D8  00AE               	movwf	___flmul@bexp
  3499     07D9  30FF               	movlw	255
  3500     07DA  05AF               	andwf	___flmul@prod,f
  3501     07DB  30FF               	movlw	255
  3502     07DC  05B0               	andwf	___flmul@prod+1,f
  3503     07DD  307F               	movlw	127
  3504     07DE  05B1               	andwf	___flmul@prod+2,f
  3505     07DF  3000               	movlw	0
  3506     07E0  05B2               	andwf	___flmul@prod+3,f
  3507     07E1                     l1776:
  3508     07E1  1C2E               	btfss	___flmul@bexp,0
  3509     07E2  2FE4               	goto	u2761
  3510     07E3  2FE5               	goto	u2760
  3511     07E4                     u2761:
  3512     07E4  2FE6               	goto	l1780
  3513     07E5                     u2760:
  3514     07E5                     l1778:
  3515     07E5  17B1               	bsf	___flmul@prod+2,7
  3516     07E6                     l1780:
  3517     07E6  082E               	movf	___flmul@bexp,w
  3518     07E7  00F9               	movwf	??___flmul
  3519     07E8  1003               	clrc
  3520     07E9  0C79               	rrf	??___flmul,w
  3521     07EA  00B2               	movwf	___flmul@prod+3
  3522     07EB                     l547:
  3523     07EB  0828               	movf	___flmul@sign,w
  3524     07EC  00F9               	movwf	??___flmul
  3525     07ED  0879               	movf	??___flmul,w
  3526     07EE  04B2               	iorwf	___flmul@prod+3,f
  3527     07EF                     l1782:
  3528     07EF  0832               	movf	___flmul@prod+3,w
  3529     07F0  00A3               	movwf	?___flmul+3
  3530     07F1  0831               	movf	___flmul@prod+2,w
  3531     07F2  00A2               	movwf	?___flmul+2
  3532     07F3  0830               	movf	___flmul@prod+1,w
  3533     07F4  00A1               	movwf	?___flmul+1
  3534     07F5  082F               	movf	___flmul@prod,w
  3535     07F6  00A0               	movwf	?___flmul
  3536     07F7                     l535:
  3537     07F7  0008               	return
  3538     07F8                     __end_of___flmul:
  3539                           
  3540                           	psect	text7
  3541     0C1E                     __ptext7:	
  3542 ;; *************** function __Umul8_16 *****************
  3543 ;; Defined at:
  3544 ;;		line 4 in file "/opt/microchip/xc8/v2.45/pic/sources/c99/common/Umul8_16.c"
  3545 ;; Parameters:    Size  Location     Type
  3546 ;;  multiplier      1    wreg     unsigned char 
  3547 ;;  multiplicand    1    0[COMMON] unsigned char 
  3548 ;; Auto vars:     Size  Location     Type
  3549 ;;  multiplier      1    8[COMMON] unsigned char 
  3550 ;;  word_mpld       2    6[COMMON] unsigned short 
  3551 ;;  product         2    4[COMMON] unsigned short 
  3552 ;; Return value:  Size  Location     Type
  3553 ;;                  2    0[COMMON] unsigned int 
  3554 ;; Registers used:
  3555 ;;		wreg, status,2, status,0
  3556 ;; Tracked objects:
  3557 ;;		On entry : 0/0
  3558 ;;		On exit  : 0/0
  3559 ;;		Unchanged: 0/0
  3560 ;; Data sizes:     COMMON   BANK0   BANK1   BANK3   BANK2
  3561 ;;      Params:         2       0       0       0       0
  3562 ;;      Locals:         5       0       0       0       0
  3563 ;;      Temps:          2       0       0       0       0
  3564 ;;      Totals:         9       0       0       0       0
  3565 ;;Total ram usage:        9 bytes
  3566 ;; Hardware stack levels used: 1
  3567 ;; This function calls:
  3568 ;;		Nothing
  3569 ;; This function is called by:
  3570 ;;		___flmul
  3571 ;; This function uses a non-reentrant model
  3572 ;;
  3573                           
  3574     0C1E                     __Umul8_16:	
  3575                           ;psect for function __Umul8_16
  3576                           
  3577                           
  3578                           ;incstack = 0
  3579                           ; Regs used in __Umul8_16: [wreg+status,2+status,0]
  3580                           ;__Umul8_16@multiplier stored from wreg
  3581     0C1E  00F8               	movwf	__Umul8_16@multiplier
  3582     0C1F                     l1260:
  3583     0C1F  01F4               	clrf	__Umul8_16@product
  3584     0C20  01F5               	clrf	__Umul8_16@product+1
  3585     0C21                     l1262:
  3586     0C21  0870               	movf	__Umul8_16@multiplicand,w
  3587     0C22  00F2               	movwf	??__Umul8_16
  3588     0C23  01F3               	clrf	??__Umul8_16+1
  3589     0C24  0872               	movf	??__Umul8_16,w
  3590     0C25  00F6               	movwf	__Umul8_16@word_mpld
  3591     0C26  0873               	movf	??__Umul8_16+1,w
  3592     0C27  00F7               	movwf	__Umul8_16@word_mpld+1
  3593     0C28                     l1264:
  3594     0C28  1C78               	btfss	__Umul8_16@multiplier,0
  3595     0C29  2C2B               	goto	u1521
  3596     0C2A  2C2C               	goto	u1520
  3597     0C2B                     u1521:
  3598     0C2B  2C32               	goto	l554
  3599     0C2C                     u1520:
  3600     0C2C                     l1266:
  3601     0C2C  0876               	movf	__Umul8_16@word_mpld,w
  3602     0C2D  07F4               	addwf	__Umul8_16@product,f
  3603     0C2E  1803               	skipnc
  3604     0C2F  0AF5               	incf	__Umul8_16@product+1,f
  3605     0C30  0877               	movf	__Umul8_16@word_mpld+1,w
  3606     0C31  07F5               	addwf	__Umul8_16@product+1,f
  3607     0C32                     l554:
  3608     0C32  3001               	movlw	1
  3609     0C33                     u1535:
  3610     0C33  1003               	clrc
  3611     0C34  0DF6               	rlf	__Umul8_16@word_mpld,f
  3612     0C35  0DF7               	rlf	__Umul8_16@word_mpld+1,f
  3613     0C36  3EFF               	addlw	-1
  3614     0C37  1D03               	skipz
  3615     0C38  2C33               	goto	u1535
  3616     0C39  1003               	clrc
  3617     0C3A  0CF8               	rrf	__Umul8_16@multiplier,f
  3618     0C3B                     l1268:
  3619     0C3B  0878               	movf	__Umul8_16@multiplier,w
  3620     0C3C  1D03               	btfss	3,2
  3621     0C3D  2C3F               	goto	u1541
  3622     0C3E  2C40               	goto	u1540
  3623     0C3F                     u1541:
  3624     0C3F  2C28               	goto	l1264
  3625     0C40                     u1540:
  3626     0C40                     l1270:
  3627     0C40  0875               	movf	__Umul8_16@product+1,w
  3628     0C41  00F1               	movwf	?__Umul8_16+1
  3629     0C42  0874               	movf	__Umul8_16@product,w
  3630     0C43  00F0               	movwf	?__Umul8_16
  3631     0C44                     l556:
  3632     0C44  0008               	return
  3633     0C45                     __end_of__Umul8_16:
  3634                           
  3635                           	psect	text8
  3636     0088                     __ptext8:	
  3637 ;; *************** function ___fldiv *****************
  3638 ;; Defined at:
  3639 ;;		line 8 in file "/opt/microchip/xc8/v2.45/pic/sources/c99/common/sprcdiv.c"
  3640 ;; Parameters:    Size  Location     Type
  3641 ;;  a               4   21[BANK0 ] unsigned int 
  3642 ;;  b               4   25[BANK0 ] unsigned int 
  3643 ;; Auto vars:     Size  Location     Type
  3644 ;;  grs             4   41[BANK0 ] unsigned long 
  3645 ;;  rem             4   34[BANK0 ] unsigned long 
  3646 ;;  new_exp         2   39[BANK0 ] short 
  3647 ;;  aexp            1   46[BANK0 ] unsigned char 
  3648 ;;  bexp            1   45[BANK0 ] unsigned char 
  3649 ;;  sign            1   38[BANK0 ] unsigned char 
  3650 ;; Return value:  Size  Location     Type
  3651 ;;                  4   21[BANK0 ] unsigned char 
  3652 ;; Registers used:
  3653 ;;		wreg, status,2, status,0, btemp+1
  3654 ;; Tracked objects:
  3655 ;;		On entry : 0/0
  3656 ;;		On exit  : 0/0
  3657 ;;		Unchanged: 0/0
  3658 ;; Data sizes:     COMMON   BANK0   BANK1   BANK3   BANK2
  3659 ;;      Params:         0       8       0       0       0
  3660 ;;      Locals:         0      13       0       0       0
  3661 ;;      Temps:          0       5       0       0       0
  3662 ;;      Totals:         0      26       0       0       0
  3663 ;;Total ram usage:       26 bytes
  3664 ;; Hardware stack levels used: 1
  3665 ;; This function calls:
  3666 ;;		Nothing
  3667 ;; This function is called by:
  3668 ;;		___set_pwm_freq
  3669 ;;		___set_duty_cycle
  3670 ;; This function uses a non-reentrant model
  3671 ;;
  3672                           
  3673     0088                     ___fldiv:	
  3674                           ;psect for function ___fldiv
  3675                           
  3676     0088                     l1504:	
  3677                           ;incstack = 0
  3678                           ; Regs used in ___fldiv: [wreg+status,2+status,0+btemp+1]
  3679                           
  3680     0088  1283               	bcf	3,5	;RP0=0, select bank0
  3681     0089  1303               	bcf	3,6	;RP1=0, select bank0
  3682     008A  083C               	movf	___fldiv@b+3,w
  3683     008B  3980               	andlw	128
  3684     008C  00C6               	movwf	___fldiv@sign
  3685     008D                     l1506:
  3686     008D  083C               	movf	___fldiv@b+3,w
  3687     008E  00BD               	movwf	??___fldiv
  3688     008F  073D               	addwf	??___fldiv,w
  3689     0090  00CD               	movwf	___fldiv@bexp
  3690     0091                     l1508:
  3691     0091  1FBB               	btfss	___fldiv@b+2,7
  3692     0092  2894               	goto	u2111
  3693     0093  2895               	goto	u2110
  3694     0094                     u2111:
  3695     0094  2896               	goto	l1512
  3696     0095                     u2110:
  3697     0095                     l1510:
  3698     0095  144D               	bsf	___fldiv@bexp,0
  3699     0096                     l1512:
  3700     0096  084D               	movf	___fldiv@bexp,w
  3701     0097  1903               	btfsc	3,2
  3702     0098  289A               	goto	u2121
  3703     0099  289B               	goto	u2120
  3704     009A                     u2121:
  3705     009A  28AB               	goto	l1522
  3706     009B                     u2120:
  3707     009B                     l1514:
  3708     009B  0A4D               	incf	___fldiv@bexp,w
  3709     009C  1D03               	btfss	3,2
  3710     009D  289F               	goto	u2131
  3711     009E  28A0               	goto	u2130
  3712     009F                     u2131:
  3713     009F  28A8               	goto	l1518
  3714     00A0                     u2130:
  3715     00A0                     l1516:
  3716     00A0  3000               	movlw	0
  3717     00A1  00BC               	movwf	___fldiv@b+3
  3718     00A2  3000               	movlw	0
  3719     00A3  00BB               	movwf	___fldiv@b+2
  3720     00A4  3000               	movlw	0
  3721     00A5  00BA               	movwf	___fldiv@b+1
  3722     00A6  3000               	movlw	0
  3723     00A7  00B9               	movwf	___fldiv@b
  3724     00A8                     l1518:
  3725     00A8  17BB               	bsf	___fldiv@b+2,7
  3726     00A9                     l1520:
  3727     00A9  01BC               	clrf	___fldiv@b+3
  3728     00AA  28B3               	goto	l1524
  3729     00AB                     l1522:
  3730     00AB  3000               	movlw	0
  3731     00AC  00BC               	movwf	___fldiv@b+3
  3732     00AD  3000               	movlw	0
  3733     00AE  00BB               	movwf	___fldiv@b+2
  3734     00AF  3000               	movlw	0
  3735     00B0  00BA               	movwf	___fldiv@b+1
  3736     00B1  3000               	movlw	0
  3737     00B2  00B9               	movwf	___fldiv@b
  3738     00B3                     l1524:
  3739     00B3  0838               	movf	___fldiv@a+3,w
  3740     00B4  3980               	andlw	128
  3741     00B5  00BD               	movwf	??___fldiv
  3742     00B6  083D               	movf	??___fldiv,w
  3743     00B7  06C6               	xorwf	___fldiv@sign,f
  3744     00B8                     l1526:
  3745     00B8  0838               	movf	___fldiv@a+3,w
  3746     00B9  00BD               	movwf	??___fldiv
  3747     00BA  073D               	addwf	??___fldiv,w
  3748     00BB  00CE               	movwf	___fldiv@aexp
  3749     00BC                     l1528:
  3750     00BC  1FB7               	btfss	___fldiv@a+2,7
  3751     00BD  28BF               	goto	u2141
  3752     00BE  28C0               	goto	u2140
  3753     00BF                     u2141:
  3754     00BF  28C1               	goto	l1532
  3755     00C0                     u2140:
  3756     00C0                     l1530:
  3757     00C0  144E               	bsf	___fldiv@aexp,0
  3758     00C1                     l1532:
  3759     00C1  084E               	movf	___fldiv@aexp,w
  3760     00C2  1903               	btfsc	3,2
  3761     00C3  28C5               	goto	u2151
  3762     00C4  28C6               	goto	u2150
  3763     00C5                     u2151:
  3764     00C5  28D6               	goto	l1542
  3765     00C6                     u2150:
  3766     00C6                     l1534:
  3767     00C6  0A4E               	incf	___fldiv@aexp,w
  3768     00C7  1D03               	btfss	3,2
  3769     00C8  28CA               	goto	u2161
  3770     00C9  28CB               	goto	u2160
  3771     00CA                     u2161:
  3772     00CA  28D3               	goto	l1538
  3773     00CB                     u2160:
  3774     00CB                     l1536:
  3775     00CB  3000               	movlw	0
  3776     00CC  00B8               	movwf	___fldiv@a+3
  3777     00CD  3000               	movlw	0
  3778     00CE  00B7               	movwf	___fldiv@a+2
  3779     00CF  3000               	movlw	0
  3780     00D0  00B6               	movwf	___fldiv@a+1
  3781     00D1  3000               	movlw	0
  3782     00D2  00B5               	movwf	___fldiv@a
  3783     00D3                     l1538:
  3784     00D3  17B7               	bsf	___fldiv@a+2,7
  3785     00D4                     l1540:
  3786     00D4  01B8               	clrf	___fldiv@a+3
  3787     00D5  28DE               	goto	l495
  3788     00D6                     l1542:
  3789     00D6  3000               	movlw	0
  3790     00D7  00B8               	movwf	___fldiv@a+3
  3791     00D8  3000               	movlw	0
  3792     00D9  00B7               	movwf	___fldiv@a+2
  3793     00DA  3000               	movlw	0
  3794     00DB  00B6               	movwf	___fldiv@a+1
  3795     00DC  3000               	movlw	0
  3796     00DD  00B5               	movwf	___fldiv@a
  3797     00DE                     l495:
  3798     00DE  0838               	movf	___fldiv@a+3,w
  3799     00DF  0437               	iorwf	___fldiv@a+2,w
  3800     00E0  0436               	iorwf	___fldiv@a+1,w
  3801     00E1  0435               	iorwf	___fldiv@a,w
  3802     00E2  1D03               	skipz
  3803     00E3  28E5               	goto	u2171
  3804     00E4  28E6               	goto	u2170
  3805     00E5                     u2171:
  3806     00E5  28FF               	goto	l1552
  3807     00E6                     u2170:
  3808     00E6                     l1544:
  3809     00E6  3000               	movlw	0
  3810     00E7  00BC               	movwf	___fldiv@b+3
  3811     00E8  3000               	movlw	0
  3812     00E9  00BB               	movwf	___fldiv@b+2
  3813     00EA  3000               	movlw	0
  3814     00EB  00BA               	movwf	___fldiv@b+1
  3815     00EC  3000               	movlw	0
  3816     00ED  00B9               	movwf	___fldiv@b
  3817     00EE  3080               	movlw	128
  3818     00EF  04BB               	iorwf	___fldiv@b+2,f
  3819     00F0  307F               	movlw	127
  3820     00F1  04BC               	iorwf	___fldiv@b+3,f
  3821     00F2                     l1546:
  3822     00F2  0846               	movf	___fldiv@sign,w
  3823     00F3  00BD               	movwf	??___fldiv
  3824     00F4  083D               	movf	??___fldiv,w
  3825     00F5  04BC               	iorwf	___fldiv@b+3,f
  3826     00F6                     l1548:
  3827     00F6  083C               	movf	___fldiv@b+3,w
  3828     00F7  00B8               	movwf	?___fldiv+3
  3829     00F8  083B               	movf	___fldiv@b+2,w
  3830     00F9  00B7               	movwf	?___fldiv+2
  3831     00FA  083A               	movf	___fldiv@b+1,w
  3832     00FB  00B6               	movwf	?___fldiv+1
  3833     00FC  0839               	movf	___fldiv@b,w
  3834     00FD  00B5               	movwf	?___fldiv
  3835     00FE  2A5A               	goto	l497
  3836     00FF                     l1552:
  3837     00FF  084D               	movf	___fldiv@bexp,w
  3838     0100  1D03               	btfss	3,2
  3839     0101  2903               	goto	u2181
  3840     0102  2904               	goto	u2180
  3841     0103                     u2181:
  3842     0103  290D               	goto	l1558
  3843     0104                     u2180:
  3844     0104                     l1554:
  3845     0104  3000               	movlw	0
  3846     0105  00B8               	movwf	?___fldiv+3
  3847     0106  3000               	movlw	0
  3848     0107  00B7               	movwf	?___fldiv+2
  3849     0108  3000               	movlw	0
  3850     0109  00B6               	movwf	?___fldiv+1
  3851     010A  3000               	movlw	0
  3852     010B  00B5               	movwf	?___fldiv
  3853     010C  2A5A               	goto	l497
  3854     010D                     l1558:
  3855     010D  084D               	movf	___fldiv@bexp,w
  3856     010E  00BD               	movwf	??___fldiv
  3857     010F  01BE               	clrf	??___fldiv+1
  3858     0110  083E               	movf	??___fldiv+1,w
  3859     0111  00C0               	movwf	??___fldiv+3
  3860     0112  084E               	movf	___fldiv@aexp,w
  3861     0113  023D               	subwf	??___fldiv,w
  3862     0114  00BF               	movwf	??___fldiv+2
  3863     0115  1C03               	skipc
  3864     0116  03C0               	decf	??___fldiv+3,f
  3865     0117  083F               	movf	??___fldiv+2,w
  3866     0118  3E7F               	addlw	127
  3867     0119  00C7               	movwf	___fldiv@new_exp
  3868     011A  0840               	movf	??___fldiv+3,w
  3869     011B  1803               	skipnc
  3870     011C  3E01               	addlw	1
  3871     011D  3E00               	addlw	0
  3872     011E  00C8               	movwf	___fldiv@new_exp+1
  3873     011F                     l1560:
  3874     011F  083C               	movf	___fldiv@b+3,w
  3875     0120  00C5               	movwf	___fldiv@rem+3
  3876     0121  083B               	movf	___fldiv@b+2,w
  3877     0122  00C4               	movwf	___fldiv@rem+2
  3878     0123  083A               	movf	___fldiv@b+1,w
  3879     0124  00C3               	movwf	___fldiv@rem+1
  3880     0125  0839               	movf	___fldiv@b,w
  3881     0126  00C2               	movwf	___fldiv@rem
  3882     0127                     l1562:
  3883     0127  3000               	movlw	0
  3884     0128  00BC               	movwf	___fldiv@b+3
  3885     0129  3000               	movlw	0
  3886     012A  00BB               	movwf	___fldiv@b+2
  3887     012B  3000               	movlw	0
  3888     012C  00BA               	movwf	___fldiv@b+1
  3889     012D  3000               	movlw	0
  3890     012E  00B9               	movwf	___fldiv@b
  3891     012F                     l1564:
  3892     012F  3000               	movlw	0
  3893     0130  00CC               	movwf	___fldiv@grs+3
  3894     0131  3000               	movlw	0
  3895     0132  00CB               	movwf	___fldiv@grs+2
  3896     0133  3000               	movlw	0
  3897     0134  00CA               	movwf	___fldiv@grs+1
  3898     0135  3000               	movlw	0
  3899     0136  00C9               	movwf	___fldiv@grs
  3900     0137                     l1566:
  3901     0137  01CE               	clrf	___fldiv@aexp
  3902     0138  2983               	goto	l1586
  3903     0139                     l1568:
  3904     0139  084E               	movf	___fldiv@aexp,w
  3905     013A  1903               	btfsc	3,2
  3906     013B  293D               	goto	u2191
  3907     013C  293E               	goto	u2190
  3908     013D                     u2191:
  3909     013D  295E               	goto	l1578
  3910     013E                     u2190:
  3911     013E                     l1570:
  3912     013E  3001               	movlw	1
  3913     013F  00BD               	movwf	??___fldiv
  3914     0140                     u2205:
  3915     0140  1003               	clrc
  3916     0141  0DC2               	rlf	___fldiv@rem,f
  3917     0142  0DC3               	rlf	___fldiv@rem+1,f
  3918     0143  0DC4               	rlf	___fldiv@rem+2,f
  3919     0144  0DC5               	rlf	___fldiv@rem+3,f
  3920     0145  0BBD               	decfsz	??___fldiv,f
  3921     0146  2940               	goto	u2205
  3922     0147  3001               	movlw	1
  3923     0148  00BD               	movwf	??___fldiv
  3924     0149                     u2215:
  3925     0149  1003               	clrc
  3926     014A  0DB9               	rlf	___fldiv@b,f
  3927     014B  0DBA               	rlf	___fldiv@b+1,f
  3928     014C  0DBB               	rlf	___fldiv@b+2,f
  3929     014D  0DBC               	rlf	___fldiv@b+3,f
  3930     014E  0BBD               	decfsz	??___fldiv,f
  3931     014F  2949               	goto	u2215
  3932     0150                     l1572:
  3933     0150  1FCC               	btfss	___fldiv@grs+3,7
  3934     0151  2953               	goto	u2221
  3935     0152  2954               	goto	u2220
  3936     0153                     u2221:
  3937     0153  2955               	goto	l1576
  3938     0154                     u2220:
  3939     0154                     l1574:
  3940     0154  1439               	bsf	___fldiv@b,0
  3941     0155                     l1576:
  3942     0155  3001               	movlw	1
  3943     0156  00BD               	movwf	??___fldiv
  3944     0157                     u2235:
  3945     0157  1003               	clrc
  3946     0158  0DC9               	rlf	___fldiv@grs,f
  3947     0159  0DCA               	rlf	___fldiv@grs+1,f
  3948     015A  0DCB               	rlf	___fldiv@grs+2,f
  3949     015B  0DCC               	rlf	___fldiv@grs+3,f
  3950     015C  0BBD               	decfsz	??___fldiv,f
  3951     015D  2957               	goto	u2235
  3952     015E                     l1578:
  3953     015E  0838               	movf	___fldiv@a+3,w
  3954     015F  0245               	subwf	___fldiv@rem+3,w
  3955     0160  1D03               	skipz
  3956     0161  296C               	goto	u2245
  3957     0162  0837               	movf	___fldiv@a+2,w
  3958     0163  0244               	subwf	___fldiv@rem+2,w
  3959     0164  1D03               	skipz
  3960     0165  296C               	goto	u2245
  3961     0166  0836               	movf	___fldiv@a+1,w
  3962     0167  0243               	subwf	___fldiv@rem+1,w
  3963     0168  1D03               	skipz
  3964     0169  296C               	goto	u2245
  3965     016A  0835               	movf	___fldiv@a,w
  3966     016B  0242               	subwf	___fldiv@rem,w
  3967     016C                     u2245:
  3968     016C  1C03               	skipc
  3969     016D  296F               	goto	u2241
  3970     016E  2970               	goto	u2240
  3971     016F                     u2241:
  3972     016F  297F               	goto	l1584
  3973     0170                     u2240:
  3974     0170                     l1580:
  3975     0170  174C               	bsf	___fldiv@grs+3,6
  3976     0171                     l1582:
  3977     0171  0835               	movf	___fldiv@a,w
  3978     0172  02C2               	subwf	___fldiv@rem,f
  3979     0173  0836               	movf	___fldiv@a+1,w
  3980     0174  1C03               	skipc
  3981     0175  0F36               	incfsz	___fldiv@a+1,w
  3982     0176  02C3               	subwf	___fldiv@rem+1,f
  3983     0177  0837               	movf	___fldiv@a+2,w
  3984     0178  1C03               	skipc
  3985     0179  0F37               	incfsz	___fldiv@a+2,w
  3986     017A  02C4               	subwf	___fldiv@rem+2,f
  3987     017B  0838               	movf	___fldiv@a+3,w
  3988     017C  1C03               	skipc
  3989     017D  0F38               	incfsz	___fldiv@a+3,w
  3990     017E  02C5               	subwf	___fldiv@rem+3,f
  3991     017F                     l1584:
  3992     017F  3001               	movlw	1
  3993     0180  00BD               	movwf	??___fldiv
  3994     0181  083D               	movf	??___fldiv,w
  3995     0182  07CE               	addwf	___fldiv@aexp,f
  3996     0183                     l1586:
  3997     0183  301A               	movlw	26
  3998     0184  024E               	subwf	___fldiv@aexp,w
  3999     0185  1C03               	skipc
  4000     0186  2988               	goto	u2251
  4001     0187  2989               	goto	u2250
  4002     0188                     u2251:
  4003     0188  2939               	goto	l1568
  4004     0189                     u2250:
  4005     0189                     l1588:
  4006     0189  0845               	movf	___fldiv@rem+3,w
  4007     018A  0444               	iorwf	___fldiv@rem+2,w
  4008     018B  0443               	iorwf	___fldiv@rem+1,w
  4009     018C  0442               	iorwf	___fldiv@rem,w
  4010     018D  1903               	skipnz
  4011     018E  2990               	goto	u2261
  4012     018F  2991               	goto	u2260
  4013     0190                     u2261:
  4014     0190  29B0               	goto	l1602
  4015     0191                     u2260:
  4016     0191                     l1590:
  4017     0191  1449               	bsf	___fldiv@grs,0
  4018     0192  29B0               	goto	l1602
  4019     0193                     l1592:
  4020     0193  3001               	movlw	1
  4021     0194  00BD               	movwf	??___fldiv
  4022     0195                     u2275:
  4023     0195  1003               	clrc
  4024     0196  0DB9               	rlf	___fldiv@b,f
  4025     0197  0DBA               	rlf	___fldiv@b+1,f
  4026     0198  0DBB               	rlf	___fldiv@b+2,f
  4027     0199  0DBC               	rlf	___fldiv@b+3,f
  4028     019A  0BBD               	decfsz	??___fldiv,f
  4029     019B  2995               	goto	u2275
  4030     019C                     l1594:
  4031     019C  1FCC               	btfss	___fldiv@grs+3,7
  4032     019D  299F               	goto	u2281
  4033     019E  29A0               	goto	u2280
  4034     019F                     u2281:
  4035     019F  29A1               	goto	l1598
  4036     01A0                     u2280:
  4037     01A0                     l1596:
  4038     01A0  1439               	bsf	___fldiv@b,0
  4039     01A1                     l1598:
  4040     01A1  3001               	movlw	1
  4041     01A2  00BD               	movwf	??___fldiv
  4042     01A3                     u2295:
  4043     01A3  1003               	clrc
  4044     01A4  0DC9               	rlf	___fldiv@grs,f
  4045     01A5  0DCA               	rlf	___fldiv@grs+1,f
  4046     01A6  0DCB               	rlf	___fldiv@grs+2,f
  4047     01A7  0DCC               	rlf	___fldiv@grs+3,f
  4048     01A8  0BBD               	decfsz	??___fldiv,f
  4049     01A9  29A3               	goto	u2295
  4050     01AA                     l1600:
  4051     01AA  30FF               	movlw	255
  4052     01AB  07C7               	addwf	___fldiv@new_exp,f
  4053     01AC  1803               	skipnc
  4054     01AD  0AC8               	incf	___fldiv@new_exp+1,f
  4055     01AE  30FF               	movlw	255
  4056     01AF  07C8               	addwf	___fldiv@new_exp+1,f
  4057     01B0                     l1602:
  4058     01B0  1FBB               	btfss	___fldiv@b+2,7
  4059     01B1  29B3               	goto	u2301
  4060     01B2  29B4               	goto	u2300
  4061     01B3                     u2301:
  4062     01B3  2993               	goto	l1592
  4063     01B4                     u2300:
  4064     01B4                     l1604:
  4065     01B4  01CE               	clrf	___fldiv@aexp
  4066     01B5                     l1606:
  4067     01B5  1FCC               	btfss	___fldiv@grs+3,7
  4068     01B6  29B8               	goto	u2311
  4069     01B7  29B9               	goto	u2310
  4070     01B8                     u2311:
  4071     01B8  29D5               	goto	l1614
  4072     01B9                     u2310:
  4073     01B9                     l1608:
  4074     01B9  30FF               	movlw	255
  4075     01BA  0549               	andwf	___fldiv@grs,w
  4076     01BB  00BD               	movwf	??___fldiv
  4077     01BC  30FF               	movlw	255
  4078     01BD  054A               	andwf	___fldiv@grs+1,w
  4079     01BE  00BE               	movwf	??___fldiv+1
  4080     01BF  30FF               	movlw	255
  4081     01C0  054B               	andwf	___fldiv@grs+2,w
  4082     01C1  00BF               	movwf	??___fldiv+2
  4083     01C2  307F               	movlw	127
  4084     01C3  054C               	andwf	___fldiv@grs+3,w
  4085     01C4  00C0               	movwf	??___fldiv+3
  4086     01C5  0840               	movf	??___fldiv+3,w
  4087     01C6  043F               	iorwf	??___fldiv+2,w
  4088     01C7  043E               	iorwf	??___fldiv+1,w
  4089     01C8  043D               	iorwf	??___fldiv,w
  4090     01C9  1903               	skipnz
  4091     01CA  29CC               	goto	u2321
  4092     01CB  29CD               	goto	u2320
  4093     01CC                     u2321:
  4094     01CC  29D0               	goto	l511
  4095     01CD                     u2320:
  4096     01CD                     l1610:
  4097     01CD  01CE               	clrf	___fldiv@aexp
  4098     01CE  0ACE               	incf	___fldiv@aexp,f
  4099     01CF  29D5               	goto	l1614
  4100     01D0                     l511:
  4101     01D0  1C39               	btfss	___fldiv@b,0
  4102     01D1  29D3               	goto	u2331
  4103     01D2  29D4               	goto	u2330
  4104     01D3                     u2331:
  4105     01D3  29D5               	goto	l1614
  4106     01D4                     u2330:
  4107     01D4  29CD               	goto	l1610
  4108     01D5                     l1614:
  4109     01D5  084E               	movf	___fldiv@aexp,w
  4110     01D6  1903               	btfsc	3,2
  4111     01D7  29D9               	goto	u2341
  4112     01D8  29DA               	goto	u2340
  4113     01D9                     u2341:
  4114     01D9  2A0B               	goto	l1624
  4115     01DA                     u2340:
  4116     01DA                     l1616:
  4117     01DA  3001               	movlw	1
  4118     01DB  07B9               	addwf	___fldiv@b,f
  4119     01DC  3000               	movlw	0
  4120     01DD  1803               	skipnc
  4121     01DE  3001               	movlw	1
  4122     01DF  07BA               	addwf	___fldiv@b+1,f
  4123     01E0  3000               	movlw	0
  4124     01E1  1803               	skipnc
  4125     01E2  3001               	movlw	1
  4126     01E3  07BB               	addwf	___fldiv@b+2,f
  4127     01E4  3000               	movlw	0
  4128     01E5  1803               	skipnc
  4129     01E6  3001               	movlw	1
  4130     01E7  07BC               	addwf	___fldiv@b+3,f
  4131     01E8                     l1618:
  4132     01E8  1C3C               	btfss	___fldiv@b+3,0
  4133     01E9  29EB               	goto	u2351
  4134     01EA  29EC               	goto	u2350
  4135     01EB                     u2351:
  4136     01EB  2A0B               	goto	l1624
  4137     01EC                     u2350:
  4138     01EC                     l1620:
  4139     01EC  0839               	movf	___fldiv@b,w
  4140     01ED  00BD               	movwf	??___fldiv
  4141     01EE  083A               	movf	___fldiv@b+1,w
  4142     01EF  00BE               	movwf	??___fldiv+1
  4143     01F0  083B               	movf	___fldiv@b+2,w
  4144     01F1  00BF               	movwf	??___fldiv+2
  4145     01F2  083C               	movf	___fldiv@b+3,w
  4146     01F3  00C0               	movwf	??___fldiv+3
  4147     01F4  3001               	movlw	1
  4148     01F5  00C1               	movwf	??___fldiv+4
  4149     01F6                     u2365:
  4150     01F6  0D40               	rlf	??___fldiv+3,w
  4151     01F7  0CC0               	rrf	??___fldiv+3,f
  4152     01F8  0CBF               	rrf	??___fldiv+2,f
  4153     01F9  0CBE               	rrf	??___fldiv+1,f
  4154     01FA  0CBD               	rrf	??___fldiv,f
  4155     01FB                     u2360:
  4156     01FB  0BC1               	decfsz	??___fldiv+4,f
  4157     01FC  29F6               	goto	u2365
  4158     01FD  0840               	movf	??___fldiv+3,w
  4159     01FE  00BC               	movwf	___fldiv@b+3
  4160     01FF  083F               	movf	??___fldiv+2,w
  4161     0200  00BB               	movwf	___fldiv@b+2
  4162     0201  083E               	movf	??___fldiv+1,w
  4163     0202  00BA               	movwf	___fldiv@b+1
  4164     0203  083D               	movf	??___fldiv,w
  4165     0204  00B9               	movwf	___fldiv@b
  4166     0205                     l1622:
  4167     0205  3001               	movlw	1
  4168     0206  07C7               	addwf	___fldiv@new_exp,f
  4169     0207  1803               	skipnc
  4170     0208  0AC8               	incf	___fldiv@new_exp+1,f
  4171     0209  3000               	movlw	0
  4172     020A  07C8               	addwf	___fldiv@new_exp+1,f
  4173     020B                     l1624:
  4174     020B  0848               	movf	___fldiv@new_exp+1,w
  4175     020C  3A80               	xorlw	128
  4176     020D  00FF               	movwf	btemp+1
  4177     020E  3080               	movlw	128
  4178     020F  027F               	subwf	btemp+1,w
  4179     0210  1D03               	skipz
  4180     0211  2A14               	goto	u2375
  4181     0212  30FF               	movlw	255
  4182     0213  0247               	subwf	___fldiv@new_exp,w
  4183     0214                     u2375:
  4184     0214  1C03               	skipc
  4185     0215  2A17               	goto	u2371
  4186     0216  2A18               	goto	u2370
  4187     0217                     u2371:
  4188     0217  2A26               	goto	l1628
  4189     0218                     u2370:
  4190     0218                     l1626:
  4191     0218  30FF               	movlw	255
  4192     0219  1283               	bcf	3,5	;RP0=0, select bank0
  4193     021A  1303               	bcf	3,6	;RP1=0, select bank0
  4194     021B  00C7               	movwf	___fldiv@new_exp
  4195     021C  3000               	movlw	0
  4196     021D  00C8               	movwf	___fldiv@new_exp+1
  4197     021E  3000               	movlw	0
  4198     021F  00BC               	movwf	___fldiv@b+3
  4199     0220  3000               	movlw	0
  4200     0221  00BB               	movwf	___fldiv@b+2
  4201     0222  3000               	movlw	0
  4202     0223  00BA               	movwf	___fldiv@b+1
  4203     0224  3000               	movlw	0
  4204     0225  00B9               	movwf	___fldiv@b
  4205     0226                     l1628:
  4206     0226  1283               	bcf	3,5	;RP0=0, select bank0
  4207     0227  1303               	bcf	3,6	;RP1=0, select bank0
  4208     0228  0848               	movf	___fldiv@new_exp+1,w
  4209     0229  3A80               	xorlw	128
  4210     022A  00FF               	movwf	btemp+1
  4211     022B  3080               	movlw	128
  4212     022C  027F               	subwf	btemp+1,w
  4213     022D  1D03               	skipz
  4214     022E  2A31               	goto	u2385
  4215     022F  3001               	movlw	1
  4216     0230  0247               	subwf	___fldiv@new_exp,w
  4217     0231                     u2385:
  4218     0231  1803               	skipnc
  4219     0232  2A34               	goto	u2381
  4220     0233  2A35               	goto	u2380
  4221     0234                     u2381:
  4222     0234  2A42               	goto	l517
  4223     0235                     u2380:
  4224     0235                     l1630:
  4225     0235  1283               	bcf	3,5	;RP0=0, select bank0
  4226     0236  1303               	bcf	3,6	;RP1=0, select bank0
  4227     0237  01C7               	clrf	___fldiv@new_exp
  4228     0238  01C8               	clrf	___fldiv@new_exp+1
  4229     0239                     l1632:
  4230     0239  3000               	movlw	0
  4231     023A  00BC               	movwf	___fldiv@b+3
  4232     023B  3000               	movlw	0
  4233     023C  00BB               	movwf	___fldiv@b+2
  4234     023D  3000               	movlw	0
  4235     023E  00BA               	movwf	___fldiv@b+1
  4236     023F  3000               	movlw	0
  4237     0240  00B9               	movwf	___fldiv@b
  4238     0241                     l1634:
  4239     0241  01C6               	clrf	___fldiv@sign
  4240     0242                     l517:
  4241     0242  1283               	bcf	3,5	;RP0=0, select bank0
  4242     0243  1303               	bcf	3,6	;RP1=0, select bank0
  4243     0244  0847               	movf	___fldiv@new_exp,w
  4244     0245  00CD               	movwf	___fldiv@bexp
  4245     0246                     l1636:
  4246     0246  1C4D               	btfss	___fldiv@bexp,0
  4247     0247  2A49               	goto	u2391
  4248     0248  2A4A               	goto	u2390
  4249     0249                     u2391:
  4250     0249  2A4C               	goto	l1640
  4251     024A                     u2390:
  4252     024A                     l1638:
  4253     024A  17BB               	bsf	___fldiv@b+2,7
  4254     024B  2A50               	goto	l519
  4255     024C                     l1640:
  4256     024C  307F               	movlw	127
  4257     024D  00BD               	movwf	??___fldiv
  4258     024E  083D               	movf	??___fldiv,w
  4259     024F  05BB               	andwf	___fldiv@b+2,f
  4260     0250                     l519:
  4261     0250  084D               	movf	___fldiv@bexp,w
  4262     0251  00BD               	movwf	??___fldiv
  4263     0252  1003               	clrc
  4264     0253  0C3D               	rrf	??___fldiv,w
  4265     0254  00BC               	movwf	___fldiv@b+3
  4266     0255  0846               	movf	___fldiv@sign,w
  4267     0256  00BD               	movwf	??___fldiv
  4268     0257  083D               	movf	??___fldiv,w
  4269     0258  04BC               	iorwf	___fldiv@b+3,f
  4270     0259  28F6               	goto	l1548
  4271     025A                     l497:
  4272     025A  0008               	return
  4273     025B                     __end_of___fldiv:
  4274                           
  4275                           	psect	text9
  4276     0C0F                     __ptext9:	
  4277 ;; *************** function ___init_pwm *****************
  4278 ;; Defined at:
  4279 ;;		line 69 in file "main.c"
  4280 ;; Parameters:    Size  Location     Type
  4281 ;;		None
  4282 ;; Auto vars:     Size  Location     Type
  4283 ;;		None
  4284 ;; Return value:  Size  Location     Type
  4285 ;;                  1    wreg      void 
  4286 ;; Registers used:
  4287 ;;		wreg, status,2, status,0
  4288 ;; Tracked objects:
  4289 ;;		On entry : 0/0
  4290 ;;		On exit  : 0/0
  4291 ;;		Unchanged: 0/0
  4292 ;; Data sizes:     COMMON   BANK0   BANK1   BANK3   BANK2
  4293 ;;      Params:         0       0       0       0       0
  4294 ;;      Locals:         0       0       0       0       0
  4295 ;;      Temps:          0       0       0       0       0
  4296 ;;      Totals:         0       0       0       0       0
  4297 ;;Total ram usage:        0 bytes
  4298 ;; Hardware stack levels used: 1
  4299 ;; This function calls:
  4300 ;;		Nothing
  4301 ;; This function is called by:
  4302 ;;		_main
  4303 ;; This function uses a non-reentrant model
  4304 ;;
  4305                           
  4306     0C0F                     ___init_pwm:	
  4307                           ;psect for function ___init_pwm
  4308                           
  4309     0C0F                     l1858:	
  4310                           ;incstack = 0
  4311                           ; Regs used in ___init_pwm: [wreg+status,2+status,0]
  4312                           
  4313                           
  4314                           ;main.c: 70:     TRISCbits.TRISC2 = 0;
  4315     0C0F  1683               	bsf	3,5	;RP0=1, select bank1
  4316     0C10  1303               	bcf	3,6	;RP1=0, select bank1
  4317     0C11  1107               	bcf	7,2	;volatile
  4318                           
  4319                           ;main.c: 71:     T2CONbits.TMR2ON = 1;
  4320     0C12  1283               	bcf	3,5	;RP0=0, select bank0
  4321     0C13  1303               	bcf	3,6	;RP1=0, select bank0
  4322     0C14  1512               	bsf	18,2	;volatile
  4323     0C15                     l1860:
  4324                           
  4325                           ;main.c: 72:     T2CONbits.T2CKPS = 0b10;
  4326     0C15  0812               	movf	18,w	;volatile
  4327     0C16  39FC               	andlw	-4
  4328     0C17  3802               	iorlw	2
  4329     0C18  0092               	movwf	18	;volatile
  4330                           
  4331                           ;main.c: 73:     CCP1CONbits.CCP1M = 0b1100;
  4332     0C19  0817               	movf	23,w	;volatile
  4333     0C1A  39F0               	andlw	-16
  4334     0C1B  380C               	iorlw	12
  4335     0C1C  0097               	movwf	23	;volatile
  4336     0C1D                     l41:
  4337     0C1D  0008               	return
  4338     0C1E                     __end_of___init_pwm:
  4339                           
  4340                           	psect	text10
  4341     0C01                     __ptext10:	
  4342 ;; *************** function ___init_adc *****************
  4343 ;; Defined at:
  4344 ;;		line 19 in file "main.c"
  4345 ;; Parameters:    Size  Location     Type
  4346 ;;		None
  4347 ;; Auto vars:     Size  Location     Type
  4348 ;;		None
  4349 ;; Return value:  Size  Location     Type
  4350 ;;                  1    wreg      void 
  4351 ;; Registers used:
  4352 ;;		wreg, status,2, status,0
  4353 ;; Tracked objects:
  4354 ;;		On entry : 0/0
  4355 ;;		On exit  : 0/0
  4356 ;;		Unchanged: 0/0
  4357 ;; Data sizes:     COMMON   BANK0   BANK1   BANK3   BANK2
  4358 ;;      Params:         0       0       0       0       0
  4359 ;;      Locals:         0       0       0       0       0
  4360 ;;      Temps:          0       0       0       0       0
  4361 ;;      Totals:         0       0       0       0       0
  4362 ;;Total ram usage:        0 bytes
  4363 ;; Hardware stack levels used: 1
  4364 ;; This function calls:
  4365 ;;		Nothing
  4366 ;; This function is called by:
  4367 ;;		_main
  4368 ;; This function uses a non-reentrant model
  4369 ;;
  4370                           
  4371     0C01                     ___init_adc:	
  4372                           ;psect for function ___init_adc
  4373                           
  4374     0C01                     l1830:	
  4375                           ;incstack = 0
  4376                           ; Regs used in ___init_adc: [wreg+status,2+status,0]
  4377                           
  4378                           
  4379                           ;main.c: 29:     ADCON0bits.ADCS = 0b00;
  4380     0C01  303F               	movlw	-193
  4381     0C02  1283               	bcf	3,5	;RP0=0, select bank0
  4382     0C03  1303               	bcf	3,6	;RP1=0, select bank0
  4383     0C04  059F               	andwf	31,f	;volatile
  4384                           
  4385                           ;main.c: 30:     ADCON0bits.CHS = 0b000;
  4386     0C05  30C7               	movlw	-57
  4387     0C06  059F               	andwf	31,f	;volatile
  4388     0C07                     l1832:
  4389                           
  4390                           ;main.c: 31:     ADCON0bits.ADON = 0;
  4391     0C07  101F               	bcf	31,0	;volatile
  4392     0C08                     l1834:
  4393                           
  4394                           ;main.c: 42:     ADCON1bits.ADFM = 1;
  4395     0C08  1683               	bsf	3,5	;RP0=1, select bank1
  4396     0C09  1303               	bcf	3,6	;RP1=0, select bank1
  4397     0C0A  179F               	bsf	31,7	;volatile
  4398     0C0B                     l1836:
  4399                           
  4400                           ;main.c: 43:     ADCON1bits.ADCS2 = 0;
  4401     0C0B  131F               	bcf	31,6	;volatile
  4402                           
  4403                           ;main.c: 44:     ADCON1bits.PCFG = 0b0000;
  4404     0C0C  30F0               	movlw	-16
  4405     0C0D  059F               	andwf	31,f	;volatile
  4406     0C0E                     l29:
  4407     0C0E  0008               	return
  4408     0C0F                     __end_of___init_adc:
  4409                           
  4410                           	psect	text11
  4411     0C6D                     __ptext11:	
  4412 ;; *************** function ___awdiv *****************
  4413 ;; Defined at:
  4414 ;;		line 5 in file "/opt/microchip/xc8/v2.45/pic/sources/c99/common/awdiv.c"
  4415 ;; Parameters:    Size  Location     Type
  4416 ;;  divisor         2    0[BANK1 ] int 
  4417 ;;  dividend        2    2[BANK1 ] int 
  4418 ;; Auto vars:     Size  Location     Type
  4419 ;;  quotient        2    6[BANK1 ] int 
  4420 ;;  sign            1    5[BANK1 ] unsigned char 
  4421 ;;  counter         1    4[BANK1 ] unsigned char 
  4422 ;; Return value:  Size  Location     Type
  4423 ;;                  2    0[BANK1 ] int 
  4424 ;; Registers used:
  4425 ;;		wreg, status,2, status,0
  4426 ;; Tracked objects:
  4427 ;;		On entry : 0/0
  4428 ;;		On exit  : 0/0
  4429 ;;		Unchanged: 0/0
  4430 ;; Data sizes:     COMMON   BANK0   BANK1   BANK3   BANK2
  4431 ;;      Params:         0       0       4       0       0
  4432 ;;      Locals:         0       0       4       0       0
  4433 ;;      Temps:          0       1       0       0       0
  4434 ;;      Totals:         0       1       8       0       0
  4435 ;;Total ram usage:        9 bytes
  4436 ;; Hardware stack levels used: 1
  4437 ;; This function calls:
  4438 ;;		Nothing
  4439 ;; This function is called by:
  4440 ;;		_main
  4441 ;; This function uses a non-reentrant model
  4442 ;;
  4443                           
  4444     0C6D                     ___awdiv:	
  4445                           ;psect for function ___awdiv
  4446                           
  4447     0C6D                     l1870:	
  4448                           ;incstack = 0
  4449                           ; Regs used in ___awdiv: [wreg+status,2+status,0]
  4450                           
  4451     0C6D  1683               	bsf	3,5	;RP0=1, select bank1
  4452     0C6E  1303               	bcf	3,6	;RP1=0, select bank1
  4453     0C6F  01A5               	clrf	___awdiv@sign^(0+128)
  4454     0C70                     l1872:
  4455     0C70  1FA1               	btfss	(___awdiv@divisor+1)^(0+128),7
  4456     0C71  2C73               	goto	u2931
  4457     0C72  2C74               	goto	u2930
  4458     0C73                     u2931:
  4459     0C73  2C7B               	goto	l1878
  4460     0C74                     u2930:
  4461     0C74                     l1874:
  4462     0C74  09A0               	comf	___awdiv@divisor^(0+128),f
  4463     0C75  09A1               	comf	(___awdiv@divisor+1)^(0+128),f
  4464     0C76  0AA0               	incf	___awdiv@divisor^(0+128),f
  4465     0C77  1903               	skipnz
  4466     0C78  0AA1               	incf	(___awdiv@divisor+1)^(0+128),f
  4467     0C79                     l1876:
  4468     0C79  01A5               	clrf	___awdiv@sign^(0+128)
  4469     0C7A  0AA5               	incf	___awdiv@sign^(0+128),f
  4470     0C7B                     l1878:
  4471     0C7B  1FA3               	btfss	(___awdiv@dividend+1)^(0+128),7
  4472     0C7C  2C7E               	goto	u2941
  4473     0C7D  2C7F               	goto	u2940
  4474     0C7E                     u2941:
  4475     0C7E  2C8C               	goto	l1884
  4476     0C7F                     u2940:
  4477     0C7F                     l1880:
  4478     0C7F  09A2               	comf	___awdiv@dividend^(0+128),f
  4479     0C80  09A3               	comf	(___awdiv@dividend+1)^(0+128),f
  4480     0C81  0AA2               	incf	___awdiv@dividend^(0+128),f
  4481     0C82  1903               	skipnz
  4482     0C83  0AA3               	incf	(___awdiv@dividend+1)^(0+128),f
  4483     0C84                     l1882:
  4484     0C84  3001               	movlw	1
  4485     0C85  1283               	bcf	3,5	;RP0=0, select bank0
  4486     0C86  1303               	bcf	3,6	;RP1=0, select bank0
  4487     0C87  00ED               	movwf	??___awdiv
  4488     0C88  086D               	movf	??___awdiv,w
  4489     0C89  1683               	bsf	3,5	;RP0=1, select bank1
  4490     0C8A  1303               	bcf	3,6	;RP1=0, select bank1
  4491     0C8B  06A5               	xorwf	___awdiv@sign^(0+128),f
  4492     0C8C                     l1884:
  4493     0C8C  01A6               	clrf	___awdiv@quotient^(0+128)
  4494     0C8D  01A7               	clrf	(___awdiv@quotient+1)^(0+128)
  4495     0C8E                     l1886:
  4496     0C8E  0820               	movf	___awdiv@divisor^(0+128),w
  4497     0C8F  0421               	iorwf	(___awdiv@divisor+1)^(0+128),w
  4498     0C90  1903               	btfsc	3,2
  4499     0C91  2C93               	goto	u2951
  4500     0C92  2C94               	goto	u2950
  4501     0C93                     u2951:
  4502     0C93  2CCF               	goto	l1906
  4503     0C94                     u2950:
  4504     0C94                     l1888:
  4505     0C94  01A4               	clrf	___awdiv@counter^(0+128)
  4506     0C95  0AA4               	incf	___awdiv@counter^(0+128),f
  4507     0C96  2CA6               	goto	l1894
  4508     0C97                     l1890:
  4509     0C97  3001               	movlw	1
  4510     0C98                     u2965:
  4511     0C98  1003               	clrc
  4512     0C99  0DA0               	rlf	___awdiv@divisor^(0+128),f
  4513     0C9A  0DA1               	rlf	(___awdiv@divisor+1)^(0+128),f
  4514     0C9B  3EFF               	addlw	-1
  4515     0C9C  1D03               	skipz
  4516     0C9D  2C98               	goto	u2965
  4517     0C9E                     l1892:
  4518     0C9E  3001               	movlw	1
  4519     0C9F  1283               	bcf	3,5	;RP0=0, select bank0
  4520     0CA0  1303               	bcf	3,6	;RP1=0, select bank0
  4521     0CA1  00ED               	movwf	??___awdiv
  4522     0CA2  086D               	movf	??___awdiv,w
  4523     0CA3  1683               	bsf	3,5	;RP0=1, select bank1
  4524     0CA4  1303               	bcf	3,6	;RP1=0, select bank1
  4525     0CA5  07A4               	addwf	___awdiv@counter^(0+128),f
  4526     0CA6                     l1894:
  4527     0CA6  1FA1               	btfss	(___awdiv@divisor+1)^(0+128),7
  4528     0CA7  2CA9               	goto	u2971
  4529     0CA8  2CAA               	goto	u2970
  4530     0CA9                     u2971:
  4531     0CA9  2C97               	goto	l1890
  4532     0CAA                     u2970:
  4533     0CAA                     l1896:
  4534     0CAA  3001               	movlw	1
  4535     0CAB                     u2985:
  4536     0CAB  1003               	clrc
  4537     0CAC  0DA6               	rlf	___awdiv@quotient^(0+128),f
  4538     0CAD  0DA7               	rlf	(___awdiv@quotient+1)^(0+128),f
  4539     0CAE  3EFF               	addlw	-1
  4540     0CAF  1D03               	skipz
  4541     0CB0  2CAB               	goto	u2985
  4542     0CB1  0821               	movf	(___awdiv@divisor+1)^(0+128),w
  4543     0CB2  0223               	subwf	(___awdiv@dividend+1)^(0+128),w
  4544     0CB3  1D03               	skipz
  4545     0CB4  2CB7               	goto	u2995
  4546     0CB5  0820               	movf	___awdiv@divisor^(0+128),w
  4547     0CB6  0222               	subwf	___awdiv@dividend^(0+128),w
  4548     0CB7                     u2995:
  4549     0CB7  1C03               	skipc
  4550     0CB8  2CBA               	goto	u2991
  4551     0CB9  2CBB               	goto	u2990
  4552     0CBA                     u2991:
  4553     0CBA  2CC2               	goto	l1902
  4554     0CBB                     u2990:
  4555     0CBB                     l1898:
  4556     0CBB  0820               	movf	___awdiv@divisor^(0+128),w
  4557     0CBC  02A2               	subwf	___awdiv@dividend^(0+128),f
  4558     0CBD  0821               	movf	(___awdiv@divisor+1)^(0+128),w
  4559     0CBE  1C03               	skipc
  4560     0CBF  03A3               	decf	(___awdiv@dividend+1)^(0+128),f
  4561     0CC0  02A3               	subwf	(___awdiv@dividend+1)^(0+128),f
  4562     0CC1                     l1900:
  4563     0CC1  1426               	bsf	___awdiv@quotient^(0+128),0
  4564     0CC2                     l1902:
  4565     0CC2  3001               	movlw	1
  4566     0CC3                     u3005:
  4567     0CC3  1003               	clrc
  4568     0CC4  0CA1               	rrf	(___awdiv@divisor+1)^(0+128),f
  4569     0CC5  0CA0               	rrf	___awdiv@divisor^(0+128),f
  4570     0CC6  3EFF               	addlw	-1
  4571     0CC7  1D03               	skipz
  4572     0CC8  2CC3               	goto	u3005
  4573     0CC9                     l1904:
  4574     0CC9  3001               	movlw	1
  4575     0CCA  02A4               	subwf	___awdiv@counter^(0+128),f
  4576     0CCB  1D03               	btfss	3,2
  4577     0CCC  2CCE               	goto	u3011
  4578     0CCD  2CCF               	goto	u3010
  4579     0CCE                     u3011:
  4580     0CCE  2CAA               	goto	l1896
  4581     0CCF                     u3010:
  4582     0CCF                     l1906:
  4583     0CCF  0825               	movf	___awdiv@sign^(0+128),w
  4584     0CD0  1903               	btfsc	3,2
  4585     0CD1  2CD3               	goto	u3021
  4586     0CD2  2CD4               	goto	u3020
  4587     0CD3                     u3021:
  4588     0CD3  2CD9               	goto	l1910
  4589     0CD4                     u3020:
  4590     0CD4                     l1908:
  4591     0CD4  09A6               	comf	___awdiv@quotient^(0+128),f
  4592     0CD5  09A7               	comf	(___awdiv@quotient+1)^(0+128),f
  4593     0CD6  0AA6               	incf	___awdiv@quotient^(0+128),f
  4594     0CD7  1903               	skipnz
  4595     0CD8  0AA7               	incf	(___awdiv@quotient+1)^(0+128),f
  4596     0CD9                     l1910:
  4597     0CD9  0827               	movf	(___awdiv@quotient+1)^(0+128),w
  4598     0CDA  00A1               	movwf	(?___awdiv+1)^(0+128)
  4599     0CDB  0826               	movf	___awdiv@quotient^(0+128),w
  4600     0CDC  00A0               	movwf	?___awdiv^(0+128)
  4601     0CDD                     l291:
  4602     0CDD  0008               	return
  4603     0CDE                     __end_of___awdiv:
  4604                           
  4605                           	psect	text12
  4606     0C45                     __ptext12:	
  4607 ;; *************** function ___adc_read *****************
  4608 ;; Defined at:
  4609 ;;		line 47 in file "main.c"
  4610 ;; Parameters:    Size  Location     Type
  4611 ;;  adc_channel     2    0[COMMON] int 
  4612 ;; Auto vars:     Size  Location     Type
  4613 ;;  adc_value       2    4[COMMON] int 
  4614 ;; Return value:  Size  Location     Type
  4615 ;;                  2    0[COMMON] int 
  4616 ;; Registers used:
  4617 ;;		wreg, status,2, status,0
  4618 ;; Tracked objects:
  4619 ;;		On entry : 0/0
  4620 ;;		On exit  : 0/0
  4621 ;;		Unchanged: 0/0
  4622 ;; Data sizes:     COMMON   BANK0   BANK1   BANK3   BANK2
  4623 ;;      Params:         2       0       0       0       0
  4624 ;;      Locals:         2       0       0       0       0
  4625 ;;      Temps:          2       0       0       0       0
  4626 ;;      Totals:         6       0       0       0       0
  4627 ;;Total ram usage:        6 bytes
  4628 ;; Hardware stack levels used: 1
  4629 ;; This function calls:
  4630 ;;		Nothing
  4631 ;; This function is called by:
  4632 ;;		_main
  4633 ;; This function uses a non-reentrant model
  4634 ;;
  4635                           
  4636     0C45                     ___adc_read:	
  4637                           ;psect for function ___adc_read
  4638                           
  4639     0C45                     l1838:	
  4640                           ;incstack = 0
  4641                           ; Regs used in ___adc_read: [wreg+status,2+status,0]
  4642                           
  4643                           
  4644                           ;main.c: 48:     ADCON0bits.ADON = 1;
  4645     0C45  1283               	bcf	3,5	;RP0=0, select bank0
  4646     0C46  1303               	bcf	3,6	;RP1=0, select bank0
  4647     0C47  141F               	bsf	31,0	;volatile
  4648     0C48                     l1840:
  4649                           
  4650                           ;main.c: 49:     ADCON0bits.CHS = (unsigned char) adc_channel;
  4651     0C48  0870               	movf	___adc_read@adc_channel,w
  4652     0C49  00F2               	movwf	??___adc_read
  4653     0C4A  0DF2               	rlf	??___adc_read,f
  4654     0C4B  0DF2               	rlf	??___adc_read,f
  4655     0C4C  0DF2               	rlf	??___adc_read,f
  4656     0C4D  081F               	movf	31,w	;volatile
  4657     0C4E  0672               	xorwf	??___adc_read,w
  4658     0C4F  39C7               	andlw	-57
  4659     0C50  0672               	xorwf	??___adc_read,w
  4660     0C51  009F               	movwf	31	;volatile
  4661     0C52                     l1842:
  4662                           
  4663                           ;main.c: 50:     _delay((unsigned long)((10)*(16000000/4000.0)));
  4664     0C52  3034               	movlw	52
  4665     0C53  00F3               	movwf	??___adc_read+1
  4666     0C54  30F1               	movlw	241
  4667     0C55  00F2               	movwf	??___adc_read
  4668     0C56                     u3037:
  4669     0C56  0BF2               	decfsz	??___adc_read,f
  4670     0C57  2C56               	goto	u3037
  4671     0C58  0BF3               	decfsz	??___adc_read+1,f
  4672     0C59  2C56               	goto	u3037
  4673     0C5A  2C5B               	nop2
  4674     0C5B                     l1844:
  4675                           
  4676                           ;main.c: 51:     ADCON0bits.GO = 1;
  4677     0C5B  1283               	bcf	3,5	;RP0=0, select bank0
  4678     0C5C  1303               	bcf	3,6	;RP1=0, select bank0
  4679     0C5D  151F               	bsf	31,2	;volatile
  4680     0C5E                     l32:	
  4681                           ;main.c: 54:     }
  4682                           
  4683                           
  4684                           ;main.c: 52:     while (ADCON0bits.GO_DONE == 1) {
  4685     0C5E  191F               	btfsc	31,2	;volatile
  4686     0C5F  2C61               	goto	u2911
  4687     0C60  2C62               	goto	u2910
  4688     0C61                     u2911:
  4689     0C61  2C5E               	goto	l32
  4690     0C62                     u2910:
  4691     0C62                     l1846:
  4692                           
  4693                           ;main.c: 55:     int adc_value = (ADRESH << 8) + (ADRESL);
  4694     0C62  081E               	movf	30,w	;volatile
  4695     0C63  00F5               	movwf	___adc_read@adc_value+1
  4696     0C64  1683               	bsf	3,5	;RP0=1, select bank1
  4697     0C65  1303               	bcf	3,6	;RP1=0, select bank1
  4698     0C66  081E               	movf	30,w	;volatile
  4699     0C67  00F4               	movwf	___adc_read@adc_value
  4700                           
  4701                           ;main.c: 56:     return adc_value;
  4702     0C68  0875               	movf	___adc_read@adc_value+1,w
  4703     0C69  00F1               	movwf	?___adc_read+1
  4704     0C6A  0874               	movf	___adc_read@adc_value,w
  4705     0C6B  00F0               	movwf	?___adc_read
  4706     0C6C                     l35:
  4707     0C6C  0008               	return
  4708     0C6D                     __end_of___adc_read:
  4709     007E                     btemp	set	126	;btemp
  4710     007E                     wtemp0	set	126
  4711                           
  4712                           	psect	idloc
  4713                           
  4714                           ;Config register IDLOC0 @ 0x2000
  4715                           ;	unspecified, using default values
  4716     2000                     	org	8192
  4717     2000  3FFF               	dw	16383
  4718                           
  4719                           ;Config register IDLOC1 @ 0x2001
  4720                           ;	unspecified, using default values
  4721     2001                     	org	8193
  4722     2001  3FFF               	dw	16383
  4723                           
  4724                           ;Config register IDLOC2 @ 0x2002
  4725                           ;	unspecified, using default values
  4726     2002                     	org	8194
  4727     2002  3FFF               	dw	16383
  4728                           
  4729                           ;Config register IDLOC3 @ 0x2003
  4730                           ;	unspecified, using default values
  4731     2003                     	org	8195
  4732     2003  3FFF               	dw	16383
  4733                           
  4734                           	psect	config
  4735                           
  4736                           ;Config register CONFIG @ 0x2007
  4737                           ;	Oscillator Selection bits
  4738                           ;	FOSC = HS, HS oscillator
  4739                           ;	Watchdog Timer Enable bit
  4740                           ;	WDTE = OFF, WDT disabled
  4741                           ;	Power-up Timer Enable bit
  4742                           ;	PWRTE = OFF, PWRT disabled
  4743                           ;	Brown-out Reset Enable bit
  4744                           ;	BOREN = ON, BOR enabled
  4745                           ;	Low-Voltage (Single-Supply) In-Circuit Serial Programming Enable bit
  4746                           ;	LVP = OFF, RB3 is digital I/O, HV on MCLR must be used for programming
  4747                           ;	Data EEPROM Memory Code Protection bit
  4748                           ;	CPD = OFF, Data EEPROM code protection off
  4749                           ;	Flash Program Memory Write Enable bits
  4750                           ;	WRT = OFF, Write protection off; all program memory may be written to by EECON control
  4751                           ;	In-Circuit Debugger Mode bit
  4752                           ;	DEBUG = 0x1, unprogrammed default
  4753                           ;	Flash Program Memory Code Protection bit
  4754                           ;	CP = OFF, Code protection off
  4755     2007                     	org	8199
  4756     2007  3F7A               	dw	16250

Data Sizes:
    Strings     0
    Constant    0
    Data        0
    BSS         2
    Persistent  8
    Stack       0

Auto Spaces:
    Space          Size  Autos    Used
    COMMON           14     14      14
    BANK0            80     80      80
    BANK1            80     15      25
    BANK3            96      0       0
    BANK2            96      0       0

Pointer List with Targets:

    None.

Critical Paths under _main in COMMON

    _main->___flmul
    _main->___xxtofl
    ___set_pwm_freq->___flmul
    ___set_pwm_freq->___xxtofl
    ___fladd->___flmul
    ___set_duty_cycle->___flmul
    ___set_duty_cycle->___xxtofl
    ___xxtofl->___adc_read
    ___fltol->___flmul
    ___flmul->__Umul8_16
    ___fldiv->___flmul
    ___fldiv->___xxtofl
    ___awdiv->___flmul

Critical Paths under _main in BANK0

    _main->___set_duty_cycle
    ___set_pwm_freq->___fltol
    ___fladd->___fldiv
    ___set_duty_cycle->___fltol
    ___fltol->___fladd
    ___fldiv->___flmul
    ___awdiv->___fltol

Critical Paths under _main in BANK1

    _main->___set_duty_cycle

Critical Paths under _main in BANK3

    None.

Critical Paths under _main in BANK2

    None.

Call Graph Tables:

 ---------------------------------------------------------------------------------
 (Depth) Function   	        Calls       Base Space   Used Autos Params    Refs
 ---------------------------------------------------------------------------------
 (0) _main                                                 6     6      0   18387
                                              9 BANK1      6     6      0
                         ___adc_read
                            ___awdiv
                            ___flmul
                            ___fltol
                         ___init_adc
                         ___init_pwm
                   ___set_duty_cycle
                     ___set_pwm_freq
                           ___xxtofl
 ---------------------------------------------------------------------------------
 (1) ___set_pwm_freq                                       4     2      2    7992
                                             77 BANK0      2     0      2
                                              0 BANK1      2     2      0
                            ___fladd
                            ___fldiv
                            ___flmul
                            ___fltol
                           ___xxtofl
 ---------------------------------------------------------------------------------
 (2) ___fladd                                             20    12      8    2262
                                             47 BANK0     20    12      8
                            ___fldiv (ARG)
                            ___flmul (ARG)
 ---------------------------------------------------------------------------------
 (1) ___set_duty_cycle                                    12    10      2    5896
                                             77 BANK0      3     1      2
                                              0 BANK1      9     9      0
                            ___fldiv
                            ___flmul
                            ___fltol
                           ___xxtofl
 ---------------------------------------------------------------------------------
 (1) ___xxtofl                                            14    10      4     550
                                              6 COMMON     8     4      4
                                              0 BANK0      6     6      0
                         ___adc_read (ARG)
 ---------------------------------------------------------------------------------
 (2) ___fltol                                             10     6      4     457
                                             67 BANK0     10     6      4
                            ___fladd (ARG)
                            ___fldiv (ARG)
                            ___flmul (ARG)
 ---------------------------------------------------------------------------------
 (2) ___flmul                                             26    18      8    2873
                                              9 COMMON     5     5      0
                                              0 BANK0     21    13      8
                          __Umul8_16
 ---------------------------------------------------------------------------------
 (3) __Umul8_16                                            9     7      2     799
                                              0 COMMON     9     7      2
 ---------------------------------------------------------------------------------
 (2) ___fldiv                                             26    18      8    1729
                                             21 BANK0     26    18      8
                            ___flmul (ARG)
                           ___xxtofl (ARG)
 ---------------------------------------------------------------------------------
 (1) ___init_pwm                                           0     0      0       0
 ---------------------------------------------------------------------------------
 (1) ___init_adc                                           0     0      0       0
 ---------------------------------------------------------------------------------
 (1) ___awdiv                                              9     5      4     452
                                             77 BANK0      1     1      0
                                              0 BANK1      8     4      4
                            ___flmul (ARG)
                            ___fltol (ARG)
 ---------------------------------------------------------------------------------
 (1) ___adc_read                                           6     4      2     121
                                              0 COMMON     6     4      2
 ---------------------------------------------------------------------------------
 Estimated maximum stack depth 3
 ---------------------------------------------------------------------------------

 Call Graph Graphs:

 _main (ROOT)
   ___adc_read
   ___awdiv
     ___flmul (ARG)
       __Umul8_16
     ___fltol (ARG)
       ___fladd (ARG)
         ___fldiv (ARG)
           ___flmul (ARG)
           ___xxtofl (ARG)
             ___adc_read (ARG)
         ___flmul (ARG)
       ___fldiv (ARG)
       ___flmul (ARG)
   ___flmul
   ___fltol
   ___init_adc
   ___init_pwm
   ___set_duty_cycle
     ___fldiv
     ___flmul
     ___fltol
     ___xxtofl
   ___set_pwm_freq
     ___fladd
     ___fldiv
     ___flmul
     ___fltol
     ___xxtofl
   ___xxtofl

 Address spaces:
Name               Size   Autos  Total    Cost      Usage
BITCOMMON            E      0       0       0        0.0%
EEDATA             100      0       0       0        0.0%
NULL                 0      0       0       0        0.0%
CODE                 0      0       0       0        0.0%
COMMON               E      E       E       1      100.0%
BITSFR0              0      0       0       1        0.0%
SFR0                 0      0       0       1        0.0%
BITSFR1              0      0       0       2        0.0%
SFR1                 0      0       0       2        0.0%
STACK                0      0       0       2        0.0%
ABS                  0      0      77       3        0.0%
BITBANK0            50      0       0       4        0.0%
BITSFR3              0      0       0       4        0.0%
SFR3                 0      0       0       4        0.0%
BANK0               50     50      50       5      100.0%
BITSFR2              0      0       0       5        0.0%
SFR2                 0      0       0       5        0.0%
BITBANK1            50      0       0       6        0.0%
BANK1               50      F      19       7       31.2%
BITBANK3            60      0       0       8        0.0%
BANK3               60      0       0       9        0.0%
BITBANK2            60      0       0      10        0.0%
BANK2               60      0       0      11        0.0%
DATA                 0      0      77      12        0.0%


Microchip Technology PIC Macro Assembler V2.45 build 20230818022343 
Symbol Table                                                                                   Wed Oct 18 15:27:06 2023

   ___set_pwm_freq@PR2_value 00A0                 ___fldiv@aexp 004E                 ___fldiv@bexp 004D  
               ___fldiv@sign 0046                           l32 0C5E                           l41 0C1D  
                         l35 0C6C                           l44 0FFF                           l29 0C0E  
                         l38 0EFD                           l49 0CFD                 ___awdiv@sign 00A5  
        __Umul8_16@word_mpld 0076          ___set_duty_cycle@dc 00A0                          l332 0087  
                        l342 0087                          l511 01D0                          l291 0CDD  
                        l339 0072                          l443 0339                          l460 0402  
                        l452 04B2                          l517 0242                          l541 0767  
                        l445 0312                          l470 0448                          l519 0250  
                        l535 07F7                          l439 02B6                          l464 0426  
                        l481 04A8                          l473 0486                          l554 0C32  
                        l482 04B2                          l547 07EB                          l556 0C44  
                        l581 0E38                          l495 00DE                          l592 0E02  
                        l497 025A                          l593 0E0E                          l585 0DE6  
                        l579 0DA3                          _PR2 0092                 ___flmul@aexp 002D  
               ___flmul@bexp 002E                 ___flmul@sign 0028                 ___flmul@temp 0033  
               ___flmul@prod 002F                 ___fltol@exp1 006C                         l1310 025B  
                       l1304 0067                         l1400 0323                         l1320 026E  
                       l1312 0260                         l1306 0077                         l1410 0342  
                       l1402 0324                         l1330 0286                         l1322 0273  
                       l1314 0264                         l1260 0C1F                         l1308 007C  
                       l1500 04AD                         l1420 036A                         l1404 032D  
                       l1340 0298                         l1332 0289                         l1324 027B  
                       l1316 0268                         l1510 0095                         l1270 0C40  
                       l1262 0C21                         l1502 04B1                         l1430 0381  
                       l1422 0371                         l1414 034B                         l1406 0331  
                       l1350 02AC                         l1342 0299                         l1334 028F  
                       l1326 027C                         l1318 0269                         l1600 01AA  
                       l1520 00A9                         l1512 0096                         l1504 0088  
                       l1264 0C28                         l1280 0024                         l1440 03E5  
                       l1424 0373                         l1416 0362                         l1408 033D  
                       l1432 0386                         l1360 02C6                         l1344 029E  
                       l1352 02AE                         l1336 0290                         l1328 027E  
                       l1610 01CD                         l1602 01B0                         l1530 00C0  
                       l1514 009B                         l1522 00AB                         l1506 008D  
                       l1266 0C2C                         l1290 0046                         l1282 0037  
                       l1274 0010                         l1450 0418                         l1434 039C  
                       l1442 03F4                         l1426 0377                         l1418 0366  
                       l1370 02D0                         l1362 02C8                         l1354 02BC  
                       l1346 02A3                         l1338 0294                         l1620 01EC  
                       l1604 01B4                         l1540 00D4                         l1532 00C1  
                       l1524 00B3                         l1516 00A0                         l1508 0091  
                       l1268 0C3B                         l1700 0596                         l1284 0038  
                       l1276 001B                         l1460 042F                         l1452 0421  
                       l1444 040A                         l1436 03DA                         l1428 0378  
                       l1380 02DA                         l1372 02D2                         l1364 02CA  
                       l1356 02C0                         l1348 02AB                         l1630 0235  
                       l1622 0205                         l1614 01D5                         l1606 01B5  
                       l1534 00C6                         l1542 00D6                         l1526 00B8  
                       l1518 00A8                         l1710 0602                         l1702 05B2  
                       l1286 0040                         l1470 043F                         l1462 0434  
                       l1454 0425                         l1446 040F                         l1438 03E0  
                       l1390 02E3                         l1382 02DC                         l1374 02D4  
                       l1366 02CC                         l1358 02C4                         l1640 024C  
                       l1632 0239                         l1616 01DA                         l1624 020B  
                       l1608 01B9                         l1560 011F                         l1544 00E6  
                       l1552 00FF                         l1536 00CB                         l1528 00BC  
                       l1720 068C                         l1712 0610                         l1704 05CE  
                       l1296 004E                         l1288 0042                         l1800 0DB7  
                       l1480 0460                         l1472 0445                         l1456 042A  
                       l1464 0436                         l1392 02FA                         l1384 02DE  
                       l1376 02D6                         l1368 02CE                         l1634 0241  
                       l1626 0218                         l1618 01E8                         l1570 013E  
                       l1562 0127                         l1554 0104                         l1546 00F2  
                       l1538 00D3                         l1730 071C                         l1722 069A  
                       l1714 062D                         l1706 05D7                         l1650 04BC  
                       l1298 0060                         l1810 0DED                         l1802 0DC4  
                       l1490 0498                         l1482 0464                         l1458 042D  
                       l1466 043A                         l1394 0316                         l1386 02E0  
                       l1378 02D8                         l1900 0CC1                         l1636 0246  
                       l1628 0226                         l1580 0170                         l1572 0150  
                       l1564 012F                         l1548 00F6                         l1740 0741  
                       l1732 072A                         l1724 06C5                         l1716 0644  
                       l1708 05E5                         l1660 04D3                         l1652 04C0  
                       l1820 0E26                         l1812 0DF8                         l1804 0DCB  
                       l1492 049D                         l1484 0482                         l1476 044D  
                       l1468 043B                         l1396 031D                         l1388 02E2  
                       l1910 0CD9                         l1902 0CC2                         l1830 0C01  
                       l1638 024A                         l1590 0191                         l1582 0171  
                       l1574 0154                         l1566 0137                         l1558 010D  
                       l1750 0764                         l1734 0733                         l1742 0747  
                       l1726 06EB                         l1718 0661                         l1670 04EA  
                       l1662 04D5                         l1654 04C1                         l1646 04B3  
                       l1822 0E2B                         l1814 0DFC                         l1806 0DCF  
                       l1494 049E                         l1486 048B                         l1478 0452  
                       l1398 031F                         l1840 0C48                         l1904 0CC9  
                       l1832 0C07                         l1592 0193                         l1584 017F  
                       l1576 0155                         l1568 0139                         l1760 0783  
                       l1744 074B                         l1736 0737                         l1728 0713  
                       l1680 04FF                         l1672 04EB                         l1664 04DD  
                       l1656 04C6                         l1648 04B8                         l1824 0E2F  
                       l1816 0E06                         l1808 0DDD                         l1496 04A2  
                       l1488 0490                         l1920 0D1F                         l1842 0C52  
                       l1906 0CCF                         l1834 0C08                         l1594 019C  
                       l1578 015E                         l1586 0183                         l1770 07C9  
                       l1762 079C                         l1754 076C                         l1746 074C  
                       l1738 0738                         l1690 051A                         l1682 0507  
                       l1674 04F0                         l1666 04E2                         l1658 04CB  
                       l1826 0E30                         l1818 0E10                         l1498 04A4  
                       l1850 0E39                         l1922 0D6C                         l1914 0CDE  
                       l1844 0C5B                         l1908 0CD4                         l1836 0C0B  
                       l1860 0C15                         l1596 01A0                         l1588 0189  
                       l1780 07E6                         l1772 07D3                         l1756 0771  
                       l1764 07A2                         l1748 0750                         l1692 0528  
                       l1684 050C                         l1676 04F5                         l1668 04E6  
                       l1852 0E54                         l1916 0CE9                         l1846 0C62  
                       l1838 0C45                         l1870 0C6D                         l1598 01A1  
                       l1782 07EF                         l1774 07D5                         l1766 07AF  
                       l1758 077F                         l1694 0535                         l1686 0511  
                       l1678 04FD                         l1790 0D8B                         l1862 0EFE  
                       l1854 0E8F                         l1918 0CEE                         l1880 0C7F  
                       l1872 0C70                         l1776 07E1                         l1768 07BA  
                       l1696 0550                         l1792 0D9B                         l1864 0FD8  
                       l1856 0EFB                         l1890 0C97                         l1882 0C84  
                       l1874 0C74                         l1858 0C0F                         l1778 07E5  
                       l1698 056C                         l1794 0DAB                         l1786 0D82  
                       l1866 0FE4                         l1892 0C9E                         l1884 0C8C  
                       l1876 0C79                         l1788 0D87                         l1868 0FF2  
                       l1894 0CA6                         l1886 0C8E                         l1878 0C7B  
                       l1798 0DB4                         l1896 0CAA                         l1888 0C94  
                       l1898 0CBB                         u2000 0445                         u2001 0444  
                       u2010 044C                         u2011 044B                         u2100 04B1  
                       u2020 0452                         u2101 04B0                         u2021 0451  
                       u2110 0095                         u2030 0464                         u2111 0094  
                       u2031 0463                         u2120 009B                         u2040 0473  
                       u2121 009A                         u3010 0CCF                         u2130 00A0  
                       u2050 0482                         u3011 0CCE                         u2131 009F  
                       u2051 0481                         u3020 0CD4                         u2300 01B4  
                       u2220 0154                         u2140 00C0                         u2060 048B  
                       u3021 0CD3                         u3005 0CC3                         u2301 01B3  
                       u2221 0153                         u2205 0140                         u2141 00BF  
                       u2061 048A                         u2045 046E                         u2310 01B9  
                       u2150 00C6                         u2070 0490                         u2311 01B8  
                       u2215 0149                         u2151 00C5                         u2071 048F  
                       u2320 01CD                         u2240 0170                         u2160 00CB  
                       u1520 0C2C                         u2400 04C0                         u1600 005F  
                       u2080 049D                         u2321 01CC                         u2241 016F  
                       u2161 00CA                         u1521 0C2B                         u2401 04BF  
                       u1601 005E                         u2081 049C                         u2330 01D4  
                       u2250 0189                         u2170 00E6                         u2410 04C6  
                       u1610 0066                         u2090 04A2                         u2331 01D3  
                       u2251 0188                         u2235 0157                         u2171 00E5  
                       u2411 04C5                         u1611 0065                         u2091 04A1  
                       u2340 01DA                         u2260 0191                         u2180 0104  
                       u1540 0C40                         u2420 04CB                         u1700 029E  
                       u3037 0C56                         u2341 01D9                         u2261 0190  
                       u2245 016C                         u2181 0103                         u1541 0C3F  
                       u2501 05A4                         u2421 04CA                         u1701 029D  
                       u2350 01EC                         u2190 013E                         u2502 05AB  
                       u2430 04EA                         u1630 0077                         u1550 001B  
                       u1710 02A3                         u2351 01EB                         u2191 013D  
                       u1535 0C33                         u2511 05C0                         u2503 05B2  
                       u2431 04E9                         u1631 0076                         u1551 001A  
                       u1711 02A2                         u2360 01FB                         u2280 01A0  
                       u2512 05C7                         u2440 04F0                         u1640 007C  
                       u1560 0032                         u1800 0339                         u1720 02BC  
                       u2281 019F                         u2601 06DD                         u2513 05CE  
                       u2441 04EF                         u1641 007B                         u1625 0069  
                       u1801 0338                         u1721 02BB                         u2370 0218  
                       u2610 06F9                         u2602 06E4                         u2450 04F5  
                       u1570 0046                         u1810 033D                         u1730 02C0  
                       u1650 0268                         u2371 0217                         u2275 0195  
                       u2603 06EB                         u2531 05F4                         u2451 04F4  
                       u1571 0045                         u1811 033C                         u1731 02BF  
                       u1651 0267                         u2380 0235                         u2700 076B  
                       u2532 05FB                         u2460 050C                         u1580 004D  
                       u1900 03C7                         u1820 0342                         u1740 02FA  
                       u1660 026E                         u2381 0234                         u2365 01F6  
                       u2701 076A                         u2621 0705                         u2541 061F  
                       u2533 0602                         u2525 05D0                         u2461 050B  
                       u1581 004C                         u1565 002D                         u1901 03C8  
                       u1821 0341                         u1741 02F9                         u1661 026D  
                       u2390 024A                         u2710 0771                         u2622 070C  
                       u2542 0626                         u2470 0511                         u1910 03E5  
                       u1902 03CD                         u1750 0305                         u1670 0273  
                       u2391 0249                         u2375 0214                         u2295 01A3  
                       u2711 0770                         u2623 0713                         u2615 06F4  
                       u2543 062D                         u2471 0510                         u1911 03E4  
                       u1903 03CE                         u1831 0354                         u1751 0303  
                       u1671 0272                         u2720 0783                         u1920 040A  
                       u1840 0366                         u1832 035B                         u1760 0306  
                       u1680 028F                         u2385 0231                         u2721 0782  
                       u2561 0653                         u2481 055E                         u1921 0409  
                       u1841 0365                         u1833 0362                         u1745 02F6  
                       u1681 028E                         u2730 0792                         u2650 0737  
                       u2562 065A                         u2482 0565                         u2810 0DCA  
                       u1930 040F                         u1850 036A                         u1770 0316  
                       u1690 0298                         u2651 0736                         u2635 0715  
                       u2571 067E                         u2563 0661                         u2555 062F  
                       u2491 057A                         u2483 056C                         u1595 004F  
                       u2811 0DC9                         u1931 040E                         u1851 0369  
                       u1771 0315                         u1691 0297                         u2740 07AF  
                       u2572 0685                         u2492 0581                         u2900 0E2F  
                       u1860 0377                         u1780 0323                         u2741 07AE  
                       u2645 072C                         u2581 06A9                         u2573 068C  
                       u2493 0588                         u2901 0E2E                         u2805 0DBC  
                       u1861 0376                         u1781 0322                         u2910 0C62  
                       u2750 07C9                         u2670 074B                         u2590 06D1  
                       u2582 06B0                         u2830 0DEC                         u1950 0425  
                       u2911 0C61                         u2751 07C8                         u2735 078D  
                       u2671 074A                         u2583 06B7                         u2831 0DEB  
                       u1951 0424                         u2760 07E5                         u2680 0750  
                       u1960 042A                         u1880 039C                         u2761 07E4  
                       u2745 07AB                         u2681 074F                         u2665 073A  
                       u2825 0DDE                         u1961 0429                         u1945 041A  
                       u1881 039B                         u2930 0C74                         u2690 0764  
                       u2850 0DFC                         u2770 0D87                         u1970 0434  
                       u2931 0C73                         u2755 07C5                         u2691 0763  
                       u2595 06CC                         u2851 0DFB                         u2771 0D86  
                       u1971 0433                         u1891 03B3                         u1883 0398  
                       u1875 037A                         u1795 0326                         u2940 0C7F  
                       u2860 0E02                         u2780 0D8B                         u1980 043A  
                       u1892 03B4                         u2941 0C7E                         u2861 0E01  
                       u2845 0DF1                         u2781 0D8A                         u2925 0FDD  
                       u1981 0439                         u1893 03B9                         u2950 0C94  
                       u2870 0E06                         u2790 0DAB                         u1990 043F  
                       u1894 03BA                         u2951 0C93                         u2871 0E05  
                       u2791 0DAA                         u1991 043E                         u1895 03BF  
                       u2880 0E1B                         u1896 03C0                         u2970 0CAA  
                       u2890 0E2B                         u2971 0CA9                         u2891 0E2A  
                       u2965 0C98                         u2885 0E16                         u2990 0CBB  
                       u2991 0CBA                         u2985 0CAB                         u2995 0CB7  
                       _main 0CDE                         btemp 007E                         start 0000  
            ___fldiv@new_exp 0047                ___fltol@sign1 006B              __end_of___fladd 04B3  
                      ?_main 0070              __end_of___fldiv 025B              __end_of___awdiv 0CDE  
            __end_of___flmul 07F8              __end_of___fltol 0088              ___awdiv@divisor 00A0  
            ___awdiv@counter 00A4     __end_of___set_duty_cycle 1000                        status 0003  
                      wtemp0 007E                main@adc_value 00A9              __initialization 07F8  
               __end_of_main 0D7F                       ??_main 007E                       _ADRESH 001E  
                     _ADRESL 009E                       _CCPR1L 0015             ___awdiv@dividend 00A2  
           __end_of___xxtofl 0E39                    ??___fladd 0057                    ??___fldiv 003D  
                  ??___awdiv 006D                    ??___flmul 0079                    ??___fltol 0067  
           ___awdiv@quotient 00A6                   ___adc_read 0C45                main@pwm_value 00AD  
       ___adc_read@adc_value 0074                 ___xxtofl@arg 0022                 ___xxtofl@exp 0021  
               ___xxtofl@val 0076      __end_of__initialization 07FC   ___set_duty_cycle@dc_period 00A4  
                 ___fltol@f1 0063                   ___init_adc 0C01                   ___init_pwm 0C0F  
             __pcstackCOMMON 0070                   __pbssBANK1 00B7   ___set_duty_cycle@reg_value 00A8  
          __end_of__Umul8_16 0C45                   __pmaintext 0CDE                    ?___xxtofl 0076  
                ?___adc_read 0070            ?___set_duty_cycle 006D           ??___set_duty_cycle 006F  
                ?___init_adc 0070                  ?___init_pwm 0070                      ___fladd 025B  
                    ___fldiv 0088                      ___awdiv 0C6D                      ___flmul 04B3  
                    ___fltol 0010                      __ptext1 0E39                      __ptext2 025B  
                    __ptext3 0EFE                      __ptext4 0D7F                      __ptext5 0010  
                    __ptext6 04B3                      __ptext7 0C1E                      __ptext8 0088  
                    __ptext9 0C0F                      _counter 00B7                    _T2CONbits 0012  
                 ??___xxtofl 007A         end_of_initialization 07FC               ___set_pwm_freq 0E39  
                ___fladd@grs 0062                ___xxtofl@sign 0020                    _TRISCbits 0087  
                ___fldiv@grs 0049                  ___fldiv@rem 0042                  ___flmul@grs 0029  
                _CCP1CONbits 0017       __end_of___set_pwm_freq 0EFE          start_initialization 07F8  
                  __Umul8_16 0C1E              ?___set_pwm_freq 006D                    ___fladd@a 0053  
                  ___fladd@b 004F                    ___fldiv@a 0035                    ___fldiv@b 0039  
                  ___flmul@a 0024                    ___flmul@b 0020                 ??___adc_read 0072  
                  ___latbits 0002                __pcstackBANK0 0020                __pcstackBANK1 00A0  
___set_duty_cycle@duty_cycle 006D                    __pnvBANK1 00AF                 ??___init_adc 0070  
               ??___init_pwm 0070           __end_of___adc_read 0C6D                     ?___fladd 004F  
                   ?___fldiv 0035                     ?___awdiv 00A0                     ?___flmul 0020  
                   ?___fltol 0063                   ?__Umul8_16 0070           __end_of___init_adc 0C0F  
         __end_of___init_pwm 0C1E                     _PWM_FREQ 00B3                   _ADCON0bits 001F  
                 _ADCON1bits 009F                  ??__Umul8_16 0072                     ___xxtofl 0D7F  
                   __ptext10 0C01                     __ptext11 0C6D                     __ptext12 0C45  
           ??___set_pwm_freq 007E             ___set_duty_cycle 0EFE             ___set_pwm_freq@f 006D  
     __Umul8_16@multiplicand 0070       ___adc_read@adc_channel 0070                ___fladd@signs 005F  
               ___fladd@aexp 0060                 ___fladd@bexp 0061         __Umul8_16@multiplier 0078  
                 _PWM_PERIOD 00AF            __Umul8_16@product 0074  
