Microchip MPLAB XC8 Compiler V2.45

Linker command line:

-W-3 --edf=/opt/microchip/xc8/v2.45/pic/dat/20230818022343_en.msgs -cn \
  -h+dist/default/debug/LCD_Display.debug.sym \
  --cmf=dist/default/debug/LCD_Display.debug.cmf -z -Q16F877A \
  -o/tmp/xcXlLaIMB/driver_tmp_3.o --defsym=__MPLAB_BUILD=1 \
  --fixupoverflow=error -Mdist/default/debug/LCD_Display.debug.map \
  --md=/tmp/xcXlLaIMB/driver_tmp_0.dat -E1 -ver=XC8 Compiler --acfsm=1493 \
  -ACODE=00h-07FFhx4 -ASTRCODE=00h-01FFFh -ASTRING=00h-0FFhx32 \
  -ACONST=00h-0FFhx32 -AENTRY=00h-0FFhx32 -ACOMMON=070h-07Fh \
  -ABANK0=020h-06Fh -ABANK1=0A0h-0EFh -ABANK2=0110h-016Fh \
  -ABANK3=0190h-01EFh -ARAM=020h-06Fh,0A0h-0EFh,0110h-016Fh,0190h-01EFh \
  -AABS1=020h-07Fh,0A0h-0EFh,0110h-016Fh,0190h-01EFh -ASFR0=00h-01Fh \
  -ASFR1=080h-09Fh -ASFR2=0100h-010Fh -ASFR3=0180h-018Fh \
  -ACONFIG=02007h-02007h -DCONFIG=2 -AIDLOC=02000h-02003h -DIDLOC=2 \
  -AEEDATA=00h-0FFh/02100h -peeprom_data=EEDATA -DEEDATA=2 -DCODE=2 \
  -DSTRCODE=2 -DSTRING=2 -DCONST=2 -DENTRY=2 \
  -preset_vec=00h,intentry,init,end_init -ppowerup=CODE -pcinit=CODE \
  -pfunctab=ENTRY -k /tmp/xcXlLaIMB/driver_tmp_12.o \
  dist/default/debug/LCD_Display.debug.o 

Object code version is 3.11

Machine type is 16F877A



                Name                               Link     Load   Length Selector   Space Scale
/tmp/xcXlLaIMB/driver_tmp_12.o
                end_init                              0        0        3        0       0
                config                             2007     2007        1        0       4
                idloc                              2000     2000        4        0       5
dist/default/debug/LCD_Display.debug.o
                cinit                               7FC      7FC        4      FF8       0
                config                             2007     2007        1        0       4
                idloc                              2000     2000        4        0       5
                text8                               72C      72C       1A      E58       0
                text7                               716      716       16      E2C       0
                text6                               77A      77A       1B      EF4       0
                text5                               7D4      7D4       28      FA8       0
                text4                               746      746       1A      E8C       0
                text3                               760      760       1A      EC0       0
                text2                               7B2      7B2       22      F64       0
                text1                               711      711        5      E22       0
                maintext                            795      795       1D      F2A       0
                cstackCOMMON                         70       70        8       70       1
                strings                               3        3       12        6       0

TOTAL           Name                               Link     Load   Length     Space
        CLASS   CODE           
                end_init                              0        0        3         0
                cinit                               7FC      7FC        4         0
                text8                               72C      72C       1A         0
                text7                               716      716       16         0
                text6                               77A      77A       1B         0
                text5                               7D4      7D4       28         0
                text4                               746      746       1A         0
                text3                               760      760       1A         0
                text2                               7B2      7B2       22         0
                text1                               711      711        5         0
                maintext                            795      795       1D         0

        CLASS   STRCODE        

        CLASS   STRING         
                strings                               3        3       12         0

        CLASS   CONST          

        CLASS   ENTRY          

        CLASS   COMMON         
                cstackCOMMON                         70       70        8         1

        CLASS   BANK0          

        CLASS   BANK1          

        CLASS   BANK2          

        CLASS   BANK3          

        CLASS   RAM            

        CLASS   ABS1           
                abs_s1                               7E       7E        2         1

        CLASS   SFR0           

        CLASS   SFR1           

        CLASS   SFR2           

        CLASS   SFR3           

        CLASS   CONFIG         
                config                             2007     2007        1         4

        CLASS   IDLOC          
                idloc                              2000     2000        4         5

        CLASS   EEDATA         

        CLASS   HEAP           

        CLASS   STACK          



SEGMENTS        Name                           Load    Length   Top    Selector   Space  Class     Delta

                text8                          00072C  00001A  000746       E58       0  CODE        2
                text3                          000760  00001A  00077A       EC0       0  CODE        2
                text4                          000746  00001A  000760       E8C       0  CODE        2
                reset_vec                      000000  000003  000003         0       0  CODE        2
                text7                          000716  000016  00072C       E2C       0  CODE        2
                text6                          00077A  00001B  000795       EF4       0  CODE        2
                maintext                       000795  00001D  0007B2       F2A       0  CODE        2
                strings                        000003  000012  000015         6       0  STRING      2
                text1                          000711  000005  000716       E22       0  CODE        2
                cinit                          0007FC  000004  000800       FF8       0  CODE        2
                cstackCOMMON                   000070  000008  000078        70       1  COMMON      1
                text2                          0007B2  000022  0007D4       F64       0  CODE        2
                text5                          0007D4  000028  0007FC       FA8       0  CODE        2


UNUSED ADDRESS RANGES

        Name                Unused          Largest block    Delta
        BANK0            0020-006F             50           1
        BANK1            00A0-00EF             50           1
        BANK2            0110-016F             60           1
        BANK3            0190-01EF             60           1
        CODE             0015-0710            6FC           2
                         0800-1FFF            800
        COMMON           0078-007D              6           1
        CONST            0015-0710            100           2
                         0800-1FFF            100
        EEDATA           2100-21FF            100           2
        ENTRY            0015-0710            100           2
                         0800-1FFF            100
        RAM              0020-006F             50           1
                         00A0-00EF             50
                         0110-016F             60
                         0190-01EF             60
        SFR0             0000-001F             20           1
        SFR1             0080-009F             20           1
        SFR2             0100-010F             10           1
        SFR3             0180-018F             10           1
        STRCODE          0015-0710            6FC           2
                         0800-1FFF           1800
        STRING           0015-0710            100           2
                         0800-1FFF            100

                                  Symbol Table

?_strlen                    cstackCOMMON 0070
_PORTB                      (abs)        0006
_PORTC                      (abs)        0007
_TRISB                      (abs)        0086
_TRISC                      (abs)        0087
__H__absolute__             __absolute__ 0000
__Habs1                     abs1         0000
__Hbank0                    bank0        0000
__Hbank1                    bank1        0000
__Hbank2                    bank2        0000
__Hbank3                    bank3        0000
__Hcinit                    cinit        0800
__Hclrtext                  clrtext      0000
__Hcode                     code         0000
__Hcommon                   common       0000
__Hconfig                   config       2008
__HcstackCOMMON             cstackCOMMON 0000
__Heeprom_data              eeprom_data  0000
__Hend_init                 end_init     0003
__Hfunctab                  functab      0000
__Hheap                     heap         0000
__Hidloc                    idloc        2004
__Hinit                     init         0000
__Hintentry                 intentry     0000
__Hmaintext                 maintext     0000
__Hpowerup                  powerup      0000
__Hram                      ram          0000
__Hreset_vec                reset_vec    0000
__Hsfr0                     sfr0         0000
__Hsfr1                     sfr1         0000
__Hsfr2                     sfr2         0000
__Hsfr3                     sfr3         0000
__Hspace_0                  (abs)        0800
__Hspace_1                  (abs)        0078
__Hspace_2                  (abs)        0000
__Hspace_3                  (abs)        0000
__Hspace_4                  (abs)        400F
__Hstack                    stack        0000
__Hstrings                  strings      0000
__Htext                     text         0000
__L__absolute__             __absolute__ 0000
__Labs1                     abs1         0000
__Lbank0                    bank0        0000
__Lbank1                    bank1        0000
__Lbank2                    bank2        0000
__Lbank3                    bank3        0000
__Lcinit                    cinit        07FC
__Lclrtext                  clrtext      0000
__Lcode                     code         0000
__Lcommon                   common       0000
__Lconfig                   config       0000
__LcstackCOMMON             cstackCOMMON 0000
__Leeprom_data              eeprom_data  0000
__Lend_init                 end_init     0000
__Lfunctab                  functab      0000
__Lheap                     heap         0000
__Lidloc                    idloc        0000
__Linit                     init         0000
__Lintentry                 intentry     0000
__Lmaintext                 maintext     0000
__Lpowerup                  powerup      0000
__Lram                      ram          0000
__Lreset_vec                reset_vec    0000
__Lsfr0                     sfr0         0000
__Lsfr1                     sfr1         0000
__Lsfr2                     sfr2         0000
__Lsfr3                     sfr3         0000
__Lspace_0                  (abs)        0000
__Lspace_1                  (abs)        0000
__Lspace_2                  (abs)        0000
__Lspace_3                  (abs)        0000
__Lspace_4                  (abs)        0000
__Lstack                    stack        0000
__Lstrings                  strings      0000
__Ltext                     text         0000
__S0                        (abs)        0800
__S1                        (abs)        0078
__S3                        (abs)        0000
___heap_hi                  (abs)        0000
___heap_lo                  (abs)        0000
___init_display             text8        072C
___int_sp                   stack        0000
___int_stack_hi             stack        0000
___int_stack_lo             stack        0000
___latbits                  (abs)        0002
___sp                       stack        0000
___stack_hi                 stack        0000
___stack_lo                 stack        0000
___stackhi                  (abs)        0000
___stacklo                  (abs)        0000
__end_of___init_display     text8        0746
__end_of__initialization    cinit        07FC
__end_of__stringtab         strings      0009
__end_of_home               text4        0760
__end_of_lcd_write          text5        07FC
__end_of_lcd_write_char     text7        072C
__end_of_main               maintext     07B2
__end_of_set_cursor         text2        07D4
__end_of_setup              text1        0716
__end_of_shift_cursor_right text3        077A
__end_of_strlen             text6        0795
__initialization            cinit        07FC
__pcstackCOMMON             cstackCOMMON 0070
__pmaintext                 maintext     0795
__pstrings                  strings      0003
__ptext1                    text1        0711
__ptext2                    text2        07B2
__ptext3                    text3        0760
__ptext4                    text4        0746
__ptext5                    text5        07D4
__ptext6                    text6        077A
__ptext7                    text7        0716
__ptext8                    text8        072C
__stringbase                strings      0008
__stringtab                 strings      0003
_home                       text4        0746
_lcd_write                  text5        07D4
_lcd_write_char             text7        0716
_main                       maintext     0795
_set_cursor                 text2        07B2
_setup                      text1        0711
_shift_cursor_right         text3        0760
_strlen                     text6        077A
btemp                       (abs)        007E
end_of_initialization       cinit        07FC
intlevel0                   functab      0000
intlevel1                   functab      0000
intlevel2                   functab      0000
intlevel3                   functab      0000
intlevel4                   functab      0000
intlevel5                   functab      0000
lcd_write@data              cstackCOMMON 0077
lcd_write@i                 cstackCOMMON 0075
lcd_write_char@i            cstackCOMMON 0072
reset_vec                   reset_vec    0000
set_cursor@count            cstackCOMMON 0075
set_cursor@horizontal_shift cstackCOMMON 0072
start                       init         0000
start_initialization        cinit        07FC
strlen@a                    cstackCOMMON 0073
strlen@s                    cstackCOMMON 0074
wtemp0                      (abs)        007E


MODULE INFORMATION

Module		Function		Class		Link	Load	Size
/opt/microchip/xc8/v2.45/pic/sources/c99/common/strlen.c
		_strlen        		CODE           	077A	0000	27

/opt/microchip/xc8/v2.45/pic/sources/c99/common/strlen.c estimated size: 27

shared
		__stringtab    		STRING         	0003	0000	6
		__initialization		CODE           	07FC	0000	1

shared estimated size: 7

main.c
		_lcd_write_char		CODE           	0716	0000	22
		_main          		CODE           	0795	0000	29
		_shift_cursor_right		CODE           	0760	0000	26
		_set_cursor    		CODE           	07B2	0000	34
		___init_display		CODE           	072C	0000	26
		_lcd_write     		CODE           	07D4	0000	40
		_setup         		CODE           	0711	0000	5
		_home          		CODE           	0746	0000	26

main.c estimated size: 208

