

Microchip MPLAB XC8 Assembler V2.05 build -831301201 
                                                                                               Thu Mar  7 20:58:25 2019

Microchip MPLAB XC8 C Compiler v2.05 (Free license) build 20181220022703 Og1 
     1                           	processor	16F877A
     2                           	opt	pw 120
     3                           	opt	flic
     4                           	psect	nvBANK1,global,class=BANK1,space=1,delta=1
     5                           	psect	cinit,global,class=CODE,merge=1,delta=2
     6                           	psect	cstackBANK1,global,class=BANK1,space=1,delta=1
     7                           	psect	cstackCOMMON,global,class=COMMON,space=1,delta=1
     8                           	psect	cstackBANK0,global,class=BANK0,space=1,delta=1
     9                           	psect	maintext,global,class=CODE,split=1,delta=2
    10                           	psect	text1,local,class=CODE,merge=1,delta=2
    11                           	psect	text2,local,class=CODE,merge=1,delta=2,group=1
    12                           	psect	text3,local,class=CODE,merge=1,delta=2
    13                           	psect	text4,local,class=CODE,merge=1,delta=2,group=1
    14                           	psect	text5,local,class=CODE,merge=1,delta=2,group=1
    15                           	psect	text6,local,class=CODE,merge=1,delta=2,group=1
    16                           	psect	text7,local,class=CODE,merge=1,delta=2,group=1
    17                           	psect	text8,local,class=CODE,merge=1,delta=2,group=1
    18                           	psect	text9,local,class=CODE,merge=1,delta=2
    19                           	dabs	1,0x7E,2
    20  0000                     
    21                           ; Version 2.05
    22                           ; Generated 20/12/2018 GMT
    23                           ; 
    24                           ; Copyright © 2018, Microchip Technology Inc. and its subsidiaries ("Microchip")
    25                           ; All rights reserved.
    26                           ; 
    27                           ; This software is developed by Microchip Technology Inc. and its subsidiaries ("Microch
      +                          ip").
    28                           ; 
    29                           ; Redistribution and use in source and binary forms, with or without modification, are
    30                           ; permitted provided that the following conditions are met:
    31                           ; 
    32                           ;     1. Redistributions of source code must retain the above copyright notice, this lis
      +                          t of
    33                           ;        conditions and the following disclaimer.
    34                           ; 
    35                           ;     2. Redistributions in binary form must reproduce the above copyright notice, this 
      +                          list
    36                           ;        of conditions and the following disclaimer in the documentation and/or other
    37                           ;        materials provided with the distribution.
    38                           ; 
    39                           ;     3. Microchip's name may not be used to endorse or promote products derived from th
      +                          is
    40                           ;        software without specific prior written permission.
    41                           ; 
    42                           ; THIS SOFTWARE IS PROVIDED BY MICROCHIP "AS IS" AND ANY EXPRESS OR IMPLIED WARRANTIES,
    43                           ; INCLUDING, BUT NOT LIMITED TO, THE IMPLIED WARRANTIES OF MERCHANTABILITY AND FITNESS F
      +                          OR
    44                           ; PURPOSE ARE DISCLAIMED.  IN NO EVENT SHALL MICROCHIP BE LIABLE FOR ANY DIRECT, INDIREC
      +                          T,
    45                           ; INCIDENTAL, SPECIAL, EXEMPLARY, OR CONSEQUENTIAL DAMAGES (INCLUDING BUT NOT LIMITED TO
    46                           ; PROCUREMENT OF SUBSTITUTE GOODS OR SERVICES; LOSS OF USE, DATA OR PROFITS; OR BUSINESS
    47                           ; INTERRUPTION) HOWSOEVER CAUSED AND ON ANY THEORY OF LIABILITY, WHETHER IN CONTRACT, ST
      +                          RICT
    48                           ; LIABILITY, OR TORT (INCLUDING NEGLIGENCE OR OTHERWISE) ARISING IN ANY WAY OUT OF THE U
      +                          SE OF
    49                           ; THIS SOFTWARE, EVEN IF ADVISED OF THE POSSIBILITY OF SUCH DAMAGE.
    50                           ; 
    51                           ; 
    52                           ; Code-generator required, PIC16F877A Definitions
    53                           ; 
    54                           ; SFR Addresses
    55  0000                     	;# 
    56  0001                     	;# 
    57  0002                     	;# 
    58  0003                     	;# 
    59  0004                     	;# 
    60  0005                     	;# 
    61  0006                     	;# 
    62  0007                     	;# 
    63  0008                     	;# 
    64  0009                     	;# 
    65  000A                     	;# 
    66  000B                     	;# 
    67  000C                     	;# 
    68  000D                     	;# 
    69  000E                     	;# 
    70  000E                     	;# 
    71  000F                     	;# 
    72  0010                     	;# 
    73  0011                     	;# 
    74  0012                     	;# 
    75  0013                     	;# 
    76  0014                     	;# 
    77  0015                     	;# 
    78  0015                     	;# 
    79  0016                     	;# 
    80  0017                     	;# 
    81  0018                     	;# 
    82  0019                     	;# 
    83  001A                     	;# 
    84  001B                     	;# 
    85  001B                     	;# 
    86  001C                     	;# 
    87  001D                     	;# 
    88  001E                     	;# 
    89  001F                     	;# 
    90  0081                     	;# 
    91  0085                     	;# 
    92  0086                     	;# 
    93  0087                     	;# 
    94  0088                     	;# 
    95  0089                     	;# 
    96  008C                     	;# 
    97  008D                     	;# 
    98  008E                     	;# 
    99  0091                     	;# 
   100  0092                     	;# 
   101  0093                     	;# 
   102  0094                     	;# 
   103  0098                     	;# 
   104  0099                     	;# 
   105  009C                     	;# 
   106  009D                     	;# 
   107  009E                     	;# 
   108  009F                     	;# 
   109  010C                     	;# 
   110  010D                     	;# 
   111  010E                     	;# 
   112  010F                     	;# 
   113  018C                     	;# 
   114  018D                     	;# 
   115  0000                     	;# 
   116  0001                     	;# 
   117  0002                     	;# 
   118  0003                     	;# 
   119  0004                     	;# 
   120  0005                     	;# 
   121  0006                     	;# 
   122  0007                     	;# 
   123  0008                     	;# 
   124  0009                     	;# 
   125  000A                     	;# 
   126  000B                     	;# 
   127  000C                     	;# 
   128  000D                     	;# 
   129  000E                     	;# 
   130  000E                     	;# 
   131  000F                     	;# 
   132  0010                     	;# 
   133  0011                     	;# 
   134  0012                     	;# 
   135  0013                     	;# 
   136  0014                     	;# 
   137  0015                     	;# 
   138  0015                     	;# 
   139  0016                     	;# 
   140  0017                     	;# 
   141  0018                     	;# 
   142  0019                     	;# 
   143  001A                     	;# 
   144  001B                     	;# 
   145  001B                     	;# 
   146  001C                     	;# 
   147  001D                     	;# 
   148  001E                     	;# 
   149  001F                     	;# 
   150  0081                     	;# 
   151  0085                     	;# 
   152  0086                     	;# 
   153  0087                     	;# 
   154  0088                     	;# 
   155  0089                     	;# 
   156  008C                     	;# 
   157  008D                     	;# 
   158  008E                     	;# 
   159  0091                     	;# 
   160  0092                     	;# 
   161  0093                     	;# 
   162  0094                     	;# 
   163  0098                     	;# 
   164  0099                     	;# 
   165  009C                     	;# 
   166  009D                     	;# 
   167  009E                     	;# 
   168  009F                     	;# 
   169  010C                     	;# 
   170  010D                     	;# 
   171  010E                     	;# 
   172  010F                     	;# 
   173  018C                     	;# 
   174  018D                     	;# 
   175                           
   176                           	psect	nvBANK1
   177  00AE                     __pnvBANK1:	
   178  00AE                     _PWM_PERIOD:	
   179  00AE                     	ds	4
   180  00B2                     _counter:	
   181  00B2                     	ds	2
   182  00B4                     _PWM_FREQ:	
   183  00B4                     	ds	4
   184  0015                     _CCPR1L	set	21
   185  0017                     _CCP1CONbits	set	23
   186  0012                     _T2CONbits	set	18
   187  0087                     _TRISCbits	set	135
   188  0092                     _PR2	set	146
   189                           
   190                           ; #config settings
   191  0000                     
   192                           	psect	cinit
   193  07FC                     start_initialization:	
   194  07FC                     __initialization:	
   195  07FC                     end_of_initialization:	
   196                           ;End of C runtime variable initialization code
   197                           
   198  07FC                     __end_of__initialization:	
   199  07FC  0183               	clrf	3
   200  07FD  120A  158A  2E19   	ljmp	_main	;jump to C main() function
   201                           
   202                           	psect	cstackBANK1
   203  00A0                     __pcstackBANK1:	
   204  00A0                     ??___set_duty_cycle:	
   205  00A0                     ___set_pwm_freq@PR2_value:	
   206                           ; 1 bytes @ 0x0
   207                           
   208                           
   209                           ; 2 bytes @ 0x0
   210  00A0                     	ds	2
   211  00A2                     ___set_duty_cycle@dc:	
   212                           
   213                           ; 4 bytes @ 0x2
   214  00A2                     	ds	4
   215  00A6                     ___set_duty_cycle@dc_period:	
   216                           
   217                           ; 4 bytes @ 0x6
   218  00A6                     	ds	4
   219  00AA                     ___set_duty_cycle@reg_value:	
   220                           
   221                           ; 2 bytes @ 0xA
   222  00AA                     	ds	2
   223  00AC                     ??_main:	
   224                           
   225                           ; 1 bytes @ 0xC
   226  00AC                     	ds	2
   227                           
   228                           	psect	cstackCOMMON
   229  0070                     __pcstackCOMMON:	
   230  0070                     ?___init_pwm:	
   231  0070                     ??___init_pwm:	
   232                           ; 1 bytes @ 0x0
   233                           
   234  0070                     ?_main:	
   235                           ; 1 bytes @ 0x0
   236                           
   237  0070                     ?__Umul8_16:	
   238                           ; 1 bytes @ 0x0
   239                           
   240  0070                     ?___xxtofl:	
   241                           ; 2 bytes @ 0x0
   242                           
   243  0070                     __Umul8_16@multiplicand:	
   244                           ; 4 bytes @ 0x0
   245                           
   246  0070                     ___xxtofl@val:	
   247                           ; 1 bytes @ 0x0
   248                           
   249                           
   250                           ; 4 bytes @ 0x0
   251  0070                     	ds	2
   252  0072                     ??__Umul8_16:	
   253                           
   254                           ; 1 bytes @ 0x2
   255  0072                     	ds	2
   256  0074                     ??___xxtofl:	
   257  0074                     __Umul8_16@product:	
   258                           ; 1 bytes @ 0x4
   259                           
   260                           
   261                           ; 2 bytes @ 0x4
   262  0074                     	ds	2
   263  0076                     __Umul8_16@word_mpld:	
   264                           
   265                           ; 2 bytes @ 0x6
   266  0076                     	ds	2
   267  0078                     ___xxtofl@sign:	
   268  0078                     __Umul8_16@multiplier:	
   269                           ; 1 bytes @ 0x8
   270                           
   271                           
   272                           ; 1 bytes @ 0x8
   273  0078                     	ds	1
   274  0079                     ??___flmul:	
   275  0079                     ___xxtofl@exp:	
   276                           ; 1 bytes @ 0x9
   277                           
   278                           
   279                           ; 1 bytes @ 0x9
   280  0079                     	ds	1
   281  007A                     ___xxtofl@arg:	
   282                           
   283                           ; 4 bytes @ 0xA
   284  007A                     	ds	4
   285  007E                     ??___set_pwm_freq:	
   286                           
   287                           	psect	cstackBANK0
   288  0020                     __pcstackBANK0:	
   289                           ; 1 bytes @ 0xE
   290                           
   291  0020                     ?___flmul:	
   292  0020                     ___flmul@b:	
   293                           ; 4 bytes @ 0x0
   294                           
   295                           
   296                           ; 4 bytes @ 0x0
   297  0020                     	ds	4
   298  0024                     ___flmul@a:	
   299                           
   300                           ; 4 bytes @ 0x4
   301  0024                     	ds	4
   302  0028                     ___flmul@sign:	
   303                           
   304                           ; 1 bytes @ 0x8
   305  0028                     	ds	1
   306  0029                     ___flmul@grs:	
   307                           
   308                           ; 4 bytes @ 0x9
   309  0029                     	ds	4
   310  002D                     ___flmul@aexp:	
   311                           
   312                           ; 1 bytes @ 0xD
   313  002D                     	ds	1
   314  002E                     ___flmul@bexp:	
   315                           
   316                           ; 1 bytes @ 0xE
   317  002E                     	ds	1
   318  002F                     ___flmul@prod:	
   319                           
   320                           ; 4 bytes @ 0xF
   321  002F                     	ds	4
   322  0033                     ___flmul@temp:	
   323                           
   324                           ; 2 bytes @ 0x13
   325  0033                     	ds	2
   326  0035                     ?___fldiv:	
   327  0035                     ___fldiv@a:	
   328                           ; 4 bytes @ 0x15
   329                           
   330                           
   331                           ; 4 bytes @ 0x15
   332  0035                     	ds	4
   333  0039                     ___fldiv@b:	
   334                           
   335                           ; 4 bytes @ 0x19
   336  0039                     	ds	4
   337  003D                     ??___fldiv:	
   338                           
   339                           ; 1 bytes @ 0x1D
   340  003D                     	ds	5
   341  0042                     ___fldiv@rem:	
   342                           
   343                           ; 4 bytes @ 0x22
   344  0042                     	ds	4
   345  0046                     ___fldiv@sign:	
   346                           
   347                           ; 1 bytes @ 0x26
   348  0046                     	ds	1
   349  0047                     ___fldiv@new_exp:	
   350                           
   351                           ; 2 bytes @ 0x27
   352  0047                     	ds	2
   353  0049                     ___fldiv@grs:	
   354                           
   355                           ; 4 bytes @ 0x29
   356  0049                     	ds	4
   357  004D                     ___fldiv@bexp:	
   358                           
   359                           ; 1 bytes @ 0x2D
   360  004D                     	ds	1
   361  004E                     ___fldiv@aexp:	
   362                           
   363                           ; 1 bytes @ 0x2E
   364  004E                     	ds	1
   365  004F                     ?___fladd:	
   366  004F                     ___fladd@b:	
   367                           ; 4 bytes @ 0x2F
   368                           
   369                           
   370                           ; 4 bytes @ 0x2F
   371  004F                     	ds	4
   372  0053                     ___fladd@a:	
   373                           
   374                           ; 4 bytes @ 0x33
   375  0053                     	ds	4
   376  0057                     ??___fladd:	
   377                           
   378                           ; 1 bytes @ 0x37
   379  0057                     	ds	8
   380  005F                     ___fladd@signs:	
   381                           
   382                           ; 1 bytes @ 0x3F
   383  005F                     	ds	1
   384  0060                     ___fladd@aexp:	
   385                           
   386                           ; 1 bytes @ 0x40
   387  0060                     	ds	1
   388  0061                     ___fladd@bexp:	
   389                           
   390                           ; 1 bytes @ 0x41
   391  0061                     	ds	1
   392  0062                     ___fladd@grs:	
   393                           
   394                           ; 1 bytes @ 0x42
   395  0062                     	ds	1
   396  0063                     ?___fltol:	
   397  0063                     ___fltol@f1:	
   398                           ; 4 bytes @ 0x43
   399                           
   400                           
   401                           ; 4 bytes @ 0x43
   402  0063                     	ds	4
   403  0067                     ??___fltol:	
   404                           
   405                           ; 1 bytes @ 0x47
   406  0067                     	ds	5
   407  006C                     ___fltol@sign1:	
   408                           
   409                           ; 1 bytes @ 0x4C
   410  006C                     	ds	1
   411  006D                     ___fltol@exp1:	
   412                           
   413                           ; 1 bytes @ 0x4D
   414  006D                     	ds	1
   415  006E                     ?___set_pwm_freq:	
   416  006E                     ?___set_duty_cycle:	
   417                           ; 1 bytes @ 0x4E
   418                           
   419  006E                     ___set_pwm_freq@f:	
   420                           ; 1 bytes @ 0x4E
   421                           
   422  006E                     ___set_duty_cycle@duty_cycle:	
   423                           ; 2 bytes @ 0x4E
   424                           
   425                           
   426                           ; 2 bytes @ 0x4E
   427  006E                     	ds	2
   428                           
   429                           	psect	maintext
   430  0E19                     __pmaintext:	
   431 ;;
   432 ;;Main: autosize = 0, tempsize = 2, incstack = 0, save=0
   433 ;;
   434 ;; *************** function _main *****************
   435 ;; Defined at:
   436 ;;		line 78 in file "main.c"
   437 ;; Parameters:    Size  Location     Type
   438 ;;		None
   439 ;; Auto vars:     Size  Location     Type
   440 ;;		None
   441 ;; Return value:  Size  Location     Type
   442 ;;                  1    wreg      void 
   443 ;; Registers used:
   444 ;;		wreg, status,2, status,0, btemp+1, pclath, cstack
   445 ;; Tracked objects:
   446 ;;		On entry : B00/0
   447 ;;		On exit  : 0/0
   448 ;;		Unchanged: 0/0
   449 ;; Data sizes:     COMMON   BANK0   BANK1   BANK3   BANK2
   450 ;;      Params:         0       0       0       0       0
   451 ;;      Locals:         0       0       0       0       0
   452 ;;      Temps:          0       0       2       0       0
   453 ;;      Totals:         0       0       2       0       0
   454 ;;Total ram usage:        2 bytes
   455 ;; Hardware stack levels required when called:    3
   456 ;; This function calls:
   457 ;;		___init_pwm
   458 ;;		___set_duty_cycle
   459 ;;		___set_pwm_freq
   460 ;; This function is called by:
   461 ;;		Startup code after reset
   462 ;; This function uses a non-reentrant model
   463 ;;
   464                           
   465                           
   466                           ;psect for function _main
   467  0E19                     _main:	
   468                           
   469                           ;main.c: 79:     __set_pwm_freq(2000);
   470                           
   471                           ;incstack = 0
   472                           ; Regs used in _main: [wreg+status,2+status,0+btemp+1+pclath+cstack]
   473  0E19  30D0               	movlw	208
   474  0E1A  1283               	bcf	3,5	;RP0=0, select bank0
   475  0E1B  1303               	bcf	3,6	;RP1=0, select bank0
   476  0E1C  00EE               	movwf	___set_pwm_freq@f
   477  0E1D  3007               	movlw	7
   478  0E1E  00EF               	movwf	___set_pwm_freq@f+1
   479  0E1F  120A  158A  273D  120A  158A  	fcall	___set_pwm_freq
   480                           
   481                           ;main.c: 80:     __init_pwm();
   482  0E24  120A  158A  257A  120A  158A  	fcall	___init_pwm
   483                           
   484                           ;main.c: 81:     __set_duty_cycle(0);
   485  0E29  3000               	movlw	0
   486  0E2A  1283               	bcf	3,5	;RP0=0, select bank0
   487  0E2B  1303               	bcf	3,6	;RP1=0, select bank0
   488  0E2C  00EE               	movwf	___set_duty_cycle@duty_cycle
   489  0E2D  00EF               	movwf	___set_duty_cycle@duty_cycle+1
   490  0E2E  120A  118A  2003  120A  158A  	fcall	___set_duty_cycle
   491  0E33                     l1851:	
   492                           
   493                           ;main.c: 86:         for(counter = 0; counter < 100; counter++) {
   494  0E33  1683               	bsf	3,5	;RP0=1, select bank1
   495  0E34  1303               	bcf	3,6	;RP1=0, select bank1
   496  0E35  01B2               	clrf	_counter^(0+128)
   497  0E36  01B3               	clrf	(_counter+1)^(0+128)
   498  0E37                     l1857:	
   499                           
   500                           ;main.c: 87:             __set_duty_cycle(counter);
   501  0E37  1683               	bsf	3,5	;RP0=1, select bank1
   502  0E38  1303               	bcf	3,6	;RP1=0, select bank1
   503  0E39  0833               	movf	(_counter+1)^(0+128),w
   504  0E3A  1283               	bcf	3,5	;RP0=0, select bank0
   505  0E3B  1303               	bcf	3,6	;RP1=0, select bank0
   506  0E3C  00EF               	movwf	___set_duty_cycle@duty_cycle+1
   507  0E3D  1683               	bsf	3,5	;RP0=1, select bank1
   508  0E3E  1303               	bcf	3,6	;RP1=0, select bank1
   509  0E3F  0832               	movf	_counter^(0+128),w
   510  0E40  1283               	bcf	3,5	;RP0=0, select bank0
   511  0E41  1303               	bcf	3,6	;RP1=0, select bank0
   512  0E42  00EE               	movwf	___set_duty_cycle@duty_cycle
   513  0E43  120A  118A  2003  120A  158A  	fcall	___set_duty_cycle
   514                           
   515                           ;main.c: 88:             _delay((unsigned long)((10)*(16000000/4000.0)));
   516  0E48  3034               	movlw	52
   517  0E49  1683               	bsf	3,5	;RP0=1, select bank1
   518  0E4A  1303               	bcf	3,6	;RP1=0, select bank1
   519  0E4B  00AD               	movwf	(??_main^(0+128)+1)
   520  0E4C  30F1               	movlw	241
   521  0E4D  00AC               	movwf	??_main^(0+128)
   522  0E4E                     u2837:	
   523  0E4E  0BAC               	decfsz	??_main^(0+128),f
   524  0E4F  2E4E               	goto	u2837
   525  0E50  0BAD               	decfsz	(??_main^(0+128)+1),f
   526  0E51  2E4E               	goto	u2837
   527                           
   528                           ;main.c: 89:         }
   529  0E52  3001               	movlw	1
   530  0E53  1683               	bsf	3,5	;RP0=1, select bank1
   531  0E54  1303               	bcf	3,6	;RP1=0, select bank1
   532  0E55  07B2               	addwf	_counter^(0+128),f
   533  0E56  1803               	skipnc
   534  0E57  0AB3               	incf	(_counter+1)^(0+128),f
   535  0E58  3000               	movlw	0
   536  0E59  07B3               	addwf	(_counter+1)^(0+128),f
   537  0E5A  0833               	movf	(_counter+1)^(0+128),w
   538  0E5B  3A80               	xorlw	128
   539  0E5C  00FF               	movwf	127
   540  0E5D  3080               	movlw	128
   541  0E5E  027F               	subwf	127,w
   542  0E5F  1D03               	skipz
   543  0E60  2E63               	goto	u2815
   544  0E61  3064               	movlw	100
   545  0E62  0232               	subwf	_counter^(0+128),w
   546  0E63                     u2815:	
   547  0E63  1C03               	skipc
   548  0E64  2E37               	goto	l1857
   549                           
   550                           ;main.c: 90:         for(counter = 100; counter > 0; counter--) {
   551  0E65  3064               	movlw	100
   552  0E66  1683               	bsf	3,5	;RP0=1, select bank1
   553  0E67  1303               	bcf	3,6	;RP1=0, select bank1
   554  0E68  00B2               	movwf	_counter^(0+128)
   555  0E69  3000               	movlw	0
   556  0E6A  00B3               	movwf	(_counter^(0+128)+1)
   557  0E6B                     l1871:	
   558                           
   559                           ;main.c: 91:             __set_duty_cycle(counter);
   560  0E6B  1683               	bsf	3,5	;RP0=1, select bank1
   561  0E6C  1303               	bcf	3,6	;RP1=0, select bank1
   562  0E6D  0833               	movf	(_counter+1)^(0+128),w
   563  0E6E  1283               	bcf	3,5	;RP0=0, select bank0
   564  0E6F  1303               	bcf	3,6	;RP1=0, select bank0
   565  0E70  00EF               	movwf	___set_duty_cycle@duty_cycle+1
   566  0E71  1683               	bsf	3,5	;RP0=1, select bank1
   567  0E72  1303               	bcf	3,6	;RP1=0, select bank1
   568  0E73  0832               	movf	_counter^(0+128),w
   569  0E74  1283               	bcf	3,5	;RP0=0, select bank0
   570  0E75  1303               	bcf	3,6	;RP1=0, select bank0
   571  0E76  00EE               	movwf	___set_duty_cycle@duty_cycle
   572  0E77  120A  118A  2003  120A  158A  	fcall	___set_duty_cycle
   573                           
   574                           ;main.c: 92:             _delay((unsigned long)((10)*(16000000/4000.0)));
   575  0E7C  3034               	movlw	52
   576  0E7D  1683               	bsf	3,5	;RP0=1, select bank1
   577  0E7E  1303               	bcf	3,6	;RP1=0, select bank1
   578  0E7F  00AD               	movwf	(??_main^(0+128)+1)
   579  0E80  30F1               	movlw	241
   580  0E81  00AC               	movwf	??_main^(0+128)
   581  0E82                     u2847:	
   582  0E82  0BAC               	decfsz	??_main^(0+128),f
   583  0E83  2E82               	goto	u2847
   584  0E84  0BAD               	decfsz	(??_main^(0+128)+1),f
   585  0E85  2E82               	goto	u2847
   586                           
   587                           ;main.c: 93:         }
   588  0E86  30FF               	movlw	255
   589  0E87  1683               	bsf	3,5	;RP0=1, select bank1
   590  0E88  1303               	bcf	3,6	;RP1=0, select bank1
   591  0E89  07B2               	addwf	_counter^(0+128),f
   592  0E8A  1803               	skipnc
   593  0E8B  0AB3               	incf	(_counter+1)^(0+128),f
   594  0E8C  30FF               	movlw	255
   595  0E8D  07B3               	addwf	(_counter+1)^(0+128),f
   596  0E8E  0833               	movf	(_counter+1)^(0+128),w
   597  0E8F  3A80               	xorlw	128
   598  0E90  00FF               	movwf	127
   599  0E91  3080               	movlw	128
   600  0E92  027F               	subwf	127,w
   601  0E93  1D03               	skipz
   602  0E94  2E97               	goto	u2825
   603  0E95  3001               	movlw	1
   604  0E96  0232               	subwf	_counter^(0+128),w
   605  0E97                     u2825:	
   606  0E97  1C03               	btfss	3,0
   607  0E98  2E33               	goto	l1851
   608  0E99  2E6B               	goto	l1871
   609  0E9A                     __end_of_main:	
   610                           
   611                           	psect	text1
   612  0F3D                     __ptext1:	
   613 ;; *************** function ___set_pwm_freq *****************
   614 ;; Defined at:
   615 ;;		line 31 in file "main.c"
   616 ;; Parameters:    Size  Location     Type
   617 ;;  f               2   78[BANK0 ] int 
   618 ;; Auto vars:     Size  Location     Type
   619 ;;  PR2_value       2    0[BANK1 ] int 
   620 ;; Return value:  Size  Location     Type
   621 ;;                  1    wreg      void 
   622 ;; Registers used:
   623 ;;		wreg, status,2, status,0, btemp+1, pclath, cstack
   624 ;; Tracked objects:
   625 ;;		On entry : 0/0
   626 ;;		On exit  : 0/0
   627 ;;		Unchanged: 0/0
   628 ;; Data sizes:     COMMON   BANK0   BANK1   BANK3   BANK2
   629 ;;      Params:         0       2       0       0       0
   630 ;;      Locals:         0       0       2       0       0
   631 ;;      Temps:          0       0       0       0       0
   632 ;;      Totals:         0       2       2       0       0
   633 ;;Total ram usage:        4 bytes
   634 ;; Hardware stack levels used:    1
   635 ;; Hardware stack levels required when called:    2
   636 ;; This function calls:
   637 ;;		___fladd
   638 ;;		___fldiv
   639 ;;		___flmul
   640 ;;		___fltol
   641 ;;		___xxtofl
   642 ;; This function is called by:
   643 ;;		_main
   644 ;; This function uses a non-reentrant model
   645 ;;
   646                           
   647                           
   648                           ;psect for function ___set_pwm_freq
   649  0F3D                     ___set_pwm_freq:	
   650                           
   651                           ;main.c: 32:     PWM_FREQ = f;
   652                           
   653                           ;incstack = 0
   654                           ; Regs used in ___set_pwm_freq: [wreg+status,2+status,0+btemp+1+pclath+cstack]
   655  0F3D  1283               	bcf	3,5	;RP0=0, select bank0
   656  0F3E  1303               	bcf	3,6	;RP1=0, select bank0
   657  0F3F  086E               	movf	___set_pwm_freq@f,w
   658  0F40  00F0               	movwf	___xxtofl@val
   659  0F41  086F               	movf	___set_pwm_freq@f+1,w
   660  0F42  00F1               	movwf	___xxtofl@val+1
   661  0F43  3000               	movlw	0
   662  0F44  1BF1               	btfsc	___xxtofl@val+1,7
   663  0F45  30FF               	movlw	255
   664  0F46  00F2               	movwf	___xxtofl@val+2
   665  0F47  00F3               	movwf	___xxtofl@val+3
   666  0F48  3001               	movlw	1
   667  0F49  120A  158A  269A  120A  158A  	fcall	___xxtofl
   668  0F4E  0873               	movf	?___xxtofl+3,w
   669  0F4F  1683               	bsf	3,5	;RP0=1, select bank1
   670  0F50  1303               	bcf	3,6	;RP1=0, select bank1
   671  0F51  00B7               	movwf	(_PWM_FREQ+3)^(0+128)
   672  0F52  0872               	movf	?___xxtofl+2,w
   673  0F53  00B6               	movwf	(_PWM_FREQ+2)^(0+128)
   674  0F54  0871               	movf	?___xxtofl+1,w
   675  0F55  00B5               	movwf	(_PWM_FREQ+1)^(0+128)
   676  0F56  0870               	movf	?___xxtofl,w
   677  0F57  00B4               	movwf	_PWM_FREQ^(0+128)
   678                           
   679                           ;main.c: 33:     PWM_PERIOD = 1 / PWM_FREQ;
   680  0F58  0837               	movf	(_PWM_FREQ+3)^(0+128),w
   681  0F59  1283               	bcf	3,5	;RP0=0, select bank0
   682  0F5A  1303               	bcf	3,6	;RP1=0, select bank0
   683  0F5B  00B8               	movwf	___fldiv@a+3
   684  0F5C  1683               	bsf	3,5	;RP0=1, select bank1
   685  0F5D  1303               	bcf	3,6	;RP1=0, select bank1
   686  0F5E  0836               	movf	(_PWM_FREQ+2)^(0+128),w
   687  0F5F  1283               	bcf	3,5	;RP0=0, select bank0
   688  0F60  1303               	bcf	3,6	;RP1=0, select bank0
   689  0F61  00B7               	movwf	___fldiv@a+2
   690  0F62  1683               	bsf	3,5	;RP0=1, select bank1
   691  0F63  1303               	bcf	3,6	;RP1=0, select bank1
   692  0F64  0835               	movf	(_PWM_FREQ+1)^(0+128),w
   693  0F65  1283               	bcf	3,5	;RP0=0, select bank0
   694  0F66  1303               	bcf	3,6	;RP1=0, select bank0
   695  0F67  00B6               	movwf	___fldiv@a+1
   696  0F68  1683               	bsf	3,5	;RP0=1, select bank1
   697  0F69  1303               	bcf	3,6	;RP1=0, select bank1
   698  0F6A  0834               	movf	_PWM_FREQ^(0+128),w
   699  0F6B  1283               	bcf	3,5	;RP0=0, select bank0
   700  0F6C  1303               	bcf	3,6	;RP1=0, select bank0
   701  0F6D  00B5               	movwf	___fldiv@a
   702  0F6E  303F               	movlw	63
   703  0F6F  00BC               	movwf	___fldiv@b+3
   704  0F70  3080               	movlw	128
   705  0F71  00BB               	movwf	___fldiv@b+2
   706  0F72  3000               	movlw	0
   707  0F73  00BA               	movwf	___fldiv@b+1
   708  0F74  3000               	movlw	0
   709  0F75  00B9               	movwf	___fldiv@b
   710  0F76  120A  118A  2115  120A  158A  	fcall	___fldiv
   711  0F7B  1283               	bcf	3,5	;RP0=0, select bank0
   712  0F7C  1303               	bcf	3,6	;RP1=0, select bank0
   713  0F7D  0838               	movf	?___fldiv+3,w
   714  0F7E  1683               	bsf	3,5	;RP0=1, select bank1
   715  0F7F  1303               	bcf	3,6	;RP1=0, select bank1
   716  0F80  00B1               	movwf	(_PWM_PERIOD+3)^(0+128)
   717  0F81  1283               	bcf	3,5	;RP0=0, select bank0
   718  0F82  1303               	bcf	3,6	;RP1=0, select bank0
   719  0F83  0837               	movf	?___fldiv+2,w
   720  0F84  1683               	bsf	3,5	;RP0=1, select bank1
   721  0F85  1303               	bcf	3,6	;RP1=0, select bank1
   722  0F86  00B0               	movwf	(_PWM_PERIOD+2)^(0+128)
   723  0F87  1283               	bcf	3,5	;RP0=0, select bank0
   724  0F88  1303               	bcf	3,6	;RP1=0, select bank0
   725  0F89  0836               	movf	?___fldiv+1,w
   726  0F8A  1683               	bsf	3,5	;RP0=1, select bank1
   727  0F8B  1303               	bcf	3,6	;RP1=0, select bank1
   728  0F8C  00AF               	movwf	(_PWM_PERIOD+1)^(0+128)
   729  0F8D  1283               	bcf	3,5	;RP0=0, select bank0
   730  0F8E  1303               	bcf	3,6	;RP1=0, select bank0
   731  0F8F  0835               	movf	?___fldiv,w
   732  0F90  1683               	bsf	3,5	;RP0=1, select bank1
   733  0F91  1303               	bcf	3,6	;RP1=0, select bank1
   734  0F92  00AE               	movwf	_PWM_PERIOD^(0+128)
   735                           
   736                           ;main.c: 34:     int PR2_value = ((PWM_PERIOD * 16000000) / (4 * 16) - 1);
   737  0F93  0831               	movf	(_PWM_PERIOD+3)^(0+128),w
   738  0F94  1283               	bcf	3,5	;RP0=0, select bank0
   739  0F95  1303               	bcf	3,6	;RP1=0, select bank0
   740  0F96  00A7               	movwf	___flmul@a+3
   741  0F97  1683               	bsf	3,5	;RP0=1, select bank1
   742  0F98  1303               	bcf	3,6	;RP1=0, select bank1
   743  0F99  0830               	movf	(_PWM_PERIOD+2)^(0+128),w
   744  0F9A  1283               	bcf	3,5	;RP0=0, select bank0
   745  0F9B  1303               	bcf	3,6	;RP1=0, select bank0
   746  0F9C  00A6               	movwf	___flmul@a+2
   747  0F9D  1683               	bsf	3,5	;RP0=1, select bank1
   748  0F9E  1303               	bcf	3,6	;RP1=0, select bank1
   749  0F9F  082F               	movf	(_PWM_PERIOD+1)^(0+128),w
   750  0FA0  1283               	bcf	3,5	;RP0=0, select bank0
   751  0FA1  1303               	bcf	3,6	;RP1=0, select bank0
   752  0FA2  00A5               	movwf	___flmul@a+1
   753  0FA3  1683               	bsf	3,5	;RP0=1, select bank1
   754  0FA4  1303               	bcf	3,6	;RP1=0, select bank1
   755  0FA5  082E               	movf	_PWM_PERIOD^(0+128),w
   756  0FA6  1283               	bcf	3,5	;RP0=0, select bank0
   757  0FA7  1303               	bcf	3,6	;RP1=0, select bank0
   758  0FA8  00A4               	movwf	___flmul@a
   759  0FA9  304B               	movlw	75
   760  0FAA  00A3               	movwf	___flmul@b+3
   761  0FAB  3074               	movlw	116
   762  0FAC  00A2               	movwf	___flmul@b+2
   763  0FAD  3024               	movlw	36
   764  0FAE  00A1               	movwf	___flmul@b+1
   765  0FAF  3000               	movlw	0
   766  0FB0  00A0               	movwf	___flmul@b
   767  0FB1  120A  118A  24E7  120A  158A  	fcall	___flmul
   768  0FB6  1283               	bcf	3,5	;RP0=0, select bank0
   769  0FB7  1303               	bcf	3,6	;RP1=0, select bank0
   770  0FB8  0823               	movf	?___flmul+3,w
   771  0FB9  00BC               	movwf	___fldiv@b+3
   772  0FBA  0822               	movf	?___flmul+2,w
   773  0FBB  00BB               	movwf	___fldiv@b+2
   774  0FBC  0821               	movf	?___flmul+1,w
   775  0FBD  00BA               	movwf	___fldiv@b+1
   776  0FBE  0820               	movf	?___flmul,w
   777  0FBF  00B9               	movwf	___fldiv@b
   778  0FC0  3042               	movlw	66
   779  0FC1  00B8               	movwf	___fldiv@a+3
   780  0FC2  3080               	movlw	128
   781  0FC3  00B7               	movwf	___fldiv@a+2
   782  0FC4  3000               	movlw	0
   783  0FC5  00B6               	movwf	___fldiv@a+1
   784  0FC6  3000               	movlw	0
   785  0FC7  00B5               	movwf	___fldiv@a
   786  0FC8  120A  118A  2115  120A  158A  	fcall	___fldiv
   787  0FCD  1283               	bcf	3,5	;RP0=0, select bank0
   788  0FCE  1303               	bcf	3,6	;RP1=0, select bank0
   789  0FCF  0838               	movf	?___fldiv+3,w
   790  0FD0  00D6               	movwf	___fladd@a+3
   791  0FD1  0837               	movf	?___fldiv+2,w
   792  0FD2  00D5               	movwf	___fladd@a+2
   793  0FD3  0836               	movf	?___fldiv+1,w
   794  0FD4  00D4               	movwf	___fladd@a+1
   795  0FD5  0835               	movf	?___fldiv,w
   796  0FD6  00D3               	movwf	___fladd@a
   797  0FD7  30BF               	movlw	191
   798  0FD8  00D2               	movwf	___fladd@b+3
   799  0FD9  3080               	movlw	128
   800  0FDA  00D1               	movwf	___fladd@b+2
   801  0FDB  3000               	movlw	0
   802  0FDC  00D0               	movwf	___fladd@b+1
   803  0FDD  3000               	movlw	0
   804  0FDE  00CF               	movwf	___fladd@b
   805  0FDF  120A  118A  22B8  120A  158A  	fcall	___fladd
   806  0FE4  1283               	bcf	3,5	;RP0=0, select bank0
   807  0FE5  1303               	bcf	3,6	;RP1=0, select bank0
   808  0FE6  0852               	movf	?___fladd+3,w
   809  0FE7  00E6               	movwf	___fltol@f1+3
   810  0FE8  0851               	movf	?___fladd+2,w
   811  0FE9  00E5               	movwf	___fltol@f1+2
   812  0FEA  0850               	movf	?___fladd+1,w
   813  0FEB  00E4               	movwf	___fltol@f1+1
   814  0FEC  084F               	movf	?___fladd,w
   815  0FED  00E3               	movwf	___fltol@f1
   816  0FEE  120A  158A  25AC   	fcall	___fltol
   817  0FF1  1283               	bcf	3,5	;RP0=0, select bank0
   818  0FF2  1303               	bcf	3,6	;RP1=0, select bank0
   819  0FF3  0864               	movf	?___fltol+1,w
   820  0FF4  1683               	bsf	3,5	;RP0=1, select bank1
   821  0FF5  1303               	bcf	3,6	;RP1=0, select bank1
   822  0FF6  00A1               	movwf	(___set_pwm_freq@PR2_value+1)^(0+128)
   823  0FF7  1283               	bcf	3,5	;RP0=0, select bank0
   824  0FF8  1303               	bcf	3,6	;RP1=0, select bank0
   825  0FF9  0863               	movf	?___fltol,w
   826  0FFA  1683               	bsf	3,5	;RP0=1, select bank1
   827  0FFB  1303               	bcf	3,6	;RP1=0, select bank1
   828  0FFC  00A0               	movwf	___set_pwm_freq@PR2_value^(0+128)
   829                           
   830                           ;main.c: 35:     PR2 = PR2_value;
   831  0FFD  0820               	movf	___set_pwm_freq@PR2_value^(0+128),w
   832  0FFE  0092               	movwf	18	;volatile
   833  0FFF  0008               	return
   834  1000                     __end_of___set_pwm_freq:	
   835                           
   836                           	psect	text2
   837  02B8                     __ptext2:	
   838 ;; *************** function ___fladd *****************
   839 ;; Defined at:
   840 ;;		line 10 in file "/opt/microchip/xc8/v2.05/pic/sources/c90/common/sprcadd.c"
   841 ;; Parameters:    Size  Location     Type
   842 ;;  b               4   47[BANK0 ] void 
   843 ;;  a               4   51[BANK0 ] void 
   844 ;; Auto vars:     Size  Location     Type
   845 ;;  grs             1   66[BANK0 ] unsigned char 
   846 ;;  bexp            1   65[BANK0 ] unsigned char 
   847 ;;  aexp            1   64[BANK0 ] unsigned char 
   848 ;;  signs           1   63[BANK0 ] unsigned char 
   849 ;; Return value:  Size  Location     Type
   850 ;;                  4   47[BANK0 ] unsigned char 
   851 ;; Registers used:
   852 ;;		wreg, status,2, status,0, btemp+1
   853 ;; Tracked objects:
   854 ;;		On entry : 0/0
   855 ;;		On exit  : 0/0
   856 ;;		Unchanged: 0/0
   857 ;; Data sizes:     COMMON   BANK0   BANK1   BANK3   BANK2
   858 ;;      Params:         0       8       0       0       0
   859 ;;      Locals:         0       4       0       0       0
   860 ;;      Temps:          0       8       0       0       0
   861 ;;      Totals:         0      20       0       0       0
   862 ;;Total ram usage:       20 bytes
   863 ;; Hardware stack levels used:    1
   864 ;; This function calls:
   865 ;;		Nothing
   866 ;; This function is called by:
   867 ;;		___set_pwm_freq
   868 ;; This function uses a non-reentrant model
   869 ;;
   870                           
   871                           
   872                           ;psect for function ___fladd
   873  02B8                     ___fladd:	
   874                           
   875                           ;incstack = 0
   876                           ; Regs used in ___fladd: [wreg+status,2+status,0+btemp+1]
   877  02B8  1283               	bcf	3,5	;RP0=0, select bank0
   878  02B9  1303               	bcf	3,6	;RP1=0, select bank0
   879  02BA  0852               	movf	___fladd@b+3,w
   880  02BB  3980               	andlw	128
   881  02BC  00D7               	movwf	??___fladd
   882  02BD  0857               	movf	??___fladd,w
   883  02BE  00DF               	movwf	___fladd@signs
   884  02BF  0852               	movf	___fladd@b+3,w
   885  02C0  00D7               	movwf	??___fladd
   886  02C1  0757               	addwf	??___fladd,w
   887  02C2  00D8               	movwf	??___fladd+1
   888  02C3  0858               	movf	??___fladd+1,w
   889  02C4  00E1               	movwf	___fladd@bexp
   890  02C5  1BD1               	btfsc	___fladd@b+2,7
   891  02C6  1461               	bsf	___fladd@bexp,0
   892  02C7  0861               	movf	___fladd@bexp,w
   893  02C8  1903               	btfsc	3,2
   894  02C9  2AD8               	goto	l1323
   895  02CA  0A61               	incf	___fladd@bexp,w
   896  02CB  1D03               	btfss	3,2
   897  02CC  2AD5               	goto	l1319
   898  02CD  3000               	movlw	0
   899  02CE  00D2               	movwf	___fladd@b+3
   900  02CF  3000               	movlw	0
   901  02D0  00D1               	movwf	___fladd@b+2
   902  02D1  3000               	movlw	0
   903  02D2  00D0               	movwf	___fladd@b+1
   904  02D3  3000               	movlw	0
   905  02D4  00CF               	movwf	___fladd@b
   906  02D5                     l1319:	
   907  02D5  17D1               	bsf	___fladd@b+2,7
   908  02D6  01D2               	clrf	___fladd@b+3
   909  02D7  2AE0               	goto	l1325
   910  02D8                     l1323:	
   911  02D8  3000               	movlw	0
   912  02D9  00D2               	movwf	___fladd@b+3
   913  02DA  3000               	movlw	0
   914  02DB  00D1               	movwf	___fladd@b+2
   915  02DC  3000               	movlw	0
   916  02DD  00D0               	movwf	___fladd@b+1
   917  02DE  3000               	movlw	0
   918  02DF  00CF               	movwf	___fladd@b
   919  02E0                     l1325:	
   920  02E0  0856               	movf	___fladd@a+3,w
   921  02E1  3980               	andlw	128
   922  02E2  00D7               	movwf	??___fladd
   923  02E3  0857               	movf	??___fladd,w
   924  02E4  00E0               	movwf	___fladd@aexp
   925  02E5  0860               	movf	___fladd@aexp,w
   926  02E6  065F               	xorwf	___fladd@signs,w
   927  02E7  1D03               	btfss	3,2
   928  02E8  175F               	bsf	___fladd@signs,6
   929  02E9  0856               	movf	___fladd@a+3,w
   930  02EA  00D7               	movwf	??___fladd
   931  02EB  0757               	addwf	??___fladd,w
   932  02EC  00D8               	movwf	??___fladd+1
   933  02ED  0858               	movf	??___fladd+1,w
   934  02EE  00E0               	movwf	___fladd@aexp
   935  02EF  1BD5               	btfsc	___fladd@a+2,7
   936  02F0  1460               	bsf	___fladd@aexp,0
   937  02F1  0860               	movf	___fladd@aexp,w
   938  02F2  1903               	btfsc	3,2
   939  02F3  2B02               	goto	l1347
   940  02F4  0A60               	incf	___fladd@aexp,w
   941  02F5  1D03               	btfss	3,2
   942  02F6  2AFF               	goto	l1343
   943  02F7  3000               	movlw	0
   944  02F8  00D6               	movwf	___fladd@a+3
   945  02F9  3000               	movlw	0
   946  02FA  00D5               	movwf	___fladd@a+2
   947  02FB  3000               	movlw	0
   948  02FC  00D4               	movwf	___fladd@a+1
   949  02FD  3000               	movlw	0
   950  02FE  00D3               	movwf	___fladd@a
   951  02FF                     l1343:	
   952  02FF  17D5               	bsf	___fladd@a+2,7
   953  0300  01D6               	clrf	___fladd@a+3
   954  0301  2B0A               	goto	l418
   955  0302                     l1347:	
   956  0302  3000               	movlw	0
   957  0303  00D6               	movwf	___fladd@a+3
   958  0304  3000               	movlw	0
   959  0305  00D5               	movwf	___fladd@a+2
   960  0306  3000               	movlw	0
   961  0307  00D4               	movwf	___fladd@a+1
   962  0308  3000               	movlw	0
   963  0309  00D3               	movwf	___fladd@a
   964  030A                     l418:	
   965  030A  0861               	movf	___fladd@bexp,w
   966  030B  0260               	subwf	___fladd@aexp,w
   967  030C  1803               	skipnc
   968  030D  2B50               	goto	l1383
   969  030E  1F5F               	btfss	___fladd@signs,6
   970  030F  2B14               	goto	l1353
   971  0310  3080               	movlw	128
   972  0311  00D7               	movwf	??___fladd
   973  0312  0857               	movf	??___fladd,w
   974  0313  06DF               	xorwf	___fladd@signs,f
   975  0314                     l1353:	
   976  0314  0861               	movf	___fladd@bexp,w
   977  0315  00D7               	movwf	??___fladd
   978  0316  0857               	movf	??___fladd,w
   979  0317  00E2               	movwf	___fladd@grs
   980  0318  0860               	movf	___fladd@aexp,w
   981  0319  00D7               	movwf	??___fladd
   982  031A  0857               	movf	??___fladd,w
   983  031B  00E1               	movwf	___fladd@bexp
   984  031C  0862               	movf	___fladd@grs,w
   985  031D  00D7               	movwf	??___fladd
   986  031E  0857               	movf	??___fladd,w
   987  031F  00E0               	movwf	___fladd@aexp
   988  0320  084F               	movf	___fladd@b,w
   989  0321  00D7               	movwf	??___fladd
   990  0322  0857               	movf	??___fladd,w
   991  0323  00E2               	movwf	___fladd@grs
   992  0324  0853               	movf	___fladd@a,w
   993  0325  00D7               	movwf	??___fladd
   994  0326  0857               	movf	??___fladd,w
   995  0327  00CF               	movwf	___fladd@b
   996  0328  0862               	movf	___fladd@grs,w
   997  0329  00D7               	movwf	??___fladd
   998  032A  0857               	movf	??___fladd,w
   999  032B  00D3               	movwf	___fladd@a
  1000  032C  0850               	movf	___fladd@b+1,w
  1001  032D  00D7               	movwf	??___fladd
  1002  032E  0857               	movf	??___fladd,w
  1003  032F  00E2               	movwf	___fladd@grs
  1004  0330  0854               	movf	___fladd@a+1,w
  1005  0331  00D7               	movwf	??___fladd
  1006  0332  0857               	movf	??___fladd,w
  1007  0333  00D0               	movwf	___fladd@b+1
  1008  0334  0862               	movf	___fladd@grs,w
  1009  0335  00D7               	movwf	??___fladd
  1010  0336  0857               	movf	??___fladd,w
  1011  0337  00D4               	movwf	___fladd@a+1
  1012  0338  0851               	movf	___fladd@b+2,w
  1013  0339  00D7               	movwf	??___fladd
  1014  033A  0857               	movf	??___fladd,w
  1015  033B  00E2               	movwf	___fladd@grs
  1016  033C  0855               	movf	___fladd@a+2,w
  1017  033D  00D7               	movwf	??___fladd
  1018  033E  0857               	movf	??___fladd,w
  1019  033F  00D1               	movwf	___fladd@b+2
  1020  0340  0862               	movf	___fladd@grs,w
  1021  0341  00D7               	movwf	??___fladd
  1022  0342  0857               	movf	??___fladd,w
  1023  0343  00D5               	movwf	___fladd@a+2
  1024  0344  0852               	movf	___fladd@b+3,w
  1025  0345  00D7               	movwf	??___fladd
  1026  0346  0857               	movf	??___fladd,w
  1027  0347  00E2               	movwf	___fladd@grs
  1028  0348  0856               	movf	___fladd@a+3,w
  1029  0349  00D7               	movwf	??___fladd
  1030  034A  0857               	movf	??___fladd,w
  1031  034B  00D2               	movwf	___fladd@b+3
  1032  034C  0862               	movf	___fladd@grs,w
  1033  034D  00D7               	movwf	??___fladd
  1034  034E  0857               	movf	??___fladd,w
  1035  034F  00D6               	movwf	___fladd@a+3
  1036  0350                     l1383:	
  1037  0350  01E2               	clrf	___fladd@grs
  1038  0351  0860               	movf	___fladd@aexp,w
  1039  0352  00D7               	movwf	??___fladd
  1040  0353  01D8               	clrf	??___fladd+1
  1041  0354  0858               	movf	??___fladd+1,w
  1042  0355  00DA               	movwf	??___fladd+3
  1043  0356  0861               	movf	___fladd@bexp,w
  1044  0357  0257               	subwf	??___fladd,w
  1045  0358  00D9               	movwf	??___fladd+2
  1046  0359  1C03               	skipc
  1047  035A  03DA               	decf	??___fladd+3,f
  1048  035B  085A               	movf	??___fladd+3,w
  1049  035C  3A80               	xorlw	128
  1050  035D  00FF               	movwf	127
  1051  035E  3080               	movlw	128
  1052  035F  027F               	subwf	127,w
  1053  0360  1D03               	skipz
  1054  0361  2B64               	goto	u1645
  1055  0362  301A               	movlw	26
  1056  0363  0259               	subwf	??___fladd+2,w
  1057  0364                     u1645:	
  1058  0364  1C03               	skipc
  1059  0365  2B9D               	goto	l1401
  1060  0366  1283               	bcf	3,5	;RP0=0, select bank0
  1061  0367  1303               	bcf	3,6	;RP1=0, select bank0
  1062  0368  0852               	movf	___fladd@b+3,w
  1063  0369  0451               	iorwf	___fladd@b+2,w
  1064  036A  0450               	iorwf	___fladd@b+1,w
  1065  036B  044F               	iorwf	___fladd@b,w
  1066  036C  1903               	btfsc	3,2
  1067  036D  2B70               	goto	u1650
  1068  036E  3001               	movlw	1
  1069  036F  2B71               	goto	u1660
  1070  0370                     u1650:	
  1071  0370  3000               	movlw	0
  1072  0371                     u1660:	
  1073  0371  00D7               	movwf	??___fladd
  1074  0372  0857               	movf	??___fladd,w
  1075  0373  00E2               	movwf	___fladd@grs
  1076  0374  3000               	movlw	0
  1077  0375  00D2               	movwf	___fladd@b+3
  1078  0376  3000               	movlw	0
  1079  0377  00D1               	movwf	___fladd@b+2
  1080  0378  3000               	movlw	0
  1081  0379  00D0               	movwf	___fladd@b+1
  1082  037A  3000               	movlw	0
  1083  037B  00CF               	movwf	___fladd@b
  1084  037C  0860               	movf	___fladd@aexp,w
  1085  037D  00D7               	movwf	??___fladd
  1086  037E  0857               	movf	??___fladd,w
  1087  037F  00E1               	movwf	___fladd@bexp
  1088  0380  2BA3               	goto	l422
  1089  0381                     l424:	
  1090  0381  1C62               	btfss	___fladd@grs,0
  1091  0382  2B8C               	goto	l1391
  1092  0383  0862               	movf	___fladd@grs,w
  1093  0384  00D7               	movwf	??___fladd
  1094  0385  1003               	clrc
  1095  0386  0C57               	rrf	??___fladd,w
  1096  0387  3801               	iorlw	1
  1097  0388  00D8               	movwf	??___fladd+1
  1098  0389  0858               	movf	??___fladd+1,w
  1099  038A  00E2               	movwf	___fladd@grs
  1100  038B  2B8E               	goto	l1393
  1101  038C                     l1391:	
  1102  038C  1003               	clrc
  1103  038D  0CE2               	rrf	___fladd@grs,f
  1104  038E                     l1393:	
  1105  038E  184F               	btfsc	___fladd@b,0
  1106  038F  17E2               	bsf	___fladd@grs,7
  1107  0390  3001               	movlw	1
  1108  0391  00D7               	movwf	??___fladd
  1109  0392                     u1695:	
  1110  0392  0D52               	rlf	___fladd@b+3,w
  1111  0393  0CD2               	rrf	___fladd@b+3,f
  1112  0394  0CD1               	rrf	___fladd@b+2,f
  1113  0395  0CD0               	rrf	___fladd@b+1,f
  1114  0396  0CCF               	rrf	___fladd@b,f
  1115  0397  0BD7               	decfsz	??___fladd& (0+127),f
  1116  0398  2B92               	goto	u1695
  1117  0399  3001               	movlw	1
  1118  039A  00D7               	movwf	??___fladd
  1119  039B  0857               	movf	??___fladd,w
  1120  039C  07E1               	addwf	___fladd@bexp,f
  1121  039D                     l1401:	
  1122  039D  1283               	bcf	3,5	;RP0=0, select bank0
  1123  039E  1303               	bcf	3,6	;RP1=0, select bank0
  1124  039F  0860               	movf	___fladd@aexp,w
  1125  03A0  0261               	subwf	___fladd@bexp,w
  1126  03A1  1C03               	skipc
  1127  03A2  2B81               	goto	l424
  1128  03A3                     l422:	
  1129  03A3  1B5F               	btfsc	___fladd@signs,6
  1130  03A4  2BE4               	goto	l1427
  1131  03A5  0861               	movf	___fladd@bexp,w
  1132  03A6  1D03               	btfss	3,2
  1133  03A7  2BB1               	goto	l1409
  1134  03A8  3000               	movlw	0
  1135  03A9  00D2               	movwf	?___fladd+3
  1136  03AA  3000               	movlw	0
  1137  03AB  00D1               	movwf	?___fladd+2
  1138  03AC  3000               	movlw	0
  1139  03AD  00D0               	movwf	?___fladd+1
  1140  03AE  3000               	movlw	0
  1141  03AF  00CF               	movwf	?___fladd
  1142  03B0  0008               	return
  1143  03B1                     l1409:	
  1144  03B1  0853               	movf	___fladd@a,w
  1145  03B2  07CF               	addwf	___fladd@b,f
  1146  03B3  0854               	movf	___fladd@a+1,w
  1147  03B4  1103               	clrz
  1148  03B5  1803               	skipnc
  1149  03B6  3E01               	addlw	1
  1150  03B7  1D03               	btfss	3,2
  1151  03B8  07D0               	addwf	___fladd@b+1,f
  1152  03B9  0855               	movf	___fladd@a+2,w
  1153  03BA  1103               	clrz
  1154  03BB  1803               	skipnc
  1155  03BC  3E01               	addlw	1
  1156  03BD  1D03               	btfss	3,2
  1157  03BE  07D1               	addwf	___fladd@b+2,f
  1158  03BF  0856               	movf	___fladd@a+3,w
  1159  03C0  1103               	clrz
  1160  03C1  1803               	skipnc
  1161  03C2  3E01               	addlw	1
  1162  03C3  1D03               	btfss	3,2
  1163  03C4  07D2               	addwf	___fladd@b+3,f
  1164  03C5  1C52               	btfss	___fladd@b+3,0
  1165  03C6  2C86               	goto	l1461
  1166  03C7  1C62               	btfss	___fladd@grs,0
  1167  03C8  2BD2               	goto	l1417
  1168  03C9  0862               	movf	___fladd@grs,w
  1169  03CA  00D7               	movwf	??___fladd
  1170  03CB  1003               	clrc
  1171  03CC  0C57               	rrf	??___fladd,w
  1172  03CD  3801               	iorlw	1
  1173  03CE  00D8               	movwf	??___fladd+1
  1174  03CF  0858               	movf	??___fladd+1,w
  1175  03D0  00E2               	movwf	___fladd@grs
  1176  03D1  2BD4               	goto	l1419
  1177  03D2                     l1417:	
  1178  03D2  1003               	clrc
  1179  03D3  0CE2               	rrf	___fladd@grs,f
  1180  03D4                     l1419:	
  1181  03D4  184F               	btfsc	___fladd@b,0
  1182  03D5  17E2               	bsf	___fladd@grs,7
  1183  03D6  3001               	movlw	1
  1184  03D7  00D7               	movwf	??___fladd
  1185  03D8                     u1775:	
  1186  03D8  0D52               	rlf	___fladd@b+3,w
  1187  03D9  0CD2               	rrf	___fladd@b+3,f
  1188  03DA  0CD1               	rrf	___fladd@b+2,f
  1189  03DB  0CD0               	rrf	___fladd@b+1,f
  1190  03DC  0CCF               	rrf	___fladd@b,f
  1191  03DD  0BD7               	decfsz	??___fladd& (0+127),f
  1192  03DE  2BD8               	goto	u1775
  1193  03DF  3001               	movlw	1
  1194  03E0  00D7               	movwf	??___fladd
  1195  03E1  0857               	movf	??___fladd,w
  1196  03E2  07E1               	addwf	___fladd@bexp,f
  1197  03E3  2C86               	goto	l1461
  1198  03E4                     l1427:	
  1199  03E4  0852               	movf	___fladd@b+3,w
  1200  03E5  3A80               	xorlw	128
  1201  03E6  00FF               	movwf	127
  1202  03E7  0856               	movf	___fladd@a+3,w
  1203  03E8  3A80               	xorlw	128
  1204  03E9  027F               	subwf	127,w
  1205  03EA  1D03               	skipz
  1206  03EB  2BF6               	goto	u1783
  1207  03EC  0855               	movf	___fladd@a+2,w
  1208  03ED  0251               	subwf	___fladd@b+2,w
  1209  03EE  1D03               	skipz
  1210  03EF  2BF6               	goto	u1783
  1211  03F0  0854               	movf	___fladd@a+1,w
  1212  03F1  0250               	subwf	___fladd@b+1,w
  1213  03F2  1D03               	skipz
  1214  03F3  2BF6               	goto	u1783
  1215  03F4  0853               	movf	___fladd@a,w
  1216  03F5  024F               	subwf	___fladd@b,w
  1217  03F6                     u1783:	
  1218  03F6  1803               	skipnc
  1219  03F7  2C4E               	goto	l1437
  1220  03F8  30FF               	movlw	255
  1221  03F9  00D7               	movwf	??___fladd
  1222  03FA  30FF               	movlw	255
  1223  03FB  00D8               	movwf	??___fladd+1
  1224  03FC  30FF               	movlw	255
  1225  03FD  00D9               	movwf	??___fladd+2
  1226  03FE  30FF               	movlw	255
  1227  03FF  00DA               	movwf	??___fladd+3
  1228  0400  0853               	movf	___fladd@a,w
  1229  0401  00DB               	movwf	??___fladd+4
  1230  0402  0854               	movf	___fladd@a+1,w
  1231  0403  00DC               	movwf	??___fladd+5
  1232  0404  0855               	movf	___fladd@a+2,w
  1233  0405  00DD               	movwf	??___fladd+6
  1234  0406  0856               	movf	___fladd@a+3,w
  1235  0407  00DE               	movwf	??___fladd+7
  1236  0408  084F               	movf	___fladd@b,w
  1237  0409  02DB               	subwf	??___fladd+4,f
  1238  040A  0850               	movf	___fladd@b+1,w
  1239  040B  1C03               	skipc
  1240  040C  0F50               	incfsz	___fladd@b+1,w
  1241  040D  2C0F               	goto	u1791
  1242  040E  2C10               	goto	u1792
  1243  040F                     u1791:	
  1244  040F  02DC               	subwf	??___fladd+5,f
  1245  0410                     u1792:	
  1246  0410  0851               	movf	___fladd@b+2,w
  1247  0411  1C03               	skipc
  1248  0412  0F51               	incfsz	___fladd@b+2,w
  1249  0413  2C15               	goto	u1793
  1250  0414  2C16               	goto	u1794
  1251  0415                     u1793:	
  1252  0415  02DD               	subwf	??___fladd+6,f
  1253  0416                     u1794:	
  1254  0416  0852               	movf	___fladd@b+3,w
  1255  0417  1C03               	skipc
  1256  0418  0F52               	incfsz	___fladd@b+3,w
  1257  0419  2C1B               	goto	u1795
  1258  041A  2C1C               	goto	u1796
  1259  041B                     u1795:	
  1260  041B  02DE               	subwf	??___fladd+7,f
  1261  041C                     u1796:	
  1262  041C  085B               	movf	??___fladd+4,w
  1263  041D  07D7               	addwf	??___fladd,f
  1264  041E  085C               	movf	??___fladd+5,w
  1265  041F  1803               	skipnc
  1266  0420  0F5C               	incfsz	??___fladd+5,w
  1267  0421  2C23               	goto	u1800
  1268  0422  2C24               	goto	u1801
  1269  0423                     u1800:	
  1270  0423  07D8               	addwf	??___fladd+1,f
  1271  0424                     u1801:	
  1272  0424  085D               	movf	??___fladd+6,w
  1273  0425  1803               	skipnc
  1274  0426  0F5D               	incfsz	??___fladd+6,w
  1275  0427  2C29               	goto	u1802
  1276  0428  2C2A               	goto	u1803
  1277  0429                     u1802:	
  1278  0429  07D9               	addwf	??___fladd+2,f
  1279  042A                     u1803:	
  1280  042A  085E               	movf	??___fladd+7,w
  1281  042B  1803               	skipnc
  1282  042C  0A5E               	incf	??___fladd+7,w
  1283  042D  07DA               	addwf	??___fladd+3,f
  1284  042E  085A               	movf	??___fladd+3,w
  1285  042F  00D2               	movwf	___fladd@b+3
  1286  0430  0859               	movf	??___fladd+2,w
  1287  0431  00D1               	movwf	___fladd@b+2
  1288  0432  0858               	movf	??___fladd+1,w
  1289  0433  00D0               	movwf	___fladd@b+1
  1290  0434  0857               	movf	??___fladd,w
  1291  0435  00CF               	movwf	___fladd@b
  1292  0436  3080               	movlw	128
  1293  0437  00D7               	movwf	??___fladd
  1294  0438  0857               	movf	??___fladd,w
  1295  0439  06DF               	xorwf	___fladd@signs,f
  1296  043A  09E2               	comf	___fladd@grs,f
  1297  043B  0AE2               	incf	___fladd@grs,f
  1298  043C  0862               	movf	___fladd@grs,w
  1299  043D  1D03               	btfss	3,2
  1300  043E  2C5C               	goto	l439
  1301  043F  3001               	movlw	1
  1302  0440  07CF               	addwf	___fladd@b,f
  1303  0441  3000               	movlw	0
  1304  0442  1803               	skipnc
  1305  0443  3001               	movlw	1
  1306  0444  07D0               	addwf	___fladd@b+1,f
  1307  0445  3000               	movlw	0
  1308  0446  1803               	skipnc
  1309  0447  3001               	movlw	1
  1310  0448  07D1               	addwf	___fladd@b+2,f
  1311  0449  3000               	movlw	0
  1312  044A  1803               	skipnc
  1313  044B  3001               	movlw	1
  1314  044C  07D2               	addwf	___fladd@b+3,f
  1315  044D  2C5C               	goto	l439
  1316  044E                     l1437:	
  1317  044E  0853               	movf	___fladd@a,w
  1318  044F  02CF               	subwf	___fladd@b,f
  1319  0450  0854               	movf	___fladd@a+1,w
  1320  0451  1C03               	skipc
  1321  0452  0F54               	incfsz	___fladd@a+1,w
  1322  0453  02D0               	subwf	___fladd@b+1,f
  1323  0454  0855               	movf	___fladd@a+2,w
  1324  0455  1C03               	skipc
  1325  0456  0F55               	incfsz	___fladd@a+2,w
  1326  0457  02D1               	subwf	___fladd@b+2,f
  1327  0458  0856               	movf	___fladd@a+3,w
  1328  0459  1C03               	skipc
  1329  045A  0F56               	incfsz	___fladd@a+3,w
  1330  045B  02D2               	subwf	___fladd@b+3,f
  1331  045C                     l439:	
  1332  045C  0852               	movf	___fladd@b+3,w
  1333  045D  0451               	iorwf	___fladd@b+2,w
  1334  045E  0450               	iorwf	___fladd@b+1,w
  1335  045F  044F               	iorwf	___fladd@b,w
  1336  0460  1D03               	skipz
  1337  0461  2C84               	goto	l1459
  1338  0462  0862               	movf	___fladd@grs,w
  1339  0463  1D03               	btfss	3,2
  1340  0464  2C84               	goto	l1459
  1341  0465  3000               	movlw	0
  1342  0466  00D2               	movwf	?___fladd+3
  1343  0467  3000               	movlw	0
  1344  0468  00D1               	movwf	?___fladd+2
  1345  0469  3000               	movlw	0
  1346  046A  00D0               	movwf	?___fladd+1
  1347  046B  3000               	movlw	0
  1348  046C  00CF               	movwf	?___fladd
  1349  046D  0008               	return
  1350  046E                     l1445:	
  1351  046E  3001               	movlw	1
  1352  046F  00D7               	movwf	??___fladd
  1353  0470                     u1845:	
  1354  0470  1003               	clrc
  1355  0471  0DCF               	rlf	___fladd@b,f
  1356  0472  0DD0               	rlf	___fladd@b+1,f
  1357  0473  0DD1               	rlf	___fladd@b+2,f
  1358  0474  0DD2               	rlf	___fladd@b+3,f
  1359  0475  0BD7               	decfsz	??___fladd,f
  1360  0476  2C70               	goto	u1845
  1361  0477  1BE2               	btfsc	___fladd@grs,7
  1362  0478  144F               	bsf	___fladd@b,0
  1363  0479  1C62               	btfss	___fladd@grs,0
  1364  047A  2C7D               	goto	l1453
  1365  047B  1403               	setc
  1366  047C  2C7E               	goto	L1
  1367  047D                     l1453:	
  1368  047D  1003               	clrc
  1369  047E                     L1:	
  1370  047E  0DE2               	rlf	___fladd@grs,f
  1371  047F  0861               	movf	___fladd@bexp,w
  1372  0480  1903               	btfsc	3,2
  1373  0481  2C84               	goto	l1459
  1374  0482  3001               	movlw	1
  1375  0483  02E1               	subwf	___fladd@bexp,f
  1376  0484                     l1459:	
  1377  0484  1FD1               	btfss	___fladd@b+2,7
  1378  0485  2C6E               	goto	l1445
  1379  0486                     l1461:	
  1380  0486  01E0               	clrf	___fladd@aexp
  1381  0487  1FE2               	btfss	___fladd@grs,7
  1382  0488  2C91               	goto	l1471
  1383  0489  0862               	movf	___fladd@grs,w
  1384  048A  397F               	andlw	127
  1385  048B  1903               	btfsc	3,2
  1386  048C  184F               	btfsc	___fladd@b,0
  1387  048D  2C8F               	goto	l1467
  1388  048E  2C91               	goto	l1471
  1389  048F                     l1467:	
  1390  048F  01E0               	clrf	___fladd@aexp
  1391  0490  0AE0               	incf	___fladd@aexp,f
  1392  0491                     l1471:	
  1393  0491  0860               	movf	___fladd@aexp,w
  1394  0492  1903               	btfsc	3,2
  1395  0493  2CC4               	goto	l452
  1396  0494  3001               	movlw	1
  1397  0495  07CF               	addwf	___fladd@b,f
  1398  0496  3000               	movlw	0
  1399  0497  1803               	skipnc
  1400  0498  3001               	movlw	1
  1401  0499  07D0               	addwf	___fladd@b+1,f
  1402  049A  3000               	movlw	0
  1403  049B  1803               	skipnc
  1404  049C  3001               	movlw	1
  1405  049D  07D1               	addwf	___fladd@b+2,f
  1406  049E  3000               	movlw	0
  1407  049F  1803               	skipnc
  1408  04A0  3001               	movlw	1
  1409  04A1  07D2               	addwf	___fladd@b+3,f
  1410  04A2  1C52               	btfss	___fladd@b+3,0
  1411  04A3  2CC4               	goto	l452
  1412  04A4  084F               	movf	___fladd@b,w
  1413  04A5  00D7               	movwf	??___fladd
  1414  04A6  0850               	movf	___fladd@b+1,w
  1415  04A7  00D8               	movwf	??___fladd+1
  1416  04A8  0851               	movf	___fladd@b+2,w
  1417  04A9  00D9               	movwf	??___fladd+2
  1418  04AA  0852               	movf	___fladd@b+3,w
  1419  04AB  00DA               	movwf	??___fladd+3
  1420  04AC  3001               	movlw	1
  1421  04AD  00DB               	movwf	??___fladd+4
  1422  04AE                     u1945:	
  1423  04AE  0D5A               	rlf	??___fladd+3,w
  1424  04AF  0CDA               	rrf	??___fladd+3,f
  1425  04B0  0CD9               	rrf	??___fladd+2,f
  1426  04B1  0CD8               	rrf	??___fladd+1,f
  1427  04B2  0CD7               	rrf	??___fladd,f
  1428  04B3  0BDB               	decfsz	??___fladd+4,f
  1429  04B4  2CAE               	goto	u1945
  1430  04B5  085A               	movf	??___fladd+3,w
  1431  04B6  00D2               	movwf	___fladd@b+3
  1432  04B7  0859               	movf	??___fladd+2,w
  1433  04B8  00D1               	movwf	___fladd@b+2
  1434  04B9  0858               	movf	??___fladd+1,w
  1435  04BA  00D0               	movwf	___fladd@b+1
  1436  04BB  0857               	movf	??___fladd,w
  1437  04BC  00CF               	movwf	___fladd@b
  1438  04BD  0A61               	incf	___fladd@bexp,w
  1439  04BE  1903               	btfsc	3,2
  1440  04BF  2CC4               	goto	l452
  1441  04C0  3001               	movlw	1
  1442  04C1  00D7               	movwf	??___fladd
  1443  04C2  0857               	movf	??___fladd,w
  1444  04C3  07E1               	addwf	___fladd@bexp,f
  1445  04C4                     l452:	
  1446  04C4  0A61               	incf	___fladd@bexp,w
  1447  04C5  1D03               	btfss	3,2
  1448  04C6  0861               	movf	___fladd@bexp,w
  1449  04C7  1D03               	btfss	3,2
  1450  04C8  2CD4               	goto	l1489
  1451  04C9  3000               	movlw	0
  1452  04CA  00D2               	movwf	___fladd@b+3
  1453  04CB  3000               	movlw	0
  1454  04CC  00D1               	movwf	___fladd@b+2
  1455  04CD  3000               	movlw	0
  1456  04CE  00D0               	movwf	___fladd@b+1
  1457  04CF  3000               	movlw	0
  1458  04D0  00CF               	movwf	___fladd@b
  1459  04D1  0861               	movf	___fladd@bexp,w
  1460  04D2  1903               	btfsc	3,2
  1461  04D3  01DF               	clrf	___fladd@signs
  1462  04D4                     l1489:	
  1463  04D4  1C61               	btfss	___fladd@bexp,0
  1464  04D5  2CD8               	goto	l1493
  1465  04D6  17D1               	bsf	___fladd@b+2,7
  1466  04D7  2CDC               	goto	l460
  1467  04D8                     l1493:	
  1468  04D8  307F               	movlw	127
  1469  04D9  00D7               	movwf	??___fladd
  1470  04DA  0857               	movf	??___fladd,w
  1471  04DB  05D1               	andwf	___fladd@b+2,f
  1472  04DC                     l460:	
  1473  04DC  0861               	movf	___fladd@bexp,w
  1474  04DD  00D7               	movwf	??___fladd
  1475  04DE  1003               	clrc
  1476  04DF  0C57               	rrf	??___fladd,w
  1477  04E0  00D8               	movwf	??___fladd+1
  1478  04E1  0858               	movf	??___fladd+1,w
  1479  04E2  00D2               	movwf	___fladd@b+3
  1480  04E3  1FDF               	btfss	___fladd@signs,7
  1481  04E4  0008               	return
  1482  04E5  17D2               	bsf	___fladd@b+3,7
  1483  04E6  0008               	return
  1484  04E7                     __end_of___fladd:	
  1485                           
  1486                           	psect	text3
  1487  0003                     __ptext3:	
  1488 ;; *************** function ___set_duty_cycle *****************
  1489 ;; Defined at:
  1490 ;;		line 64 in file "main.c"
  1491 ;; Parameters:    Size  Location     Type
  1492 ;;  duty_cycle      2   78[BANK0 ] int 
  1493 ;; Auto vars:     Size  Location     Type
  1494 ;;  dc_period       4    6[BANK1 ] float 
  1495 ;;  dc              4    2[BANK1 ] float 
  1496 ;;  reg_value       2   10[BANK1 ] int 
  1497 ;; Return value:  Size  Location     Type
  1498 ;;                  1    wreg      void 
  1499 ;; Registers used:
  1500 ;;		wreg, status,2, status,0, btemp+1, pclath, cstack
  1501 ;; Tracked objects:
  1502 ;;		On entry : 0/0
  1503 ;;		On exit  : 0/0
  1504 ;;		Unchanged: 0/0
  1505 ;; Data sizes:     COMMON   BANK0   BANK1   BANK3   BANK2
  1506 ;;      Params:         0       2       0       0       0
  1507 ;;      Locals:         0       0      10       0       0
  1508 ;;      Temps:          0       0       2       0       0
  1509 ;;      Totals:         0       2      12       0       0
  1510 ;;Total ram usage:       14 bytes
  1511 ;; Hardware stack levels used:    1
  1512 ;; Hardware stack levels required when called:    2
  1513 ;; This function calls:
  1514 ;;		___fldiv
  1515 ;;		___flmul
  1516 ;;		___fltol
  1517 ;;		___xxtofl
  1518 ;; This function is called by:
  1519 ;;		_main
  1520 ;; This function uses a non-reentrant model
  1521 ;;
  1522                           
  1523                           
  1524                           ;psect for function ___set_duty_cycle
  1525  0003                     ___set_duty_cycle:	
  1526                           
  1527                           ;main.c: 65:     float dc = (float) duty_cycle / 100;
  1528                           
  1529                           ;incstack = 0
  1530                           ; Regs used in ___set_duty_cycle: [wreg+status,2+status,0+btemp+1+pclath+cstack]
  1531  0003  3042               	movlw	66
  1532  0004  1283               	bcf	3,5	;RP0=0, select bank0
  1533  0005  1303               	bcf	3,6	;RP1=0, select bank0
  1534  0006  00B8               	movwf	___fldiv@a+3
  1535  0007  30C8               	movlw	200
  1536  0008  00B7               	movwf	___fldiv@a+2
  1537  0009  3000               	movlw	0
  1538  000A  00B6               	movwf	___fldiv@a+1
  1539  000B  3000               	movlw	0
  1540  000C  00B5               	movwf	___fldiv@a
  1541  000D  086E               	movf	___set_duty_cycle@duty_cycle,w
  1542  000E  00F0               	movwf	___xxtofl@val
  1543  000F  086F               	movf	___set_duty_cycle@duty_cycle+1,w
  1544  0010  00F1               	movwf	___xxtofl@val+1
  1545  0011  3000               	movlw	0
  1546  0012  1BF1               	btfsc	___xxtofl@val+1,7
  1547  0013  30FF               	movlw	255
  1548  0014  00F2               	movwf	___xxtofl@val+2
  1549  0015  00F3               	movwf	___xxtofl@val+3
  1550  0016  3001               	movlw	1
  1551  0017  120A  158A  269A  120A  118A  	fcall	___xxtofl
  1552  001C  0873               	movf	?___xxtofl+3,w
  1553  001D  1283               	bcf	3,5	;RP0=0, select bank0
  1554  001E  1303               	bcf	3,6	;RP1=0, select bank0
  1555  001F  00BC               	movwf	___fldiv@b+3
  1556  0020  0872               	movf	?___xxtofl+2,w
  1557  0021  00BB               	movwf	___fldiv@b+2
  1558  0022  0871               	movf	?___xxtofl+1,w
  1559  0023  00BA               	movwf	___fldiv@b+1
  1560  0024  0870               	movf	?___xxtofl,w
  1561  0025  00B9               	movwf	___fldiv@b
  1562  0026  120A  118A  2115  120A  118A  	fcall	___fldiv
  1563  002B  1283               	bcf	3,5	;RP0=0, select bank0
  1564  002C  1303               	bcf	3,6	;RP1=0, select bank0
  1565  002D  0838               	movf	?___fldiv+3,w
  1566  002E  1683               	bsf	3,5	;RP0=1, select bank1
  1567  002F  1303               	bcf	3,6	;RP1=0, select bank1
  1568  0030  00A5               	movwf	(___set_duty_cycle@dc+3)^(0+128)
  1569  0031  1283               	bcf	3,5	;RP0=0, select bank0
  1570  0032  1303               	bcf	3,6	;RP1=0, select bank0
  1571  0033  0837               	movf	?___fldiv+2,w
  1572  0034  1683               	bsf	3,5	;RP0=1, select bank1
  1573  0035  1303               	bcf	3,6	;RP1=0, select bank1
  1574  0036  00A4               	movwf	(___set_duty_cycle@dc+2)^(0+128)
  1575  0037  1283               	bcf	3,5	;RP0=0, select bank0
  1576  0038  1303               	bcf	3,6	;RP1=0, select bank0
  1577  0039  0836               	movf	?___fldiv+1,w
  1578  003A  1683               	bsf	3,5	;RP0=1, select bank1
  1579  003B  1303               	bcf	3,6	;RP1=0, select bank1
  1580  003C  00A3               	movwf	(___set_duty_cycle@dc+1)^(0+128)
  1581  003D  1283               	bcf	3,5	;RP0=0, select bank0
  1582  003E  1303               	bcf	3,6	;RP1=0, select bank0
  1583  003F  0835               	movf	?___fldiv,w
  1584  0040  1683               	bsf	3,5	;RP0=1, select bank1
  1585  0041  1303               	bcf	3,6	;RP1=0, select bank1
  1586  0042  00A2               	movwf	___set_duty_cycle@dc^(0+128)
  1587                           
  1588                           ;main.c: 66:     float dc_period = dc * PWM_PERIOD;
  1589  0043  0831               	movf	(_PWM_PERIOD+3)^(0+128),w
  1590  0044  1283               	bcf	3,5	;RP0=0, select bank0
  1591  0045  1303               	bcf	3,6	;RP1=0, select bank0
  1592  0046  00A3               	movwf	___flmul@b+3
  1593  0047  1683               	bsf	3,5	;RP0=1, select bank1
  1594  0048  1303               	bcf	3,6	;RP1=0, select bank1
  1595  0049  0830               	movf	(_PWM_PERIOD+2)^(0+128),w
  1596  004A  1283               	bcf	3,5	;RP0=0, select bank0
  1597  004B  1303               	bcf	3,6	;RP1=0, select bank0
  1598  004C  00A2               	movwf	___flmul@b+2
  1599  004D  1683               	bsf	3,5	;RP0=1, select bank1
  1600  004E  1303               	bcf	3,6	;RP1=0, select bank1
  1601  004F  082F               	movf	(_PWM_PERIOD+1)^(0+128),w
  1602  0050  1283               	bcf	3,5	;RP0=0, select bank0
  1603  0051  1303               	bcf	3,6	;RP1=0, select bank0
  1604  0052  00A1               	movwf	___flmul@b+1
  1605  0053  1683               	bsf	3,5	;RP0=1, select bank1
  1606  0054  1303               	bcf	3,6	;RP1=0, select bank1
  1607  0055  082E               	movf	_PWM_PERIOD^(0+128),w
  1608  0056  1283               	bcf	3,5	;RP0=0, select bank0
  1609  0057  1303               	bcf	3,6	;RP1=0, select bank0
  1610  0058  00A0               	movwf	___flmul@b
  1611  0059  1683               	bsf	3,5	;RP0=1, select bank1
  1612  005A  1303               	bcf	3,6	;RP1=0, select bank1
  1613  005B  0825               	movf	(___set_duty_cycle@dc+3)^(0+128),w
  1614  005C  1283               	bcf	3,5	;RP0=0, select bank0
  1615  005D  1303               	bcf	3,6	;RP1=0, select bank0
  1616  005E  00A7               	movwf	___flmul@a+3
  1617  005F  1683               	bsf	3,5	;RP0=1, select bank1
  1618  0060  1303               	bcf	3,6	;RP1=0, select bank1
  1619  0061  0824               	movf	(___set_duty_cycle@dc+2)^(0+128),w
  1620  0062  1283               	bcf	3,5	;RP0=0, select bank0
  1621  0063  1303               	bcf	3,6	;RP1=0, select bank0
  1622  0064  00A6               	movwf	___flmul@a+2
  1623  0065  1683               	bsf	3,5	;RP0=1, select bank1
  1624  0066  1303               	bcf	3,6	;RP1=0, select bank1
  1625  0067  0823               	movf	(___set_duty_cycle@dc+1)^(0+128),w
  1626  0068  1283               	bcf	3,5	;RP0=0, select bank0
  1627  0069  1303               	bcf	3,6	;RP1=0, select bank0
  1628  006A  00A5               	movwf	___flmul@a+1
  1629  006B  1683               	bsf	3,5	;RP0=1, select bank1
  1630  006C  1303               	bcf	3,6	;RP1=0, select bank1
  1631  006D  0822               	movf	___set_duty_cycle@dc^(0+128),w
  1632  006E  1283               	bcf	3,5	;RP0=0, select bank0
  1633  006F  1303               	bcf	3,6	;RP1=0, select bank0
  1634  0070  00A4               	movwf	___flmul@a
  1635  0071  120A  118A  24E7  120A  118A  	fcall	___flmul
  1636  0076  1283               	bcf	3,5	;RP0=0, select bank0
  1637  0077  1303               	bcf	3,6	;RP1=0, select bank0
  1638  0078  0823               	movf	?___flmul+3,w
  1639  0079  1683               	bsf	3,5	;RP0=1, select bank1
  1640  007A  1303               	bcf	3,6	;RP1=0, select bank1
  1641  007B  00A9               	movwf	(___set_duty_cycle@dc_period+3)^(0+128)
  1642  007C  1283               	bcf	3,5	;RP0=0, select bank0
  1643  007D  1303               	bcf	3,6	;RP1=0, select bank0
  1644  007E  0822               	movf	?___flmul+2,w
  1645  007F  1683               	bsf	3,5	;RP0=1, select bank1
  1646  0080  1303               	bcf	3,6	;RP1=0, select bank1
  1647  0081  00A8               	movwf	(___set_duty_cycle@dc_period+2)^(0+128)
  1648  0082  1283               	bcf	3,5	;RP0=0, select bank0
  1649  0083  1303               	bcf	3,6	;RP1=0, select bank0
  1650  0084  0821               	movf	?___flmul+1,w
  1651  0085  1683               	bsf	3,5	;RP0=1, select bank1
  1652  0086  1303               	bcf	3,6	;RP1=0, select bank1
  1653  0087  00A7               	movwf	(___set_duty_cycle@dc_period+1)^(0+128)
  1654  0088  1283               	bcf	3,5	;RP0=0, select bank0
  1655  0089  1303               	bcf	3,6	;RP1=0, select bank0
  1656  008A  0820               	movf	?___flmul,w
  1657  008B  1683               	bsf	3,5	;RP0=1, select bank1
  1658  008C  1303               	bcf	3,6	;RP1=0, select bank1
  1659  008D  00A6               	movwf	___set_duty_cycle@dc_period^(0+128)
  1660                           
  1661                           ;main.c: 67:     int reg_value = (int) ((dc_period * 16000000) / 16);
  1662  008E  0829               	movf	(___set_duty_cycle@dc_period+3)^(0+128),w
  1663  008F  1283               	bcf	3,5	;RP0=0, select bank0
  1664  0090  1303               	bcf	3,6	;RP1=0, select bank0
  1665  0091  00A7               	movwf	___flmul@a+3
  1666  0092  1683               	bsf	3,5	;RP0=1, select bank1
  1667  0093  1303               	bcf	3,6	;RP1=0, select bank1
  1668  0094  0828               	movf	(___set_duty_cycle@dc_period+2)^(0+128),w
  1669  0095  1283               	bcf	3,5	;RP0=0, select bank0
  1670  0096  1303               	bcf	3,6	;RP1=0, select bank0
  1671  0097  00A6               	movwf	___flmul@a+2
  1672  0098  1683               	bsf	3,5	;RP0=1, select bank1
  1673  0099  1303               	bcf	3,6	;RP1=0, select bank1
  1674  009A  0827               	movf	(___set_duty_cycle@dc_period+1)^(0+128),w
  1675  009B  1283               	bcf	3,5	;RP0=0, select bank0
  1676  009C  1303               	bcf	3,6	;RP1=0, select bank0
  1677  009D  00A5               	movwf	___flmul@a+1
  1678  009E  1683               	bsf	3,5	;RP0=1, select bank1
  1679  009F  1303               	bcf	3,6	;RP1=0, select bank1
  1680  00A0  0826               	movf	___set_duty_cycle@dc_period^(0+128),w
  1681  00A1  1283               	bcf	3,5	;RP0=0, select bank0
  1682  00A2  1303               	bcf	3,6	;RP1=0, select bank0
  1683  00A3  00A4               	movwf	___flmul@a
  1684  00A4  304B               	movlw	75
  1685  00A5  00A3               	movwf	___flmul@b+3
  1686  00A6  3074               	movlw	116
  1687  00A7  00A2               	movwf	___flmul@b+2
  1688  00A8  3024               	movlw	36
  1689  00A9  00A1               	movwf	___flmul@b+1
  1690  00AA  3000               	movlw	0
  1691  00AB  00A0               	movwf	___flmul@b
  1692  00AC  120A  118A  24E7  120A  118A  	fcall	___flmul
  1693  00B1  1283               	bcf	3,5	;RP0=0, select bank0
  1694  00B2  1303               	bcf	3,6	;RP1=0, select bank0
  1695  00B3  0823               	movf	?___flmul+3,w
  1696  00B4  00BC               	movwf	___fldiv@b+3
  1697  00B5  0822               	movf	?___flmul+2,w
  1698  00B6  00BB               	movwf	___fldiv@b+2
  1699  00B7  0821               	movf	?___flmul+1,w
  1700  00B8  00BA               	movwf	___fldiv@b+1
  1701  00B9  0820               	movf	?___flmul,w
  1702  00BA  00B9               	movwf	___fldiv@b
  1703  00BB  3041               	movlw	65
  1704  00BC  00B8               	movwf	___fldiv@a+3
  1705  00BD  3080               	movlw	128
  1706  00BE  00B7               	movwf	___fldiv@a+2
  1707  00BF  3000               	movlw	0
  1708  00C0  00B6               	movwf	___fldiv@a+1
  1709  00C1  3000               	movlw	0
  1710  00C2  00B5               	movwf	___fldiv@a
  1711  00C3  120A  118A  2115  120A  118A  	fcall	___fldiv
  1712  00C8  1283               	bcf	3,5	;RP0=0, select bank0
  1713  00C9  1303               	bcf	3,6	;RP1=0, select bank0
  1714  00CA  0838               	movf	?___fldiv+3,w
  1715  00CB  00E6               	movwf	___fltol@f1+3
  1716  00CC  0837               	movf	?___fldiv+2,w
  1717  00CD  00E5               	movwf	___fltol@f1+2
  1718  00CE  0836               	movf	?___fldiv+1,w
  1719  00CF  00E4               	movwf	___fltol@f1+1
  1720  00D0  0835               	movf	?___fldiv,w
  1721  00D1  00E3               	movwf	___fltol@f1
  1722  00D2  120A  158A  25AC  120A  118A  	fcall	___fltol
  1723  00D7  1283               	bcf	3,5	;RP0=0, select bank0
  1724  00D8  1303               	bcf	3,6	;RP1=0, select bank0
  1725  00D9  0864               	movf	?___fltol+1,w
  1726  00DA  1683               	bsf	3,5	;RP0=1, select bank1
  1727  00DB  1303               	bcf	3,6	;RP1=0, select bank1
  1728  00DC  00AB               	movwf	(___set_duty_cycle@reg_value+1)^(0+128)
  1729  00DD  1283               	bcf	3,5	;RP0=0, select bank0
  1730  00DE  1303               	bcf	3,6	;RP1=0, select bank0
  1731  00DF  0863               	movf	?___fltol,w
  1732  00E0  1683               	bsf	3,5	;RP0=1, select bank1
  1733  00E1  1303               	bcf	3,6	;RP1=0, select bank1
  1734  00E2  00AA               	movwf	___set_duty_cycle@reg_value^(0+128)
  1735                           
  1736                           ;main.c: 73:     CCPR1L = reg_value >> 2;
  1737  00E3  082B               	movf	(___set_duty_cycle@reg_value+1)^(0+128),w
  1738  00E4  00A1               	movwf	(??___set_duty_cycle^(0+128)+1)
  1739  00E5  082A               	movf	___set_duty_cycle@reg_value^(0+128),w
  1740  00E6  00A0               	movwf	??___set_duty_cycle^(0+128)
  1741  00E7  0D21               	rlf	(??___set_duty_cycle^(0+128)+1),w
  1742  00E8  0CA1               	rrf	(??___set_duty_cycle^(0+128)+1),f
  1743  00E9  0CA0               	rrf	??___set_duty_cycle^(0+128),f
  1744  00EA  0D21               	rlf	(??___set_duty_cycle^(0+128)+1),w
  1745  00EB  0CA1               	rrf	(??___set_duty_cycle^(0+128)+1),f
  1746  00EC  0CA0               	rrf	??___set_duty_cycle^(0+128),f
  1747  00ED  0820               	movf	??___set_duty_cycle^(0+128),w
  1748  00EE  1283               	bcf	3,5	;RP0=0, select bank0
  1749  00EF  1303               	bcf	3,6	;RP1=0, select bank0
  1750  00F0  0095               	movwf	21	;volatile
  1751                           
  1752                           ;main.c: 74:     CCP1CONbits.CCP1X = (reg_value & 0b00000001);
  1753  00F1  1683               	bsf	3,5	;RP0=1, select bank1
  1754  00F2  1303               	bcf	3,6	;RP1=0, select bank1
  1755  00F3  082A               	movf	___set_duty_cycle@reg_value^(0+128),w
  1756  00F4  3901               	andlw	1
  1757  00F5  00A0               	movwf	??___set_duty_cycle^(0+128)
  1758  00F6  0EA0               	swapf	??___set_duty_cycle^(0+128),f
  1759  00F7  0DA0               	rlf	??___set_duty_cycle^(0+128),f
  1760  00F8  1283               	bcf	3,5	;RP0=0, select bank0
  1761  00F9  1303               	bcf	3,6	;RP1=0, select bank0
  1762  00FA  0817               	movf	23,w	;volatile
  1763  00FB  1683               	bsf	3,5	;RP0=1, select bank1
  1764  00FC  1303               	bcf	3,6	;RP1=0, select bank1
  1765  00FD  0620               	xorwf	??___set_duty_cycle^(0+128),w
  1766  00FE  39DF               	andlw	-33
  1767  00FF  0620               	xorwf	??___set_duty_cycle^(0+128),w
  1768  0100  1283               	bcf	3,5	;RP0=0, select bank0
  1769  0101  1303               	bcf	3,6	;RP1=0, select bank0
  1770  0102  0097               	movwf	23	;volatile
  1771                           
  1772                           ;main.c: 75:     CCP1CONbits.CCP1Y = (reg_value & 0b00000010);
  1773  0103  1683               	bsf	3,5	;RP0=1, select bank1
  1774  0104  1303               	bcf	3,6	;RP1=0, select bank1
  1775  0105  082A               	movf	___set_duty_cycle@reg_value^(0+128),w
  1776  0106  3902               	andlw	2
  1777  0107  00A0               	movwf	??___set_duty_cycle^(0+128)
  1778  0108  0EA0               	swapf	??___set_duty_cycle^(0+128),f
  1779  0109  1283               	bcf	3,5	;RP0=0, select bank0
  1780  010A  1303               	bcf	3,6	;RP1=0, select bank0
  1781  010B  0817               	movf	23,w	;volatile
  1782  010C  1683               	bsf	3,5	;RP0=1, select bank1
  1783  010D  1303               	bcf	3,6	;RP1=0, select bank1
  1784  010E  0620               	xorwf	??___set_duty_cycle^(0+128),w
  1785  010F  39EF               	andlw	-17
  1786  0110  0620               	xorwf	??___set_duty_cycle^(0+128),w
  1787  0111  1283               	bcf	3,5	;RP0=0, select bank0
  1788  0112  1303               	bcf	3,6	;RP1=0, select bank0
  1789  0113  0097               	movwf	23	;volatile
  1790  0114  0008               	return
  1791  0115                     __end_of___set_duty_cycle:	
  1792                           
  1793                           	psect	text4
  1794  0E9A                     __ptext4:	
  1795 ;; *************** function ___xxtofl *****************
  1796 ;; Defined at:
  1797 ;;		line 10 in file "/opt/microchip/xc8/v2.05/pic/sources/c90/common/xxtofl.c"
  1798 ;; Parameters:    Size  Location     Type
  1799 ;;  sign            1    wreg     unsigned char 
  1800 ;;  val             4    0[COMMON] long 
  1801 ;; Auto vars:     Size  Location     Type
  1802 ;;  sign            1    8[COMMON] unsigned char 
  1803 ;;  arg             4   10[COMMON] unsigned long 
  1804 ;;  exp             1    9[COMMON] unsigned char 
  1805 ;; Return value:  Size  Location     Type
  1806 ;;                  4    0[COMMON] unsigned char 
  1807 ;; Registers used:
  1808 ;;		wreg, status,2, status,0
  1809 ;; Tracked objects:
  1810 ;;		On entry : 0/0
  1811 ;;		On exit  : 0/0
  1812 ;;		Unchanged: 0/0
  1813 ;; Data sizes:     COMMON   BANK0   BANK1   BANK3   BANK2
  1814 ;;      Params:         4       0       0       0       0
  1815 ;;      Locals:         6       0       0       0       0
  1816 ;;      Temps:          4       0       0       0       0
  1817 ;;      Totals:        14       0       0       0       0
  1818 ;;Total ram usage:       14 bytes
  1819 ;; Hardware stack levels used:    1
  1820 ;; This function calls:
  1821 ;;		Nothing
  1822 ;; This function is called by:
  1823 ;;		___set_pwm_freq
  1824 ;;		___set_duty_cycle
  1825 ;; This function uses a non-reentrant model
  1826 ;;
  1827                           
  1828                           
  1829                           ;psect for function ___xxtofl
  1830  0E9A                     ___xxtofl:	
  1831                           
  1832                           ;incstack = 0
  1833                           ; Regs used in ___xxtofl: [wreg+status,2+status,0]
  1834                           ;___xxtofl@sign stored from wreg
  1835  0E9A  00F8               	movwf	___xxtofl@sign
  1836  0E9B  0878               	movf	___xxtofl@sign,w
  1837  0E9C  1D03               	btfss	3,2
  1838  0E9D  1FF3               	btfss	___xxtofl@val+3,7
  1839  0E9E  2EAF               	goto	l1787
  1840  0E9F  0970               	comf	___xxtofl@val,w
  1841  0EA0  00FA               	movwf	___xxtofl@arg
  1842  0EA1  0971               	comf	___xxtofl@val+1,w
  1843  0EA2  00FB               	movwf	___xxtofl@arg+1
  1844  0EA3  0972               	comf	___xxtofl@val+2,w
  1845  0EA4  00FC               	movwf	___xxtofl@arg+2
  1846  0EA5  0973               	comf	___xxtofl@val+3,w
  1847  0EA6  00FD               	movwf	___xxtofl@arg+3
  1848  0EA7  0AFA               	incf	___xxtofl@arg,f
  1849  0EA8  1903               	skipnz
  1850  0EA9  0AFB               	incf	___xxtofl@arg+1,f
  1851  0EAA  1903               	skipnz
  1852  0EAB  0AFC               	incf	___xxtofl@arg+2,f
  1853  0EAC  1903               	skipnz
  1854  0EAD  0AFD               	incf	___xxtofl@arg+3,f
  1855  0EAE  2EB7               	goto	l552
  1856  0EAF                     l1787:	
  1857  0EAF  0873               	movf	___xxtofl@val+3,w
  1858  0EB0  00FD               	movwf	___xxtofl@arg+3
  1859  0EB1  0872               	movf	___xxtofl@val+2,w
  1860  0EB2  00FC               	movwf	___xxtofl@arg+2
  1861  0EB3  0871               	movf	___xxtofl@val+1,w
  1862  0EB4  00FB               	movwf	___xxtofl@arg+1
  1863  0EB5  0870               	movf	___xxtofl@val,w
  1864  0EB6  00FA               	movwf	___xxtofl@arg
  1865  0EB7                     l552:	
  1866  0EB7  0873               	movf	___xxtofl@val+3,w
  1867  0EB8  0472               	iorwf	___xxtofl@val+2,w
  1868  0EB9  0471               	iorwf	___xxtofl@val+1,w
  1869  0EBA  0470               	iorwf	___xxtofl@val,w
  1870  0EBB  1D03               	skipz
  1871  0EBC  2EC6               	goto	l1793
  1872  0EBD  3000               	movlw	0
  1873  0EBE  00F3               	movwf	?___xxtofl+3
  1874  0EBF  3000               	movlw	0
  1875  0EC0  00F2               	movwf	?___xxtofl+2
  1876  0EC1  3000               	movlw	0
  1877  0EC2  00F1               	movwf	?___xxtofl+1
  1878  0EC3  3000               	movlw	0
  1879  0EC4  00F0               	movwf	?___xxtofl
  1880  0EC5  0008               	return
  1881  0EC6                     l1793:	
  1882  0EC6  3096               	movlw	150
  1883  0EC7  00F4               	movwf	??___xxtofl
  1884  0EC8  0874               	movf	??___xxtofl,w
  1885  0EC9  00F9               	movwf	___xxtofl@exp
  1886  0ECA                     l1797:	
  1887  0ECA  30FE               	movlw	254
  1888  0ECB  057D               	andwf	___xxtofl@arg+3,w
  1889  0ECC  1903               	btfsc	3,2
  1890  0ECD  2EF7               	goto	l558
  1891  0ECE  3001               	movlw	1
  1892  0ECF  00F4               	movwf	??___xxtofl
  1893  0ED0  0874               	movf	??___xxtofl,w
  1894  0ED1  07F9               	addwf	___xxtofl@exp,f
  1895  0ED2  3001               	movlw	1
  1896  0ED3                     u2705:	
  1897  0ED3  1003               	clrc
  1898  0ED4  0CFD               	rrf	___xxtofl@arg+3,f
  1899  0ED5  0CFC               	rrf	___xxtofl@arg+2,f
  1900  0ED6  0CFB               	rrf	___xxtofl@arg+1,f
  1901  0ED7  0CFA               	rrf	___xxtofl@arg,f
  1902  0ED8  3EFF               	addlw	-1
  1903  0ED9  1D03               	skipz
  1904  0EDA  2ED3               	goto	u2705
  1905  0EDB  2ECA               	goto	l1797
  1906  0EDC                     l1799:	
  1907  0EDC  3001               	movlw	1
  1908  0EDD  00F4               	movwf	??___xxtofl
  1909  0EDE  0874               	movf	??___xxtofl,w
  1910  0EDF  07F9               	addwf	___xxtofl@exp,f
  1911  0EE0  3001               	movlw	1
  1912  0EE1  07FA               	addwf	___xxtofl@arg,f
  1913  0EE2  3000               	movlw	0
  1914  0EE3  1803               	skipnc
  1915  0EE4  3001               	movlw	1
  1916  0EE5  07FB               	addwf	___xxtofl@arg+1,f
  1917  0EE6  3000               	movlw	0
  1918  0EE7  1803               	skipnc
  1919  0EE8  3001               	movlw	1
  1920  0EE9  07FC               	addwf	___xxtofl@arg+2,f
  1921  0EEA  3000               	movlw	0
  1922  0EEB  1803               	skipnc
  1923  0EEC  3001               	movlw	1
  1924  0EED  07FD               	addwf	___xxtofl@arg+3,f
  1925  0EEE  3001               	movlw	1
  1926  0EEF                     u2725:	
  1927  0EEF  1003               	clrc
  1928  0EF0  0CFD               	rrf	___xxtofl@arg+3,f
  1929  0EF1  0CFC               	rrf	___xxtofl@arg+2,f
  1930  0EF2  0CFB               	rrf	___xxtofl@arg+1,f
  1931  0EF3  0CFA               	rrf	___xxtofl@arg,f
  1932  0EF4  3EFF               	addlw	-1
  1933  0EF5  1D03               	skipz
  1934  0EF6  2EEF               	goto	u2725
  1935  0EF7                     l558:	
  1936  0EF7  30FF               	movlw	255
  1937  0EF8  057D               	andwf	___xxtofl@arg+3,w
  1938  0EF9  1903               	btfsc	3,2
  1939  0EFA  2F0B               	goto	l1807
  1940  0EFB  2EDC               	goto	l1799
  1941  0EFC                     l1809:	
  1942  0EFC  3002               	movlw	2
  1943  0EFD  0279               	subwf	___xxtofl@exp,w
  1944  0EFE  1C03               	btfss	3,0
  1945  0EFF  2F0D               	goto	l565
  1946  0F00  3001               	movlw	1
  1947  0F01  02F9               	subwf	___xxtofl@exp,f
  1948  0F02  3001               	movlw	1
  1949  0F03  00F4               	movwf	??___xxtofl
  1950  0F04                     u2745:	
  1951  0F04  1003               	clrc
  1952  0F05  0DFA               	rlf	___xxtofl@arg,f
  1953  0F06  0DFB               	rlf	___xxtofl@arg+1,f
  1954  0F07  0DFC               	rlf	___xxtofl@arg+2,f
  1955  0F08  0DFD               	rlf	___xxtofl@arg+3,f
  1956  0F09  0BF4               	decfsz	??___xxtofl,f
  1957  0F0A  2F04               	goto	u2745
  1958  0F0B                     l1807:	
  1959  0F0B  1FFC               	btfss	___xxtofl@arg+2,7
  1960  0F0C  2EFC               	goto	l1809
  1961  0F0D                     l565:	
  1962  0F0D  1879               	btfsc	___xxtofl@exp,0
  1963  0F0E  2F17               	goto	l566
  1964  0F0F  30FF               	movlw	255
  1965  0F10  05FA               	andwf	___xxtofl@arg,f
  1966  0F11  30FF               	movlw	255
  1967  0F12  05FB               	andwf	___xxtofl@arg+1,f
  1968  0F13  307F               	movlw	127
  1969  0F14  05FC               	andwf	___xxtofl@arg+2,f
  1970  0F15  30FF               	movlw	255
  1971  0F16  05FD               	andwf	___xxtofl@arg+3,f
  1972  0F17                     l566:	
  1973  0F17  1003               	clrc
  1974  0F18  0CF9               	rrf	___xxtofl@exp,f
  1975  0F19  0879               	movf	___xxtofl@exp,w
  1976  0F1A  00F4               	movwf	??___xxtofl
  1977  0F1B  01F5               	clrf	??___xxtofl+1
  1978  0F1C  01F6               	clrf	??___xxtofl+2
  1979  0F1D  01F7               	clrf	??___xxtofl+3
  1980  0F1E  3018               	movlw	24
  1981  0F1F                     u2785:	
  1982  0F1F  1003               	clrc
  1983  0F20  0DF4               	rlf	??___xxtofl,f
  1984  0F21  0DF5               	rlf	??___xxtofl+1,f
  1985  0F22  0DF6               	rlf	??___xxtofl+2,f
  1986  0F23  0DF7               	rlf	??___xxtofl+3,f
  1987  0F24  3EFF               	addlw	-1
  1988  0F25  1D03               	skipz
  1989  0F26  2F1F               	goto	u2785
  1990  0F27  0874               	movf	??___xxtofl,w
  1991  0F28  04FA               	iorwf	___xxtofl@arg,f
  1992  0F29  0875               	movf	??___xxtofl+1,w
  1993  0F2A  04FB               	iorwf	___xxtofl@arg+1,f
  1994  0F2B  0876               	movf	??___xxtofl+2,w
  1995  0F2C  04FC               	iorwf	___xxtofl@arg+2,f
  1996  0F2D  0877               	movf	??___xxtofl+3,w
  1997  0F2E  04FD               	iorwf	___xxtofl@arg+3,f
  1998  0F2F  0878               	movf	___xxtofl@sign,w
  1999  0F30  1D03               	btfss	3,2
  2000  0F31  1FF3               	btfss	___xxtofl@val+3,7
  2001  0F32  2F34               	goto	l1821
  2002  0F33  17FD               	bsf	___xxtofl@arg+3,7
  2003  0F34                     l1821:	
  2004  0F34  087D               	movf	___xxtofl@arg+3,w
  2005  0F35  00F3               	movwf	?___xxtofl+3
  2006  0F36  087C               	movf	___xxtofl@arg+2,w
  2007  0F37  00F2               	movwf	?___xxtofl+2
  2008  0F38  087B               	movf	___xxtofl@arg+1,w
  2009  0F39  00F1               	movwf	?___xxtofl+1
  2010  0F3A  087A               	movf	___xxtofl@arg,w
  2011  0F3B  00F0               	movwf	?___xxtofl
  2012  0F3C  0008               	return
  2013  0F3D                     __end_of___xxtofl:	
  2014                           
  2015                           	psect	text5
  2016  0DAC                     __ptext5:	
  2017 ;; *************** function ___fltol *****************
  2018 ;; Defined at:
  2019 ;;		line 43 in file "/opt/microchip/xc8/v2.05/pic/sources/c90/common/fltol.c"
  2020 ;; Parameters:    Size  Location     Type
  2021 ;;  f1              4   67[BANK0 ] unsigned char 
  2022 ;; Auto vars:     Size  Location     Type
  2023 ;;  exp1            1   77[BANK0 ] unsigned char 
  2024 ;;  sign1           1   76[BANK0 ] unsigned char 
  2025 ;; Return value:  Size  Location     Type
  2026 ;;                  4   67[BANK0 ] long 
  2027 ;; Registers used:
  2028 ;;		wreg, status,2, status,0
  2029 ;; Tracked objects:
  2030 ;;		On entry : 0/0
  2031 ;;		On exit  : 0/0
  2032 ;;		Unchanged: 0/0
  2033 ;; Data sizes:     COMMON   BANK0   BANK1   BANK3   BANK2
  2034 ;;      Params:         0       4       0       0       0
  2035 ;;      Locals:         0       2       0       0       0
  2036 ;;      Temps:          0       5       0       0       0
  2037 ;;      Totals:         0      11       0       0       0
  2038 ;;Total ram usage:       11 bytes
  2039 ;; Hardware stack levels used:    1
  2040 ;; This function calls:
  2041 ;;		Nothing
  2042 ;; This function is called by:
  2043 ;;		___set_pwm_freq
  2044 ;;		___set_duty_cycle
  2045 ;; This function uses a non-reentrant model
  2046 ;;
  2047                           
  2048                           
  2049                           ;psect for function ___fltol
  2050  0DAC                     ___fltol:	
  2051                           
  2052                           ;incstack = 0
  2053                           ; Regs used in ___fltol: [wreg+status,2+status,0]
  2054  0DAC  1003               	clrc
  2055  0DAD  1283               	bcf	3,5	;RP0=0, select bank0
  2056  0DAE  1303               	bcf	3,6	;RP1=0, select bank0
  2057  0DAF  0D65               	rlf	___fltol@f1+2,w
  2058  0DB0  0D66               	rlf	___fltol@f1+3,w
  2059  0DB1  00E7               	movwf	??___fltol
  2060  0DB2  0867               	movf	??___fltol,w
  2061  0DB3  00ED               	movwf	___fltol@exp1
  2062  0DB4  086D               	movf	___fltol@exp1,w
  2063  0DB5  1D03               	btfss	3,2
  2064  0DB6  2DC0               	goto	l1275
  2065  0DB7                     l1271:	
  2066  0DB7  3000               	movlw	0
  2067  0DB8  00E6               	movwf	?___fltol+3
  2068  0DB9  3000               	movlw	0
  2069  0DBA  00E5               	movwf	?___fltol+2
  2070  0DBB  3000               	movlw	0
  2071  0DBC  00E4               	movwf	?___fltol+1
  2072  0DBD  3000               	movlw	0
  2073  0DBE  00E3               	movwf	?___fltol
  2074  0DBF  0008               	return
  2075  0DC0                     l1275:	
  2076  0DC0  0863               	movf	___fltol@f1,w
  2077  0DC1  00E7               	movwf	??___fltol
  2078  0DC2  0864               	movf	___fltol@f1+1,w
  2079  0DC3  00E8               	movwf	??___fltol+1
  2080  0DC4  0865               	movf	___fltol@f1+2,w
  2081  0DC5  00E9               	movwf	??___fltol+2
  2082  0DC6  0866               	movf	___fltol@f1+3,w
  2083  0DC7  00EA               	movwf	??___fltol+3
  2084  0DC8  301F               	movlw	31
  2085  0DC9                     u1465:	
  2086  0DC9  1003               	clrc
  2087  0DCA  0CEA               	rrf	??___fltol+3,f
  2088  0DCB  0CE9               	rrf	??___fltol+2,f
  2089  0DCC  0CE8               	rrf	??___fltol+1,f
  2090  0DCD  0CE7               	rrf	??___fltol,f
  2091  0DCE  3EFF               	addlw	-1
  2092  0DCF  1D03               	skipz
  2093  0DD0  2DC9               	goto	u1465
  2094  0DD1  0867               	movf	??___fltol,w
  2095  0DD2  00EB               	movwf	??___fltol+4
  2096  0DD3  086B               	movf	??___fltol+4,w
  2097  0DD4  00EC               	movwf	___fltol@sign1
  2098  0DD5  17E5               	bsf	___fltol@f1+2,7
  2099  0DD6  30FF               	movlw	255
  2100  0DD7  05E3               	andwf	___fltol@f1,f
  2101  0DD8  30FF               	movlw	255
  2102  0DD9  05E4               	andwf	___fltol@f1+1,f
  2103  0DDA  30FF               	movlw	255
  2104  0DDB  05E5               	andwf	___fltol@f1+2,f
  2105  0DDC  3000               	movlw	0
  2106  0DDD  05E6               	andwf	___fltol@f1+3,f
  2107  0DDE  3096               	movlw	150
  2108  0DDF  02ED               	subwf	___fltol@exp1,f
  2109  0DE0  1FED               	btfss	___fltol@exp1,7
  2110  0DE1  2DF7               	goto	l1293
  2111  0DE2  086D               	movf	___fltol@exp1,w
  2112  0DE3  3A80               	xorlw	128
  2113  0DE4  3E97               	addlw	151
  2114  0DE5  1C03               	btfss	3,0
  2115  0DE6  2DB7               	goto	l1271
  2116  0DE7                     l1291:	
  2117  0DE7  3001               	movlw	1
  2118  0DE8                     u1495:	
  2119  0DE8  1003               	clrc
  2120  0DE9  0CE6               	rrf	___fltol@f1+3,f
  2121  0DEA  0CE5               	rrf	___fltol@f1+2,f
  2122  0DEB  0CE4               	rrf	___fltol@f1+1,f
  2123  0DEC  0CE3               	rrf	___fltol@f1,f
  2124  0DED  3EFF               	addlw	-1
  2125  0DEE  1D03               	skipz
  2126  0DEF  2DE8               	goto	u1495
  2127  0DF0  3001               	movlw	1
  2128  0DF1  00E7               	movwf	??___fltol
  2129  0DF2  0867               	movf	??___fltol,w
  2130  0DF3  07ED               	addwf	___fltol@exp1,f
  2131  0DF4  1903               	btfsc	3,2
  2132  0DF5  2E0A               	goto	l1301
  2133  0DF6  2DE7               	goto	l1291
  2134  0DF7                     l1293:	
  2135  0DF7  3020               	movlw	32
  2136  0DF8  026D               	subwf	___fltol@exp1,w
  2137  0DF9  1803               	btfsc	3,0
  2138  0DFA  2DB7               	goto	l1271
  2139  0DFB                     l318:	
  2140  0DFB  086D               	movf	___fltol@exp1,w
  2141  0DFC  1903               	btfsc	3,2
  2142  0DFD  2E0A               	goto	l1301
  2143  0DFE  3001               	movlw	1
  2144  0DFF  00E7               	movwf	??___fltol
  2145  0E00                     u1525:	
  2146  0E00  1003               	clrc
  2147  0E01  0DE3               	rlf	___fltol@f1,f
  2148  0E02  0DE4               	rlf	___fltol@f1+1,f
  2149  0E03  0DE5               	rlf	___fltol@f1+2,f
  2150  0E04  0DE6               	rlf	___fltol@f1+3,f
  2151  0E05  0BE7               	decfsz	??___fltol,f
  2152  0E06  2E00               	goto	u1525
  2153  0E07  3001               	movlw	1
  2154  0E08  02ED               	subwf	___fltol@exp1,f
  2155  0E09  2DFB               	goto	l318
  2156  0E0A                     l1301:	
  2157  0E0A  086C               	movf	___fltol@sign1,w
  2158  0E0B  1903               	btfsc	3,2
  2159  0E0C  0008               	return
  2160  0E0D  09E3               	comf	___fltol@f1,f
  2161  0E0E  09E4               	comf	___fltol@f1+1,f
  2162  0E0F  09E5               	comf	___fltol@f1+2,f
  2163  0E10  09E6               	comf	___fltol@f1+3,f
  2164  0E11  0AE3               	incf	___fltol@f1,f
  2165  0E12  1903               	skipnz
  2166  0E13  0AE4               	incf	___fltol@f1+1,f
  2167  0E14  1903               	skipnz
  2168  0E15  0AE5               	incf	___fltol@f1+2,f
  2169  0E16  1903               	skipnz
  2170  0E17  0AE6               	incf	___fltol@f1+3,f
  2171  0E18  0008               	return
  2172  0E19                     __end_of___fltol:	
  2173                           
  2174                           	psect	text6
  2175  04E7                     __ptext6:	
  2176 ;; *************** function ___flmul *****************
  2177 ;; Defined at:
  2178 ;;		line 8 in file "/opt/microchip/xc8/v2.05/pic/sources/c90/common/sprcmul.c"
  2179 ;; Parameters:    Size  Location     Type
  2180 ;;  b               4    0[BANK0 ] long 
  2181 ;;  a               4    4[BANK0 ] long 
  2182 ;; Auto vars:     Size  Location     Type
  2183 ;;  prod            4   15[BANK0 ] struct .
  2184 ;;  grs             4    9[BANK0 ] unsigned long 
  2185 ;;  temp            2   19[BANK0 ] struct .
  2186 ;;  bexp            1   14[BANK0 ] unsigned char 
  2187 ;;  aexp            1   13[BANK0 ] unsigned char 
  2188 ;;  sign            1    8[BANK0 ] unsigned char 
  2189 ;; Return value:  Size  Location     Type
  2190 ;;                  4    0[BANK0 ] unsigned char 
  2191 ;; Registers used:
  2192 ;;		wreg, status,2, status,0, btemp+1, pclath, cstack
  2193 ;; Tracked objects:
  2194 ;;		On entry : 0/0
  2195 ;;		On exit  : 0/0
  2196 ;;		Unchanged: 0/0
  2197 ;; Data sizes:     COMMON   BANK0   BANK1   BANK3   BANK2
  2198 ;;      Params:         0       8       0       0       0
  2199 ;;      Locals:         0      13       0       0       0
  2200 ;;      Temps:          5       0       0       0       0
  2201 ;;      Totals:         5      21       0       0       0
  2202 ;;Total ram usage:       26 bytes
  2203 ;; Hardware stack levels used:    1
  2204 ;; Hardware stack levels required when called:    1
  2205 ;; This function calls:
  2206 ;;		__Umul8_16
  2207 ;; This function is called by:
  2208 ;;		___set_pwm_freq
  2209 ;;		___set_duty_cycle
  2210 ;; This function uses a non-reentrant model
  2211 ;;
  2212                           
  2213                           
  2214                           ;psect for function ___flmul
  2215  04E7                     ___flmul:	
  2216                           
  2217                           ;incstack = 0
  2218                           ; Regs used in ___flmul: [wreg+status,2+status,0+btemp+1+pclath+cstack]
  2219  04E7  1283               	bcf	3,5	;RP0=0, select bank0
  2220  04E8  1303               	bcf	3,6	;RP1=0, select bank0
  2221  04E9  0823               	movf	___flmul@b+3,w
  2222  04EA  3980               	andlw	128
  2223  04EB  00F9               	movwf	??___flmul
  2224  04EC  0879               	movf	??___flmul,w
  2225  04ED  00A8               	movwf	___flmul@sign
  2226  04EE  0823               	movf	___flmul@b+3,w
  2227  04EF  00F9               	movwf	??___flmul
  2228  04F0  0779               	addwf	??___flmul,w
  2229  04F1  00FA               	movwf	??___flmul+1
  2230  04F2  087A               	movf	??___flmul+1,w
  2231  04F3  00AE               	movwf	___flmul@bexp
  2232  04F4  1BA2               	btfsc	___flmul@b+2,7
  2233  04F5  142E               	bsf	___flmul@bexp,0
  2234  04F6  082E               	movf	___flmul@bexp,w
  2235  04F7  1903               	btfsc	3,2
  2236  04F8  2D06               	goto	l1657
  2237  04F9  0A2E               	incf	___flmul@bexp,w
  2238  04FA  1D03               	btfss	3,2
  2239  04FB  2D04               	goto	l1655
  2240  04FC  3000               	movlw	0
  2241  04FD  00A3               	movwf	___flmul@b+3
  2242  04FE  3000               	movlw	0
  2243  04FF  00A2               	movwf	___flmul@b+2
  2244  0500  3000               	movlw	0
  2245  0501  00A1               	movwf	___flmul@b+1
  2246  0502  3000               	movlw	0
  2247  0503  00A0               	movwf	___flmul@b
  2248  0504                     l1655:	
  2249  0504  17A2               	bsf	___flmul@b+2,7
  2250  0505  2D0E               	goto	l1659
  2251  0506                     l1657:	
  2252  0506  3000               	movlw	0
  2253  0507  00A3               	movwf	___flmul@b+3
  2254  0508  3000               	movlw	0
  2255  0509  00A2               	movwf	___flmul@b+2
  2256  050A  3000               	movlw	0
  2257  050B  00A1               	movwf	___flmul@b+1
  2258  050C  3000               	movlw	0
  2259  050D  00A0               	movwf	___flmul@b
  2260  050E                     l1659:	
  2261  050E  0827               	movf	___flmul@a+3,w
  2262  050F  3980               	andlw	128
  2263  0510  00F9               	movwf	??___flmul
  2264  0511  0879               	movf	??___flmul,w
  2265  0512  06A8               	xorwf	___flmul@sign,f
  2266  0513  0827               	movf	___flmul@a+3,w
  2267  0514  00F9               	movwf	??___flmul
  2268  0515  0779               	addwf	??___flmul,w
  2269  0516  00FA               	movwf	??___flmul+1
  2270  0517  087A               	movf	??___flmul+1,w
  2271  0518  00AD               	movwf	___flmul@aexp
  2272  0519  1BA6               	btfsc	___flmul@a+2,7
  2273  051A  142D               	bsf	___flmul@aexp,0
  2274  051B  082D               	movf	___flmul@aexp,w
  2275  051C  1903               	btfsc	3,2
  2276  051D  2D2B               	goto	l1675
  2277  051E  0A2D               	incf	___flmul@aexp,w
  2278  051F  1D03               	btfss	3,2
  2279  0520  2D29               	goto	l1673
  2280  0521  3000               	movlw	0
  2281  0522  00A7               	movwf	___flmul@a+3
  2282  0523  3000               	movlw	0
  2283  0524  00A6               	movwf	___flmul@a+2
  2284  0525  3000               	movlw	0
  2285  0526  00A5               	movwf	___flmul@a+1
  2286  0527  3000               	movlw	0
  2287  0528  00A4               	movwf	___flmul@a
  2288  0529                     l1673:	
  2289  0529  17A6               	bsf	___flmul@a+2,7
  2290  052A  2D33               	goto	l1677
  2291  052B                     l1675:	
  2292  052B  3000               	movlw	0
  2293  052C  00A7               	movwf	___flmul@a+3
  2294  052D  3000               	movlw	0
  2295  052E  00A6               	movwf	___flmul@a+2
  2296  052F  3000               	movlw	0
  2297  0530  00A5               	movwf	___flmul@a+1
  2298  0531  3000               	movlw	0
  2299  0532  00A4               	movwf	___flmul@a
  2300  0533                     l1677:	
  2301  0533  082D               	movf	___flmul@aexp,w
  2302  0534  1D03               	btfss	3,2
  2303  0535  082E               	movf	___flmul@bexp,w
  2304  0536  1D03               	btfss	3,2
  2305  0537  2D41               	goto	l1685
  2306  0538  3000               	movlw	0
  2307  0539  00A3               	movwf	?___flmul+3
  2308  053A  3000               	movlw	0
  2309  053B  00A2               	movwf	?___flmul+2
  2310  053C  3000               	movlw	0
  2311  053D  00A1               	movwf	?___flmul+1
  2312  053E  3000               	movlw	0
  2313  053F  00A0               	movwf	?___flmul
  2314  0540  0008               	return
  2315  0541                     l1685:	
  2316  0541  0820               	movf	___flmul@b,w
  2317  0542  00F9               	movwf	??___flmul
  2318  0543  0879               	movf	??___flmul,w
  2319  0544  00F0               	movwf	__Umul8_16@multiplicand
  2320  0545  0826               	movf	___flmul@a+2,w
  2321  0546  120A  158A  2589  120A  118A  	fcall	__Umul8_16
  2322  054B  0871               	movf	?__Umul8_16+1,w
  2323  054C  1283               	bcf	3,5	;RP0=0, select bank0
  2324  054D  1303               	bcf	3,6	;RP1=0, select bank0
  2325  054E  00B4               	movwf	___flmul@temp+1
  2326  054F  0870               	movf	?__Umul8_16,w
  2327  0550  00B3               	movwf	___flmul@temp
  2328  0551  0833               	movf	___flmul@temp,w
  2329  0552  00F9               	movwf	??___flmul
  2330  0553  01FA               	clrf	??___flmul+1
  2331  0554  01FB               	clrf	??___flmul+2
  2332  0555  01FC               	clrf	??___flmul+3
  2333  0556  087C               	movf	??___flmul+3,w
  2334  0557  00AC               	movwf	___flmul@grs+3
  2335  0558  087B               	movf	??___flmul+2,w
  2336  0559  00AB               	movwf	___flmul@grs+2
  2337  055A  087A               	movf	??___flmul+1,w
  2338  055B  00AA               	movwf	___flmul@grs+1
  2339  055C  0879               	movf	??___flmul,w
  2340  055D  00A9               	movwf	___flmul@grs
  2341  055E  0834               	movf	___flmul@temp+1,w
  2342  055F  00F9               	movwf	??___flmul
  2343  0560  01FA               	clrf	??___flmul+1
  2344  0561  01FB               	clrf	??___flmul+2
  2345  0562  01FC               	clrf	??___flmul+3
  2346  0563  087C               	movf	??___flmul+3,w
  2347  0564  00B2               	movwf	___flmul@prod+3
  2348  0565  087B               	movf	??___flmul+2,w
  2349  0566  00B1               	movwf	___flmul@prod+2
  2350  0567  087A               	movf	??___flmul+1,w
  2351  0568  00B0               	movwf	___flmul@prod+1
  2352  0569  0879               	movf	??___flmul,w
  2353  056A  00AF               	movwf	___flmul@prod
  2354  056B  0821               	movf	___flmul@b+1,w
  2355  056C  00F9               	movwf	??___flmul
  2356  056D  0879               	movf	??___flmul,w
  2357  056E  00F0               	movwf	__Umul8_16@multiplicand
  2358  056F  0825               	movf	___flmul@a+1,w
  2359  0570  120A  158A  2589  120A  118A  	fcall	__Umul8_16
  2360  0575  0871               	movf	?__Umul8_16+1,w
  2361  0576  1283               	bcf	3,5	;RP0=0, select bank0
  2362  0577  1303               	bcf	3,6	;RP1=0, select bank0
  2363  0578  00B4               	movwf	___flmul@temp+1
  2364  0579  0870               	movf	?__Umul8_16,w
  2365  057A  00B3               	movwf	___flmul@temp
  2366  057B  0833               	movf	___flmul@temp,w
  2367  057C  00F9               	movwf	??___flmul
  2368  057D  01FA               	clrf	??___flmul+1
  2369  057E  01FB               	clrf	??___flmul+2
  2370  057F  01FC               	clrf	??___flmul+3
  2371  0580  0879               	movf	??___flmul,w
  2372  0581  07A9               	addwf	___flmul@grs,f
  2373  0582  087A               	movf	??___flmul+1,w
  2374  0583  1103               	clrz
  2375  0584  1803               	skipnc
  2376  0585  3E01               	addlw	1
  2377  0586  1D03               	btfss	3,2
  2378  0587  07AA               	addwf	___flmul@grs+1,f
  2379  0588  087B               	movf	??___flmul+2,w
  2380  0589  1103               	clrz
  2381  058A  1803               	skipnc
  2382  058B  3E01               	addlw	1
  2383  058C  1D03               	btfss	3,2
  2384  058D  07AB               	addwf	___flmul@grs+2,f
  2385  058E  087C               	movf	??___flmul+3,w
  2386  058F  1103               	clrz
  2387  0590  1803               	skipnc
  2388  0591  3E01               	addlw	1
  2389  0592  1D03               	btfss	3,2
  2390  0593  07AC               	addwf	___flmul@grs+3,f
  2391  0594  0834               	movf	___flmul@temp+1,w
  2392  0595  00F9               	movwf	??___flmul
  2393  0596  01FA               	clrf	??___flmul+1
  2394  0597  01FB               	clrf	??___flmul+2
  2395  0598  01FC               	clrf	??___flmul+3
  2396  0599  0879               	movf	??___flmul,w
  2397  059A  07AF               	addwf	___flmul@prod,f
  2398  059B  087A               	movf	??___flmul+1,w
  2399  059C  1103               	clrz
  2400  059D  1803               	skipnc
  2401  059E  3E01               	addlw	1
  2402  059F  1D03               	btfss	3,2
  2403  05A0  07B0               	addwf	___flmul@prod+1,f
  2404  05A1  087B               	movf	??___flmul+2,w
  2405  05A2  1103               	clrz
  2406  05A3  1803               	skipnc
  2407  05A4  3E01               	addlw	1
  2408  05A5  1D03               	btfss	3,2
  2409  05A6  07B1               	addwf	___flmul@prod+2,f
  2410  05A7  087C               	movf	??___flmul+3,w
  2411  05A8  1103               	clrz
  2412  05A9  1803               	skipnc
  2413  05AA  3E01               	addlw	1
  2414  05AB  1D03               	btfss	3,2
  2415  05AC  07B2               	addwf	___flmul@prod+3,f
  2416  05AD  0822               	movf	___flmul@b+2,w
  2417  05AE  00F9               	movwf	??___flmul
  2418  05AF  0879               	movf	??___flmul,w
  2419  05B0  00F0               	movwf	__Umul8_16@multiplicand
  2420  05B1  0824               	movf	___flmul@a,w
  2421  05B2  120A  158A  2589  120A  118A  	fcall	__Umul8_16
  2422  05B7  0871               	movf	?__Umul8_16+1,w
  2423  05B8  1283               	bcf	3,5	;RP0=0, select bank0
  2424  05B9  1303               	bcf	3,6	;RP1=0, select bank0
  2425  05BA  00B4               	movwf	___flmul@temp+1
  2426  05BB  0870               	movf	?__Umul8_16,w
  2427  05BC  00B3               	movwf	___flmul@temp
  2428  05BD  0833               	movf	___flmul@temp,w
  2429  05BE  00F9               	movwf	??___flmul
  2430  05BF  01FA               	clrf	??___flmul+1
  2431  05C0  01FB               	clrf	??___flmul+2
  2432  05C1  01FC               	clrf	??___flmul+3
  2433  05C2  0879               	movf	??___flmul,w
  2434  05C3  07A9               	addwf	___flmul@grs,f
  2435  05C4  087A               	movf	??___flmul+1,w
  2436  05C5  1103               	clrz
  2437  05C6  1803               	skipnc
  2438  05C7  3E01               	addlw	1
  2439  05C8  1D03               	btfss	3,2
  2440  05C9  07AA               	addwf	___flmul@grs+1,f
  2441  05CA  087B               	movf	??___flmul+2,w
  2442  05CB  1103               	clrz
  2443  05CC  1803               	skipnc
  2444  05CD  3E01               	addlw	1
  2445  05CE  1D03               	btfss	3,2
  2446  05CF  07AB               	addwf	___flmul@grs+2,f
  2447  05D0  087C               	movf	??___flmul+3,w
  2448  05D1  1103               	clrz
  2449  05D2  1803               	skipnc
  2450  05D3  3E01               	addlw	1
  2451  05D4  1D03               	btfss	3,2
  2452  05D5  07AC               	addwf	___flmul@grs+3,f
  2453  05D6  0834               	movf	___flmul@temp+1,w
  2454  05D7  00F9               	movwf	??___flmul
  2455  05D8  01FA               	clrf	??___flmul+1
  2456  05D9  01FB               	clrf	??___flmul+2
  2457  05DA  01FC               	clrf	??___flmul+3
  2458  05DB  0879               	movf	??___flmul,w
  2459  05DC  07AF               	addwf	___flmul@prod,f
  2460  05DD  087A               	movf	??___flmul+1,w
  2461  05DE  1103               	clrz
  2462  05DF  1803               	skipnc
  2463  05E0  3E01               	addlw	1
  2464  05E1  1D03               	btfss	3,2
  2465  05E2  07B0               	addwf	___flmul@prod+1,f
  2466  05E3  087B               	movf	??___flmul+2,w
  2467  05E4  1103               	clrz
  2468  05E5  1803               	skipnc
  2469  05E6  3E01               	addlw	1
  2470  05E7  1D03               	btfss	3,2
  2471  05E8  07B1               	addwf	___flmul@prod+2,f
  2472  05E9  087C               	movf	??___flmul+3,w
  2473  05EA  1103               	clrz
  2474  05EB  1803               	skipnc
  2475  05EC  3E01               	addlw	1
  2476  05ED  1D03               	btfss	3,2
  2477  05EE  07B2               	addwf	___flmul@prod+3,f
  2478  05EF  3008               	movlw	8
  2479  05F0  00F9               	movwf	??___flmul
  2480  05F1                     u2425:	
  2481  05F1  1003               	clrc
  2482  05F2  0DA9               	rlf	___flmul@grs,f
  2483  05F3  0DAA               	rlf	___flmul@grs+1,f
  2484  05F4  0DAB               	rlf	___flmul@grs+2,f
  2485  05F5  0DAC               	rlf	___flmul@grs+3,f
  2486  05F6  0BF9               	decfsz	??___flmul,f
  2487  05F7  2DF1               	goto	u2425
  2488  05F8  0821               	movf	___flmul@b+1,w
  2489  05F9  00F9               	movwf	??___flmul
  2490  05FA  0879               	movf	??___flmul,w
  2491  05FB  00F0               	movwf	__Umul8_16@multiplicand
  2492  05FC  0824               	movf	___flmul@a,w
  2493  05FD  120A  158A  2589  120A  118A  	fcall	__Umul8_16
  2494  0602  0871               	movf	?__Umul8_16+1,w
  2495  0603  1283               	bcf	3,5	;RP0=0, select bank0
  2496  0604  1303               	bcf	3,6	;RP1=0, select bank0
  2497  0605  00B4               	movwf	___flmul@temp+1
  2498  0606  0870               	movf	?__Umul8_16,w
  2499  0607  00B3               	movwf	___flmul@temp
  2500  0608  0833               	movf	___flmul@temp,w
  2501  0609  00F9               	movwf	??___flmul
  2502  060A  0834               	movf	___flmul@temp+1,w
  2503  060B  00FA               	movwf	??___flmul+1
  2504  060C  01FB               	clrf	??___flmul+2
  2505  060D  01FC               	clrf	??___flmul+3
  2506  060E  0879               	movf	??___flmul,w
  2507  060F  07A9               	addwf	___flmul@grs,f
  2508  0610  087A               	movf	??___flmul+1,w
  2509  0611  1103               	clrz
  2510  0612  1803               	skipnc
  2511  0613  3E01               	addlw	1
  2512  0614  1D03               	btfss	3,2
  2513  0615  07AA               	addwf	___flmul@grs+1,f
  2514  0616  087B               	movf	??___flmul+2,w
  2515  0617  1103               	clrz
  2516  0618  1803               	skipnc
  2517  0619  3E01               	addlw	1
  2518  061A  1D03               	btfss	3,2
  2519  061B  07AB               	addwf	___flmul@grs+2,f
  2520  061C  087C               	movf	??___flmul+3,w
  2521  061D  1103               	clrz
  2522  061E  1803               	skipnc
  2523  061F  3E01               	addlw	1
  2524  0620  1D03               	btfss	3,2
  2525  0621  07AC               	addwf	___flmul@grs+3,f
  2526  0622  0820               	movf	___flmul@b,w
  2527  0623  00F9               	movwf	??___flmul
  2528  0624  0879               	movf	??___flmul,w
  2529  0625  00F0               	movwf	__Umul8_16@multiplicand
  2530  0626  0825               	movf	___flmul@a+1,w
  2531  0627  120A  158A  2589  120A  118A  	fcall	__Umul8_16
  2532  062C  0871               	movf	?__Umul8_16+1,w
  2533  062D  1283               	bcf	3,5	;RP0=0, select bank0
  2534  062E  1303               	bcf	3,6	;RP1=0, select bank0
  2535  062F  00B4               	movwf	___flmul@temp+1
  2536  0630  0870               	movf	?__Umul8_16,w
  2537  0631  00B3               	movwf	___flmul@temp
  2538  0632  0833               	movf	___flmul@temp,w
  2539  0633  00F9               	movwf	??___flmul
  2540  0634  0834               	movf	___flmul@temp+1,w
  2541  0635  00FA               	movwf	??___flmul+1
  2542  0636  01FB               	clrf	??___flmul+2
  2543  0637  01FC               	clrf	??___flmul+3
  2544  0638  0879               	movf	??___flmul,w
  2545  0639  07A9               	addwf	___flmul@grs,f
  2546  063A  087A               	movf	??___flmul+1,w
  2547  063B  1103               	clrz
  2548  063C  1803               	skipnc
  2549  063D  3E01               	addlw	1
  2550  063E  1D03               	btfss	3,2
  2551  063F  07AA               	addwf	___flmul@grs+1,f
  2552  0640  087B               	movf	??___flmul+2,w
  2553  0641  1103               	clrz
  2554  0642  1803               	skipnc
  2555  0643  3E01               	addlw	1
  2556  0644  1D03               	btfss	3,2
  2557  0645  07AB               	addwf	___flmul@grs+2,f
  2558  0646  087C               	movf	??___flmul+3,w
  2559  0647  1103               	clrz
  2560  0648  1803               	skipnc
  2561  0649  3E01               	addlw	1
  2562  064A  1D03               	btfss	3,2
  2563  064B  07AC               	addwf	___flmul@grs+3,f
  2564  064C  3008               	movlw	8
  2565  064D  00F9               	movwf	??___flmul
  2566  064E                     u2455:	
  2567  064E  1003               	clrc
  2568  064F  0DA9               	rlf	___flmul@grs,f
  2569  0650  0DAA               	rlf	___flmul@grs+1,f
  2570  0651  0DAB               	rlf	___flmul@grs+2,f
  2571  0652  0DAC               	rlf	___flmul@grs+3,f
  2572  0653  0BF9               	decfsz	??___flmul,f
  2573  0654  2E4E               	goto	u2455
  2574  0655  0820               	movf	___flmul@b,w
  2575  0656  00F9               	movwf	??___flmul
  2576  0657  0879               	movf	??___flmul,w
  2577  0658  00F0               	movwf	__Umul8_16@multiplicand
  2578  0659  0824               	movf	___flmul@a,w
  2579  065A  120A  158A  2589  120A  118A  	fcall	__Umul8_16
  2580  065F  0871               	movf	?__Umul8_16+1,w
  2581  0660  1283               	bcf	3,5	;RP0=0, select bank0
  2582  0661  1303               	bcf	3,6	;RP1=0, select bank0
  2583  0662  00B4               	movwf	___flmul@temp+1
  2584  0663  0870               	movf	?__Umul8_16,w
  2585  0664  00B3               	movwf	___flmul@temp
  2586  0665  0833               	movf	___flmul@temp,w
  2587  0666  00F9               	movwf	??___flmul
  2588  0667  0834               	movf	___flmul@temp+1,w
  2589  0668  00FA               	movwf	??___flmul+1
  2590  0669  01FB               	clrf	??___flmul+2
  2591  066A  01FC               	clrf	??___flmul+3
  2592  066B  0879               	movf	??___flmul,w
  2593  066C  07A9               	addwf	___flmul@grs,f
  2594  066D  087A               	movf	??___flmul+1,w
  2595  066E  1103               	clrz
  2596  066F  1803               	skipnc
  2597  0670  3E01               	addlw	1
  2598  0671  1D03               	btfss	3,2
  2599  0672  07AA               	addwf	___flmul@grs+1,f
  2600  0673  087B               	movf	??___flmul+2,w
  2601  0674  1103               	clrz
  2602  0675  1803               	skipnc
  2603  0676  3E01               	addlw	1
  2604  0677  1D03               	btfss	3,2
  2605  0678  07AB               	addwf	___flmul@grs+2,f
  2606  0679  087C               	movf	??___flmul+3,w
  2607  067A  1103               	clrz
  2608  067B  1803               	skipnc
  2609  067C  3E01               	addlw	1
  2610  067D  1D03               	btfss	3,2
  2611  067E  07AC               	addwf	___flmul@grs+3,f
  2612  067F  0821               	movf	___flmul@b+1,w
  2613  0680  00F9               	movwf	??___flmul
  2614  0681  0879               	movf	??___flmul,w
  2615  0682  00F0               	movwf	__Umul8_16@multiplicand
  2616  0683  0826               	movf	___flmul@a+2,w
  2617  0684  120A  158A  2589  120A  118A  	fcall	__Umul8_16
  2618  0689  0871               	movf	?__Umul8_16+1,w
  2619  068A  1283               	bcf	3,5	;RP0=0, select bank0
  2620  068B  1303               	bcf	3,6	;RP1=0, select bank0
  2621  068C  00B4               	movwf	___flmul@temp+1
  2622  068D  0870               	movf	?__Umul8_16,w
  2623  068E  00B3               	movwf	___flmul@temp
  2624  068F  0833               	movf	___flmul@temp,w
  2625  0690  00F9               	movwf	??___flmul
  2626  0691  0834               	movf	___flmul@temp+1,w
  2627  0692  00FA               	movwf	??___flmul+1
  2628  0693  01FB               	clrf	??___flmul+2
  2629  0694  01FC               	clrf	??___flmul+3
  2630  0695  0879               	movf	??___flmul,w
  2631  0696  07AF               	addwf	___flmul@prod,f
  2632  0697  087A               	movf	??___flmul+1,w
  2633  0698  1103               	clrz
  2634  0699  1803               	skipnc
  2635  069A  3E01               	addlw	1
  2636  069B  1D03               	btfss	3,2
  2637  069C  07B0               	addwf	___flmul@prod+1,f
  2638  069D  087B               	movf	??___flmul+2,w
  2639  069E  1103               	clrz
  2640  069F  1803               	skipnc
  2641  06A0  3E01               	addlw	1
  2642  06A1  1D03               	btfss	3,2
  2643  06A2  07B1               	addwf	___flmul@prod+2,f
  2644  06A3  087C               	movf	??___flmul+3,w
  2645  06A4  1103               	clrz
  2646  06A5  1803               	skipnc
  2647  06A6  3E01               	addlw	1
  2648  06A7  1D03               	btfss	3,2
  2649  06A8  07B2               	addwf	___flmul@prod+3,f
  2650  06A9  0822               	movf	___flmul@b+2,w
  2651  06AA  00F9               	movwf	??___flmul
  2652  06AB  0879               	movf	??___flmul,w
  2653  06AC  00F0               	movwf	__Umul8_16@multiplicand
  2654  06AD  0825               	movf	___flmul@a+1,w
  2655  06AE  120A  158A  2589  120A  118A  	fcall	__Umul8_16
  2656  06B3  0871               	movf	?__Umul8_16+1,w
  2657  06B4  1283               	bcf	3,5	;RP0=0, select bank0
  2658  06B5  1303               	bcf	3,6	;RP1=0, select bank0
  2659  06B6  00B4               	movwf	___flmul@temp+1
  2660  06B7  0870               	movf	?__Umul8_16,w
  2661  06B8  00B3               	movwf	___flmul@temp
  2662  06B9  0833               	movf	___flmul@temp,w
  2663  06BA  00F9               	movwf	??___flmul
  2664  06BB  0834               	movf	___flmul@temp+1,w
  2665  06BC  00FA               	movwf	??___flmul+1
  2666  06BD  01FB               	clrf	??___flmul+2
  2667  06BE  01FC               	clrf	??___flmul+3
  2668  06BF  0879               	movf	??___flmul,w
  2669  06C0  07AF               	addwf	___flmul@prod,f
  2670  06C1  087A               	movf	??___flmul+1,w
  2671  06C2  1103               	clrz
  2672  06C3  1803               	skipnc
  2673  06C4  3E01               	addlw	1
  2674  06C5  1D03               	btfss	3,2
  2675  06C6  07B0               	addwf	___flmul@prod+1,f
  2676  06C7  087B               	movf	??___flmul+2,w
  2677  06C8  1103               	clrz
  2678  06C9  1803               	skipnc
  2679  06CA  3E01               	addlw	1
  2680  06CB  1D03               	btfss	3,2
  2681  06CC  07B1               	addwf	___flmul@prod+2,f
  2682  06CD  087C               	movf	??___flmul+3,w
  2683  06CE  1103               	clrz
  2684  06CF  1803               	skipnc
  2685  06D0  3E01               	addlw	1
  2686  06D1  1D03               	btfss	3,2
  2687  06D2  07B2               	addwf	___flmul@prod+3,f
  2688  06D3  0822               	movf	___flmul@b+2,w
  2689  06D4  00F9               	movwf	??___flmul
  2690  06D5  0879               	movf	??___flmul,w
  2691  06D6  00F0               	movwf	__Umul8_16@multiplicand
  2692  06D7  0826               	movf	___flmul@a+2,w
  2693  06D8  120A  158A  2589  120A  118A  	fcall	__Umul8_16
  2694  06DD  0871               	movf	?__Umul8_16+1,w
  2695  06DE  1283               	bcf	3,5	;RP0=0, select bank0
  2696  06DF  1303               	bcf	3,6	;RP1=0, select bank0
  2697  06E0  00B4               	movwf	___flmul@temp+1
  2698  06E1  0870               	movf	?__Umul8_16,w
  2699  06E2  00B3               	movwf	___flmul@temp
  2700  06E3  0833               	movf	___flmul@temp,w
  2701  06E4  00F9               	movwf	??___flmul
  2702  06E5  0834               	movf	___flmul@temp+1,w
  2703  06E6  00FA               	movwf	??___flmul+1
  2704  06E7  01FB               	clrf	??___flmul+2
  2705  06E8  01FC               	clrf	??___flmul+3
  2706  06E9  3008               	movlw	8
  2707  06EA                     u2495:	
  2708  06EA  1003               	clrc
  2709  06EB  0DF9               	rlf	??___flmul,f
  2710  06EC  0DFA               	rlf	??___flmul+1,f
  2711  06ED  0DFB               	rlf	??___flmul+2,f
  2712  06EE  0DFC               	rlf	??___flmul+3,f
  2713  06EF  3EFF               	addlw	-1
  2714  06F0  1D03               	skipz
  2715  06F1  2EEA               	goto	u2495
  2716  06F2  0879               	movf	??___flmul,w
  2717  06F3  07AF               	addwf	___flmul@prod,f
  2718  06F4  087A               	movf	??___flmul+1,w
  2719  06F5  1103               	clrz
  2720  06F6  1803               	skipnc
  2721  06F7  3E01               	addlw	1
  2722  06F8  1D03               	btfss	3,2
  2723  06F9  07B0               	addwf	___flmul@prod+1,f
  2724  06FA  087B               	movf	??___flmul+2,w
  2725  06FB  1103               	clrz
  2726  06FC  1803               	skipnc
  2727  06FD  3E01               	addlw	1
  2728  06FE  1D03               	btfss	3,2
  2729  06FF  07B1               	addwf	___flmul@prod+2,f
  2730  0700  087C               	movf	??___flmul+3,w
  2731  0701  1103               	clrz
  2732  0702  1803               	skipnc
  2733  0703  3E01               	addlw	1
  2734  0704  1D03               	btfss	3,2
  2735  0705  07B2               	addwf	___flmul@prod+3,f
  2736  0706  0829               	movf	___flmul@grs,w
  2737  0707  00F9               	movwf	??___flmul
  2738  0708  082A               	movf	___flmul@grs+1,w
  2739  0709  00FA               	movwf	??___flmul+1
  2740  070A  082B               	movf	___flmul@grs+2,w
  2741  070B  00FB               	movwf	??___flmul+2
  2742  070C  082C               	movf	___flmul@grs+3,w
  2743  070D  00FC               	movwf	??___flmul+3
  2744  070E  3018               	movlw	24
  2745  070F                     u2515:	
  2746  070F  1003               	clrc
  2747  0710  0CFC               	rrf	??___flmul+3,f
  2748  0711  0CFB               	rrf	??___flmul+2,f
  2749  0712  0CFA               	rrf	??___flmul+1,f
  2750  0713  0CF9               	rrf	??___flmul,f
  2751  0714  3EFF               	addlw	-1
  2752  0715  1D03               	skipz
  2753  0716  2F0F               	goto	u2515
  2754  0717  0879               	movf	??___flmul,w
  2755  0718  07AF               	addwf	___flmul@prod,f
  2756  0719  087A               	movf	??___flmul+1,w
  2757  071A  1103               	clrz
  2758  071B  1803               	skipnc
  2759  071C  3E01               	addlw	1
  2760  071D  1D03               	btfss	3,2
  2761  071E  07B0               	addwf	___flmul@prod+1,f
  2762  071F  087B               	movf	??___flmul+2,w
  2763  0720  1103               	clrz
  2764  0721  1803               	skipnc
  2765  0722  3E01               	addlw	1
  2766  0723  1D03               	btfss	3,2
  2767  0724  07B1               	addwf	___flmul@prod+2,f
  2768  0725  087C               	movf	??___flmul+3,w
  2769  0726  1103               	clrz
  2770  0727  1803               	skipnc
  2771  0728  3E01               	addlw	1
  2772  0729  1D03               	btfss	3,2
  2773  072A  07B2               	addwf	___flmul@prod+3,f
  2774  072B  3008               	movlw	8
  2775  072C  00F9               	movwf	??___flmul
  2776  072D                     u2535:	
  2777  072D  1003               	clrc
  2778  072E  0DA9               	rlf	___flmul@grs,f
  2779  072F  0DAA               	rlf	___flmul@grs+1,f
  2780  0730  0DAB               	rlf	___flmul@grs+2,f
  2781  0731  0DAC               	rlf	___flmul@grs+3,f
  2782  0732  0BF9               	decfsz	??___flmul,f
  2783  0733  2F2D               	goto	u2535
  2784  0734  082E               	movf	___flmul@bexp,w
  2785  0735  072D               	addwf	___flmul@aexp,w
  2786  0736  00F9               	movwf	??___flmul
  2787  0737  01FA               	clrf	??___flmul+1
  2788  0738  0DFA               	rlf	??___flmul+1,f
  2789  0739  0879               	movf	??___flmul,w
  2790  073A  3E82               	addlw	130
  2791  073B  00B3               	movwf	___flmul@temp
  2792  073C  087A               	movf	??___flmul+1,w
  2793  073D  1803               	skipnc
  2794  073E  3E01               	addlw	1
  2795  073F  3EFF               	addlw	255
  2796  0740  00B4               	movwf	___flmul@temp+1
  2797  0741                     l1737:	
  2798  0741  1BB1               	btfsc	___flmul@prod+2,7
  2799  0742  2F5E               	goto	l1739
  2800  0743  3001               	movlw	1
  2801  0744  00F9               	movwf	??___flmul
  2802  0745                     u2545:	
  2803  0745  1003               	clrc
  2804  0746  0DAF               	rlf	___flmul@prod,f
  2805  0747  0DB0               	rlf	___flmul@prod+1,f
  2806  0748  0DB1               	rlf	___flmul@prod+2,f
  2807  0749  0DB2               	rlf	___flmul@prod+3,f
  2808  074A  0BF9               	decfsz	??___flmul,f
  2809  074B  2F45               	goto	u2545
  2810  074C  1BAC               	btfsc	___flmul@grs+3,7
  2811  074D  142F               	bsf	___flmul@prod,0
  2812  074E  3001               	movlw	1
  2813  074F  00F9               	movwf	??___flmul
  2814  0750                     u2565:	
  2815  0750  1003               	clrc
  2816  0751  0DA9               	rlf	___flmul@grs,f
  2817  0752  0DAA               	rlf	___flmul@grs+1,f
  2818  0753  0DAB               	rlf	___flmul@grs+2,f
  2819  0754  0DAC               	rlf	___flmul@grs+3,f
  2820  0755  0BF9               	decfsz	??___flmul,f
  2821  0756  2F50               	goto	u2565
  2822  0757  30FF               	movlw	255
  2823  0758  07B3               	addwf	___flmul@temp,f
  2824  0759  1803               	skipnc
  2825  075A  0AB4               	incf	___flmul@temp+1,f
  2826  075B  30FF               	movlw	255
  2827  075C  07B4               	addwf	___flmul@temp+1,f
  2828  075D  2F41               	goto	l1737
  2829  075E                     l1739:	
  2830  075E  01AD               	clrf	___flmul@aexp
  2831  075F  1FAC               	btfss	___flmul@grs+3,7
  2832  0760  2F77               	goto	l1749
  2833  0761  30FF               	movlw	255
  2834  0762  0529               	andwf	___flmul@grs,w
  2835  0763  00F9               	movwf	??___flmul
  2836  0764  30FF               	movlw	255
  2837  0765  052A               	andwf	___flmul@grs+1,w
  2838  0766  00FA               	movwf	??___flmul+1
  2839  0767  30FF               	movlw	255
  2840  0768  052B               	andwf	___flmul@grs+2,w
  2841  0769  00FB               	movwf	??___flmul+2
  2842  076A  307F               	movlw	127
  2843  076B  052C               	andwf	___flmul@grs+3,w
  2844  076C  00FC               	movwf	??___flmul+3
  2845  076D  087C               	movf	??___flmul+3,w
  2846  076E  047B               	iorwf	??___flmul+2,w
  2847  076F  047A               	iorwf	??___flmul+1,w
  2848  0770  0479               	iorwf	??___flmul,w
  2849  0771  1903               	skipnz
  2850  0772  182F               	btfsc	___flmul@prod,0
  2851  0773  2F75               	goto	l1745
  2852  0774  2F77               	goto	l1749
  2853  0775                     l1745:	
  2854  0775  01AD               	clrf	___flmul@aexp
  2855  0776  0AAD               	incf	___flmul@aexp,f
  2856  0777                     l1749:	
  2857  0777  082D               	movf	___flmul@aexp,w
  2858  0778  1903               	btfsc	3,2
  2859  0779  2FA9               	goto	l1759
  2860  077A  3001               	movlw	1
  2861  077B  07AF               	addwf	___flmul@prod,f
  2862  077C  3000               	movlw	0
  2863  077D  1803               	skipnc
  2864  077E  3001               	movlw	1
  2865  077F  07B0               	addwf	___flmul@prod+1,f
  2866  0780  3000               	movlw	0
  2867  0781  1803               	skipnc
  2868  0782  3001               	movlw	1
  2869  0783  07B1               	addwf	___flmul@prod+2,f
  2870  0784  3000               	movlw	0
  2871  0785  1803               	skipnc
  2872  0786  3001               	movlw	1
  2873  0787  07B2               	addwf	___flmul@prod+3,f
  2874  0788  1C32               	btfss	___flmul@prod+3,0
  2875  0789  2FA9               	goto	l1759
  2876  078A  082F               	movf	___flmul@prod,w
  2877  078B  00F9               	movwf	??___flmul
  2878  078C  0830               	movf	___flmul@prod+1,w
  2879  078D  00FA               	movwf	??___flmul+1
  2880  078E  0831               	movf	___flmul@prod+2,w
  2881  078F  00FB               	movwf	??___flmul+2
  2882  0790  0832               	movf	___flmul@prod+3,w
  2883  0791  00FC               	movwf	??___flmul+3
  2884  0792  3001               	movlw	1
  2885  0793  00FD               	movwf	??___flmul+4
  2886  0794                     u2635:	
  2887  0794  0D7C               	rlf	??___flmul+3,w
  2888  0795  0CFC               	rrf	??___flmul+3,f
  2889  0796  0CFB               	rrf	??___flmul+2,f
  2890  0797  0CFA               	rrf	??___flmul+1,f
  2891  0798  0CF9               	rrf	??___flmul,f
  2892  0799  0BFD               	decfsz	??___flmul+4,f
  2893  079A  2F94               	goto	u2635
  2894  079B  087C               	movf	??___flmul+3,w
  2895  079C  00B2               	movwf	___flmul@prod+3
  2896  079D  087B               	movf	??___flmul+2,w
  2897  079E  00B1               	movwf	___flmul@prod+2
  2898  079F  087A               	movf	??___flmul+1,w
  2899  07A0  00B0               	movwf	___flmul@prod+1
  2900  07A1  0879               	movf	??___flmul,w
  2901  07A2  00AF               	movwf	___flmul@prod
  2902  07A3  3001               	movlw	1
  2903  07A4  07B3               	addwf	___flmul@temp,f
  2904  07A5  1803               	skipnc
  2905  07A6  0AB4               	incf	___flmul@temp+1,f
  2906  07A7  3000               	movlw	0
  2907  07A8  07B4               	addwf	___flmul@temp+1,f
  2908  07A9                     l1759:	
  2909  07A9  0834               	movf	___flmul@temp+1,w
  2910  07AA  3A80               	xorlw	128
  2911  07AB  00FF               	movwf	127
  2912  07AC  3080               	movlw	128
  2913  07AD  027F               	subwf	127,w
  2914  07AE  1D03               	skipz
  2915  07AF  2FB2               	goto	u2645
  2916  07B0  30FF               	movlw	255
  2917  07B1  0233               	subwf	___flmul@temp,w
  2918  07B2                     u2645:	
  2919  07B2  1C03               	skipc
  2920  07B3  2FBF               	goto	l1763
  2921  07B4  307F               	movlw	127
  2922  07B5  1283               	bcf	3,5	;RP0=0, select bank0
  2923  07B6  1303               	bcf	3,6	;RP1=0, select bank0
  2924  07B7  00B2               	movwf	___flmul@prod+3
  2925  07B8  3080               	movlw	128
  2926  07B9  00B1               	movwf	___flmul@prod+2
  2927  07BA  3000               	movlw	0
  2928  07BB  00B0               	movwf	___flmul@prod+1
  2929  07BC  3000               	movlw	0
  2930  07BD  00AF               	movwf	___flmul@prod
  2931  07BE  2FEF               	goto	l526
  2932  07BF                     l1763:	
  2933  07BF  1283               	bcf	3,5	;RP0=0, select bank0
  2934  07C0  1303               	bcf	3,6	;RP1=0, select bank0
  2935  07C1  0834               	movf	___flmul@temp+1,w
  2936  07C2  3A80               	xorlw	128
  2937  07C3  00FF               	movwf	127
  2938  07C4  3080               	movlw	128
  2939  07C5  027F               	subwf	127,w
  2940  07C6  1D03               	skipz
  2941  07C7  2FCA               	goto	u2655
  2942  07C8  3001               	movlw	1
  2943  07C9  0233               	subwf	___flmul@temp,w
  2944  07CA                     u2655:	
  2945  07CA  1803               	skipnc
  2946  07CB  2FD8               	goto	l1769
  2947  07CC  3000               	movlw	0
  2948  07CD  1283               	bcf	3,5	;RP0=0, select bank0
  2949  07CE  1303               	bcf	3,6	;RP1=0, select bank0
  2950  07CF  00B2               	movwf	___flmul@prod+3
  2951  07D0  3000               	movlw	0
  2952  07D1  00B1               	movwf	___flmul@prod+2
  2953  07D2  3000               	movlw	0
  2954  07D3  00B0               	movwf	___flmul@prod+1
  2955  07D4  3000               	movlw	0
  2956  07D5  00AF               	movwf	___flmul@prod
  2957  07D6  01A8               	clrf	___flmul@sign
  2958  07D7  2FEF               	goto	l526
  2959  07D8                     l1769:	
  2960  07D8  1283               	bcf	3,5	;RP0=0, select bank0
  2961  07D9  1303               	bcf	3,6	;RP1=0, select bank0
  2962  07DA  0833               	movf	___flmul@temp,w
  2963  07DB  00F9               	movwf	??___flmul
  2964  07DC  0879               	movf	??___flmul,w
  2965  07DD  00AE               	movwf	___flmul@bexp
  2966  07DE  30FF               	movlw	255
  2967  07DF  05AF               	andwf	___flmul@prod,f
  2968  07E0  30FF               	movlw	255
  2969  07E1  05B0               	andwf	___flmul@prod+1,f
  2970  07E2  307F               	movlw	127
  2971  07E3  05B1               	andwf	___flmul@prod+2,f
  2972  07E4  3000               	movlw	0
  2973  07E5  05B2               	andwf	___flmul@prod+3,f
  2974  07E6  182E               	btfsc	___flmul@bexp,0
  2975  07E7  17B1               	bsf	___flmul@prod+2,7
  2976  07E8  082E               	movf	___flmul@bexp,w
  2977  07E9  00F9               	movwf	??___flmul
  2978  07EA  1003               	clrc
  2979  07EB  0C79               	rrf	??___flmul,w
  2980  07EC  00FA               	movwf	??___flmul+1
  2981  07ED  087A               	movf	??___flmul+1,w
  2982  07EE  00B2               	movwf	___flmul@prod+3
  2983  07EF                     l526:	
  2984  07EF  0828               	movf	___flmul@sign,w
  2985  07F0  00F9               	movwf	??___flmul
  2986  07F1  0879               	movf	??___flmul,w
  2987  07F2  04B2               	iorwf	___flmul@prod+3,f
  2988  07F3  0832               	movf	___flmul@prod+3,w
  2989  07F4  00A3               	movwf	?___flmul+3
  2990  07F5  0831               	movf	___flmul@prod+2,w
  2991  07F6  00A2               	movwf	?___flmul+2
  2992  07F7  0830               	movf	___flmul@prod+1,w
  2993  07F8  00A1               	movwf	?___flmul+1
  2994  07F9  082F               	movf	___flmul@prod,w
  2995  07FA  00A0               	movwf	?___flmul
  2996  07FB  0008               	return
  2997  07FC                     __end_of___flmul:	
  2998                           
  2999                           	psect	text7
  3000  0D89                     __ptext7:	
  3001 ;; *************** function __Umul8_16 *****************
  3002 ;; Defined at:
  3003 ;;		line 4 in file "/opt/microchip/xc8/v2.05/pic/sources/c90/common/Umul8_16.c"
  3004 ;; Parameters:    Size  Location     Type
  3005 ;;  multiplier      1    wreg     unsigned char 
  3006 ;;  multiplicand    1    0[COMMON] unsigned char 
  3007 ;; Auto vars:     Size  Location     Type
  3008 ;;  multiplier      1    8[COMMON] unsigned char 
  3009 ;;  word_mpld       2    6[COMMON] unsigned int 
  3010 ;;  product         2    4[COMMON] unsigned int 
  3011 ;; Return value:  Size  Location     Type
  3012 ;;                  2    0[COMMON] unsigned int 
  3013 ;; Registers used:
  3014 ;;		wreg, status,2, status,0
  3015 ;; Tracked objects:
  3016 ;;		On entry : 0/0
  3017 ;;		On exit  : 0/0
  3018 ;;		Unchanged: 0/0
  3019 ;; Data sizes:     COMMON   BANK0   BANK1   BANK3   BANK2
  3020 ;;      Params:         2       0       0       0       0
  3021 ;;      Locals:         5       0       0       0       0
  3022 ;;      Temps:          2       0       0       0       0
  3023 ;;      Totals:         9       0       0       0       0
  3024 ;;Total ram usage:        9 bytes
  3025 ;; Hardware stack levels used:    1
  3026 ;; This function calls:
  3027 ;;		Nothing
  3028 ;; This function is called by:
  3029 ;;		___flmul
  3030 ;; This function uses a non-reentrant model
  3031 ;;
  3032                           
  3033                           
  3034                           ;psect for function __Umul8_16
  3035  0D89                     __Umul8_16:	
  3036                           
  3037                           ;incstack = 0
  3038                           ; Regs used in __Umul8_16: [wreg+status,2+status,0]
  3039                           ;__Umul8_16@multiplier stored from wreg
  3040  0D89  00F8               	movwf	__Umul8_16@multiplier
  3041  0D8A  01F4               	clrf	__Umul8_16@product
  3042  0D8B  01F5               	clrf	__Umul8_16@product+1
  3043  0D8C  0870               	movf	__Umul8_16@multiplicand,w
  3044  0D8D  00F2               	movwf	??__Umul8_16
  3045  0D8E  01F3               	clrf	??__Umul8_16+1
  3046  0D8F  0872               	movf	??__Umul8_16,w
  3047  0D90  00F6               	movwf	__Umul8_16@word_mpld
  3048  0D91  0873               	movf	??__Umul8_16+1,w
  3049  0D92  00F7               	movwf	__Umul8_16@word_mpld+1
  3050  0D93                     l1259:	
  3051  0D93  1C78               	btfss	__Umul8_16@multiplier,0
  3052  0D94  2D9B               	goto	l571
  3053  0D95  0876               	movf	__Umul8_16@word_mpld,w
  3054  0D96  07F4               	addwf	__Umul8_16@product,f
  3055  0D97  1803               	skipnc
  3056  0D98  0AF5               	incf	__Umul8_16@product+1,f
  3057  0D99  0877               	movf	__Umul8_16@word_mpld+1,w
  3058  0D9A  07F5               	addwf	__Umul8_16@product+1,f
  3059  0D9B                     l571:	
  3060  0D9B  3001               	movlw	1
  3061  0D9C                     u1435:	
  3062  0D9C  1003               	clrc
  3063  0D9D  0DF6               	rlf	__Umul8_16@word_mpld,f
  3064  0D9E  0DF7               	rlf	__Umul8_16@word_mpld+1,f
  3065  0D9F  3EFF               	addlw	-1
  3066  0DA0  1D03               	skipz
  3067  0DA1  2D9C               	goto	u1435
  3068  0DA2  1003               	clrc
  3069  0DA3  0CF8               	rrf	__Umul8_16@multiplier,f
  3070  0DA4  0878               	movf	__Umul8_16@multiplier,w
  3071  0DA5  1D03               	btfss	3,2
  3072  0DA6  2D93               	goto	l1259
  3073  0DA7  0875               	movf	__Umul8_16@product+1,w
  3074  0DA8  00F1               	movwf	?__Umul8_16+1
  3075  0DA9  0874               	movf	__Umul8_16@product,w
  3076  0DAA  00F0               	movwf	?__Umul8_16
  3077  0DAB  0008               	return
  3078  0DAC                     __end_of__Umul8_16:	
  3079                           
  3080                           	psect	text8
  3081  0115                     __ptext8:	
  3082 ;; *************** function ___fldiv *****************
  3083 ;; Defined at:
  3084 ;;		line 8 in file "/opt/microchip/xc8/v2.05/pic/sources/c90/common/sprcdiv.c"
  3085 ;; Parameters:    Size  Location     Type
  3086 ;;  a               4   21[BANK0 ] unsigned int 
  3087 ;;  b               4   25[BANK0 ] unsigned int 
  3088 ;; Auto vars:     Size  Location     Type
  3089 ;;  grs             4   41[BANK0 ] unsigned long 
  3090 ;;  rem             4   34[BANK0 ] unsigned long 
  3091 ;;  new_exp         2   39[BANK0 ] int 
  3092 ;;  aexp            1   46[BANK0 ] unsigned char 
  3093 ;;  bexp            1   45[BANK0 ] unsigned char 
  3094 ;;  sign            1   38[BANK0 ] unsigned char 
  3095 ;; Return value:  Size  Location     Type
  3096 ;;                  4   21[BANK0 ] unsigned char 
  3097 ;; Registers used:
  3098 ;;		wreg, status,2, status,0, btemp+1
  3099 ;; Tracked objects:
  3100 ;;		On entry : 0/0
  3101 ;;		On exit  : 0/0
  3102 ;;		Unchanged: 0/0
  3103 ;; Data sizes:     COMMON   BANK0   BANK1   BANK3   BANK2
  3104 ;;      Params:         0       8       0       0       0
  3105 ;;      Locals:         0      13       0       0       0
  3106 ;;      Temps:          0       5       0       0       0
  3107 ;;      Totals:         0      26       0       0       0
  3108 ;;Total ram usage:       26 bytes
  3109 ;; Hardware stack levels used:    1
  3110 ;; This function calls:
  3111 ;;		Nothing
  3112 ;; This function is called by:
  3113 ;;		___set_pwm_freq
  3114 ;;		___set_duty_cycle
  3115 ;; This function uses a non-reentrant model
  3116 ;;
  3117                           
  3118                           
  3119                           ;psect for function ___fldiv
  3120  0115                     ___fldiv:	
  3121                           
  3122                           ;incstack = 0
  3123                           ; Regs used in ___fldiv: [wreg+status,2+status,0+btemp+1]
  3124  0115  1283               	bcf	3,5	;RP0=0, select bank0
  3125  0116  1303               	bcf	3,6	;RP1=0, select bank0
  3126  0117  083C               	movf	___fldiv@b+3,w
  3127  0118  3980               	andlw	128
  3128  0119  00BD               	movwf	??___fldiv
  3129  011A  083D               	movf	??___fldiv,w
  3130  011B  00C6               	movwf	___fldiv@sign
  3131  011C  083C               	movf	___fldiv@b+3,w
  3132  011D  00BD               	movwf	??___fldiv
  3133  011E  073D               	addwf	??___fldiv,w
  3134  011F  00BE               	movwf	??___fldiv+1
  3135  0120  083E               	movf	??___fldiv+1,w
  3136  0121  00CD               	movwf	___fldiv@bexp
  3137  0122  1BBB               	btfsc	___fldiv@b+2,7
  3138  0123  144D               	bsf	___fldiv@bexp,0
  3139  0124  084D               	movf	___fldiv@bexp,w
  3140  0125  1903               	btfsc	3,2
  3141  0126  2935               	goto	l1517
  3142  0127  0A4D               	incf	___fldiv@bexp,w
  3143  0128  1D03               	btfss	3,2
  3144  0129  2932               	goto	l1513
  3145  012A  3000               	movlw	0
  3146  012B  00BC               	movwf	___fldiv@b+3
  3147  012C  3000               	movlw	0
  3148  012D  00BB               	movwf	___fldiv@b+2
  3149  012E  3000               	movlw	0
  3150  012F  00BA               	movwf	___fldiv@b+1
  3151  0130  3000               	movlw	0
  3152  0131  00B9               	movwf	___fldiv@b
  3153  0132                     l1513:	
  3154  0132  17BB               	bsf	___fldiv@b+2,7
  3155  0133  01BC               	clrf	___fldiv@b+3
  3156  0134  293D               	goto	l1519
  3157  0135                     l1517:	
  3158  0135  3000               	movlw	0
  3159  0136  00BC               	movwf	___fldiv@b+3
  3160  0137  3000               	movlw	0
  3161  0138  00BB               	movwf	___fldiv@b+2
  3162  0139  3000               	movlw	0
  3163  013A  00BA               	movwf	___fldiv@b+1
  3164  013B  3000               	movlw	0
  3165  013C  00B9               	movwf	___fldiv@b
  3166  013D                     l1519:	
  3167  013D  0838               	movf	___fldiv@a+3,w
  3168  013E  3980               	andlw	128
  3169  013F  00BD               	movwf	??___fldiv
  3170  0140  083D               	movf	??___fldiv,w
  3171  0141  06C6               	xorwf	___fldiv@sign,f
  3172  0142  0838               	movf	___fldiv@a+3,w
  3173  0143  00BD               	movwf	??___fldiv
  3174  0144  073D               	addwf	??___fldiv,w
  3175  0145  00BE               	movwf	??___fldiv+1
  3176  0146  083E               	movf	??___fldiv+1,w
  3177  0147  00CE               	movwf	___fldiv@aexp
  3178  0148  1BB7               	btfsc	___fldiv@a+2,7
  3179  0149  144E               	bsf	___fldiv@aexp,0
  3180  014A  084E               	movf	___fldiv@aexp,w
  3181  014B  1903               	btfsc	3,2
  3182  014C  295B               	goto	l1537
  3183  014D  0A4E               	incf	___fldiv@aexp,w
  3184  014E  1D03               	btfss	3,2
  3185  014F  2958               	goto	l1533
  3186  0150  3000               	movlw	0
  3187  0151  00B8               	movwf	___fldiv@a+3
  3188  0152  3000               	movlw	0
  3189  0153  00B7               	movwf	___fldiv@a+2
  3190  0154  3000               	movlw	0
  3191  0155  00B6               	movwf	___fldiv@a+1
  3192  0156  3000               	movlw	0
  3193  0157  00B5               	movwf	___fldiv@a
  3194  0158                     l1533:	
  3195  0158  17B7               	bsf	___fldiv@a+2,7
  3196  0159  01B8               	clrf	___fldiv@a+3
  3197  015A  2963               	goto	l474
  3198  015B                     l1537:	
  3199  015B  3000               	movlw	0
  3200  015C  00B8               	movwf	___fldiv@a+3
  3201  015D  3000               	movlw	0
  3202  015E  00B7               	movwf	___fldiv@a+2
  3203  015F  3000               	movlw	0
  3204  0160  00B6               	movwf	___fldiv@a+1
  3205  0161  3000               	movlw	0
  3206  0162  00B5               	movwf	___fldiv@a
  3207  0163                     l474:	
  3208  0163  0838               	movf	___fldiv@a+3,w
  3209  0164  0437               	iorwf	___fldiv@a+2,w
  3210  0165  0436               	iorwf	___fldiv@a+1,w
  3211  0166  0435               	iorwf	___fldiv@a,w
  3212  0167  1D03               	skipz
  3213  0168  2982               	goto	l1547
  3214  0169  3000               	movlw	0
  3215  016A  00BC               	movwf	___fldiv@b+3
  3216  016B  3000               	movlw	0
  3217  016C  00BB               	movwf	___fldiv@b+2
  3218  016D  3000               	movlw	0
  3219  016E  00BA               	movwf	___fldiv@b+1
  3220  016F  3000               	movlw	0
  3221  0170  00B9               	movwf	___fldiv@b
  3222  0171  3080               	movlw	128
  3223  0172  04BB               	iorwf	___fldiv@b+2,f
  3224  0173  307F               	movlw	127
  3225  0174  04BC               	iorwf	___fldiv@b+3,f
  3226  0175                     L2:	
  3227  0175  0846               	movf	___fldiv@sign,w
  3228  0176  00BD               	movwf	??___fldiv
  3229  0177  083D               	movf	??___fldiv,w
  3230  0178  04BC               	iorwf	___fldiv@b+3,f
  3231  0179  083C               	movf	___fldiv@b+3,w
  3232  017A  00B8               	movwf	?___fldiv+3
  3233  017B  083B               	movf	___fldiv@b+2,w
  3234  017C  00B7               	movwf	?___fldiv+2
  3235  017D  083A               	movf	___fldiv@b+1,w
  3236  017E  00B6               	movwf	?___fldiv+1
  3237  017F  0839               	movf	___fldiv@b,w
  3238  0180  00B5               	movwf	?___fldiv
  3239  0181  0008               	return
  3240  0182                     l1547:	
  3241  0182  084D               	movf	___fldiv@bexp,w
  3242  0183  1D03               	btfss	3,2
  3243  0184  298E               	goto	l1553
  3244  0185  3000               	movlw	0
  3245  0186  00B8               	movwf	?___fldiv+3
  3246  0187  3000               	movlw	0
  3247  0188  00B7               	movwf	?___fldiv+2
  3248  0189  3000               	movlw	0
  3249  018A  00B6               	movwf	?___fldiv+1
  3250  018B  3000               	movlw	0
  3251  018C  00B5               	movwf	?___fldiv
  3252  018D  0008               	return
  3253  018E                     l1553:	
  3254  018E  084D               	movf	___fldiv@bexp,w
  3255  018F  00BD               	movwf	??___fldiv
  3256  0190  01BE               	clrf	??___fldiv+1
  3257  0191  083E               	movf	??___fldiv+1,w
  3258  0192  00C0               	movwf	??___fldiv+3
  3259  0193  084E               	movf	___fldiv@aexp,w
  3260  0194  023D               	subwf	??___fldiv,w
  3261  0195  00BF               	movwf	??___fldiv+2
  3262  0196  1C03               	skipc
  3263  0197  03C0               	decf	??___fldiv+3,f
  3264  0198  083F               	movf	??___fldiv+2,w
  3265  0199  3E7F               	addlw	127
  3266  019A  00C7               	movwf	___fldiv@new_exp
  3267  019B  0840               	movf	??___fldiv+3,w
  3268  019C  1803               	skipnc
  3269  019D  3E01               	addlw	1
  3270  019E  3E00               	addlw	0
  3271  019F  00C8               	movwf	___fldiv@new_exp+1
  3272  01A0  083C               	movf	___fldiv@b+3,w
  3273  01A1  00C5               	movwf	___fldiv@rem+3
  3274  01A2  083B               	movf	___fldiv@b+2,w
  3275  01A3  00C4               	movwf	___fldiv@rem+2
  3276  01A4  083A               	movf	___fldiv@b+1,w
  3277  01A5  00C3               	movwf	___fldiv@rem+1
  3278  01A6  0839               	movf	___fldiv@b,w
  3279  01A7  00C2               	movwf	___fldiv@rem
  3280  01A8  3000               	movlw	0
  3281  01A9  00BC               	movwf	___fldiv@b+3
  3282  01AA  3000               	movlw	0
  3283  01AB  00BB               	movwf	___fldiv@b+2
  3284  01AC  3000               	movlw	0
  3285  01AD  00BA               	movwf	___fldiv@b+1
  3286  01AE  3000               	movlw	0
  3287  01AF  00B9               	movwf	___fldiv@b
  3288  01B0  3000               	movlw	0
  3289  01B1  00CC               	movwf	___fldiv@grs+3
  3290  01B2  3000               	movlw	0
  3291  01B3  00CB               	movwf	___fldiv@grs+2
  3292  01B4  3000               	movlw	0
  3293  01B5  00CA               	movwf	___fldiv@grs+1
  3294  01B6  3000               	movlw	0
  3295  01B7  00C9               	movwf	___fldiv@grs
  3296  01B8  01CE               	clrf	___fldiv@aexp
  3297  01B9                     l1581:	
  3298  01B9  301A               	movlw	26
  3299  01BA  024E               	subwf	___fldiv@aexp,w
  3300  01BB  1803               	btfsc	3,0
  3301  01BC  2A01               	goto	l1583
  3302  01BD  084E               	movf	___fldiv@aexp,w
  3303  01BE  1903               	btfsc	3,2
  3304  01BF  29DD               	goto	l1573
  3305  01C0  3001               	movlw	1
  3306  01C1  00BD               	movwf	??___fldiv
  3307  01C2                     u2105:	
  3308  01C2  1003               	clrc
  3309  01C3  0DC2               	rlf	___fldiv@rem,f
  3310  01C4  0DC3               	rlf	___fldiv@rem+1,f
  3311  01C5  0DC4               	rlf	___fldiv@rem+2,f
  3312  01C6  0DC5               	rlf	___fldiv@rem+3,f
  3313  01C7  0BBD               	decfsz	??___fldiv,f
  3314  01C8  29C2               	goto	u2105
  3315  01C9  3001               	movlw	1
  3316  01CA  00BD               	movwf	??___fldiv
  3317  01CB                     u2115:	
  3318  01CB  1003               	clrc
  3319  01CC  0DB9               	rlf	___fldiv@b,f
  3320  01CD  0DBA               	rlf	___fldiv@b+1,f
  3321  01CE  0DBB               	rlf	___fldiv@b+2,f
  3322  01CF  0DBC               	rlf	___fldiv@b+3,f
  3323  01D0  0BBD               	decfsz	??___fldiv,f
  3324  01D1  29CB               	goto	u2115
  3325  01D2  1BCC               	btfsc	___fldiv@grs+3,7
  3326  01D3  1439               	bsf	___fldiv@b,0
  3327  01D4  3001               	movlw	1
  3328  01D5  00BD               	movwf	??___fldiv
  3329  01D6                     u2135:	
  3330  01D6  1003               	clrc
  3331  01D7  0DC9               	rlf	___fldiv@grs,f
  3332  01D8  0DCA               	rlf	___fldiv@grs+1,f
  3333  01D9  0DCB               	rlf	___fldiv@grs+2,f
  3334  01DA  0DCC               	rlf	___fldiv@grs+3,f
  3335  01DB  0BBD               	decfsz	??___fldiv,f
  3336  01DC  29D6               	goto	u2135
  3337  01DD                     l1573:	
  3338  01DD  0838               	movf	___fldiv@a+3,w
  3339  01DE  0245               	subwf	___fldiv@rem+3,w
  3340  01DF  1D03               	skipz
  3341  01E0  29EB               	goto	u2145
  3342  01E1  0837               	movf	___fldiv@a+2,w
  3343  01E2  0244               	subwf	___fldiv@rem+2,w
  3344  01E3  1D03               	skipz
  3345  01E4  29EB               	goto	u2145
  3346  01E5  0836               	movf	___fldiv@a+1,w
  3347  01E6  0243               	subwf	___fldiv@rem+1,w
  3348  01E7  1D03               	skipz
  3349  01E8  29EB               	goto	u2145
  3350  01E9  0835               	movf	___fldiv@a,w
  3351  01EA  0242               	subwf	___fldiv@rem,w
  3352  01EB                     u2145:	
  3353  01EB  1C03               	skipc
  3354  01EC  29FC               	goto	l1579
  3355  01ED  174C               	bsf	___fldiv@grs+3,6
  3356  01EE  0835               	movf	___fldiv@a,w
  3357  01EF  02C2               	subwf	___fldiv@rem,f
  3358  01F0  0836               	movf	___fldiv@a+1,w
  3359  01F1  1C03               	skipc
  3360  01F2  0F36               	incfsz	___fldiv@a+1,w
  3361  01F3  02C3               	subwf	___fldiv@rem+1,f
  3362  01F4  0837               	movf	___fldiv@a+2,w
  3363  01F5  1C03               	skipc
  3364  01F6  0F37               	incfsz	___fldiv@a+2,w
  3365  01F7  02C4               	subwf	___fldiv@rem+2,f
  3366  01F8  0838               	movf	___fldiv@a+3,w
  3367  01F9  1C03               	skipc
  3368  01FA  0F38               	incfsz	___fldiv@a+3,w
  3369  01FB  02C5               	subwf	___fldiv@rem+3,f
  3370  01FC                     l1579:	
  3371  01FC  3001               	movlw	1
  3372  01FD  00BD               	movwf	??___fldiv
  3373  01FE  083D               	movf	??___fldiv,w
  3374  01FF  07CE               	addwf	___fldiv@aexp,f
  3375  0200  29B9               	goto	l1581
  3376  0201                     l1583:	
  3377  0201  0845               	movf	___fldiv@rem+3,w
  3378  0202  0444               	iorwf	___fldiv@rem+2,w
  3379  0203  0443               	iorwf	___fldiv@rem+1,w
  3380  0204  0442               	iorwf	___fldiv@rem,w
  3381  0205  1D03               	btfss	3,2
  3382  0206  1449               	bsf	___fldiv@grs,0
  3383  0207                     l1597:	
  3384  0207  1BBB               	btfsc	___fldiv@b+2,7
  3385  0208  2A24               	goto	l1599
  3386  0209  3001               	movlw	1
  3387  020A  00BD               	movwf	??___fldiv
  3388  020B                     u2175:	
  3389  020B  1003               	clrc
  3390  020C  0DB9               	rlf	___fldiv@b,f
  3391  020D  0DBA               	rlf	___fldiv@b+1,f
  3392  020E  0DBB               	rlf	___fldiv@b+2,f
  3393  020F  0DBC               	rlf	___fldiv@b+3,f
  3394  0210  0BBD               	decfsz	??___fldiv,f
  3395  0211  2A0B               	goto	u2175
  3396  0212  1BCC               	btfsc	___fldiv@grs+3,7
  3397  0213  1439               	bsf	___fldiv@b,0
  3398  0214  3001               	movlw	1
  3399  0215  00BD               	movwf	??___fldiv
  3400  0216                     u2195:	
  3401  0216  1003               	clrc
  3402  0217  0DC9               	rlf	___fldiv@grs,f
  3403  0218  0DCA               	rlf	___fldiv@grs+1,f
  3404  0219  0DCB               	rlf	___fldiv@grs+2,f
  3405  021A  0DCC               	rlf	___fldiv@grs+3,f
  3406  021B  0BBD               	decfsz	??___fldiv,f
  3407  021C  2A16               	goto	u2195
  3408  021D  30FF               	movlw	255
  3409  021E  07C7               	addwf	___fldiv@new_exp,f
  3410  021F  1803               	skipnc
  3411  0220  0AC8               	incf	___fldiv@new_exp+1,f
  3412  0221  30FF               	movlw	255
  3413  0222  07C8               	addwf	___fldiv@new_exp+1,f
  3414  0223  2A07               	goto	l1597
  3415  0224                     l1599:	
  3416  0224  01CE               	clrf	___fldiv@aexp
  3417  0225  1FCC               	btfss	___fldiv@grs+3,7
  3418  0226  2A3D               	goto	l1609
  3419  0227  30FF               	movlw	255
  3420  0228  0549               	andwf	___fldiv@grs,w
  3421  0229  00BD               	movwf	??___fldiv
  3422  022A  30FF               	movlw	255
  3423  022B  054A               	andwf	___fldiv@grs+1,w
  3424  022C  00BE               	movwf	??___fldiv+1
  3425  022D  30FF               	movlw	255
  3426  022E  054B               	andwf	___fldiv@grs+2,w
  3427  022F  00BF               	movwf	??___fldiv+2
  3428  0230  307F               	movlw	127
  3429  0231  054C               	andwf	___fldiv@grs+3,w
  3430  0232  00C0               	movwf	??___fldiv+3
  3431  0233  0840               	movf	??___fldiv+3,w
  3432  0234  043F               	iorwf	??___fldiv+2,w
  3433  0235  043E               	iorwf	??___fldiv+1,w
  3434  0236  043D               	iorwf	??___fldiv,w
  3435  0237  1903               	skipnz
  3436  0238  1839               	btfsc	___fldiv@b,0
  3437  0239  2A3B               	goto	l1605
  3438  023A  2A3D               	goto	l1609
  3439  023B                     l1605:	
  3440  023B  01CE               	clrf	___fldiv@aexp
  3441  023C  0ACE               	incf	___fldiv@aexp,f
  3442  023D                     l1609:	
  3443  023D  084E               	movf	___fldiv@aexp,w
  3444  023E  1903               	btfsc	3,2
  3445  023F  2A6F               	goto	l1619
  3446  0240  3001               	movlw	1
  3447  0241  07B9               	addwf	___fldiv@b,f
  3448  0242  3000               	movlw	0
  3449  0243  1803               	skipnc
  3450  0244  3001               	movlw	1
  3451  0245  07BA               	addwf	___fldiv@b+1,f
  3452  0246  3000               	movlw	0
  3453  0247  1803               	skipnc
  3454  0248  3001               	movlw	1
  3455  0249  07BB               	addwf	___fldiv@b+2,f
  3456  024A  3000               	movlw	0
  3457  024B  1803               	skipnc
  3458  024C  3001               	movlw	1
  3459  024D  07BC               	addwf	___fldiv@b+3,f
  3460  024E  1C3C               	btfss	___fldiv@b+3,0
  3461  024F  2A6F               	goto	l1619
  3462  0250  0839               	movf	___fldiv@b,w
  3463  0251  00BD               	movwf	??___fldiv
  3464  0252  083A               	movf	___fldiv@b+1,w
  3465  0253  00BE               	movwf	??___fldiv+1
  3466  0254  083B               	movf	___fldiv@b+2,w
  3467  0255  00BF               	movwf	??___fldiv+2
  3468  0256  083C               	movf	___fldiv@b+3,w
  3469  0257  00C0               	movwf	??___fldiv+3
  3470  0258  3001               	movlw	1
  3471  0259  00C1               	movwf	??___fldiv+4
  3472  025A                     u2265:	
  3473  025A  0D40               	rlf	??___fldiv+3,w
  3474  025B  0CC0               	rrf	??___fldiv+3,f
  3475  025C  0CBF               	rrf	??___fldiv+2,f
  3476  025D  0CBE               	rrf	??___fldiv+1,f
  3477  025E  0CBD               	rrf	??___fldiv,f
  3478  025F  0BC1               	decfsz	??___fldiv+4,f
  3479  0260  2A5A               	goto	u2265
  3480  0261  0840               	movf	??___fldiv+3,w
  3481  0262  00BC               	movwf	___fldiv@b+3
  3482  0263  083F               	movf	??___fldiv+2,w
  3483  0264  00BB               	movwf	___fldiv@b+2
  3484  0265  083E               	movf	??___fldiv+1,w
  3485  0266  00BA               	movwf	___fldiv@b+1
  3486  0267  083D               	movf	??___fldiv,w
  3487  0268  00B9               	movwf	___fldiv@b
  3488  0269  3001               	movlw	1
  3489  026A  07C7               	addwf	___fldiv@new_exp,f
  3490  026B  1803               	skipnc
  3491  026C  0AC8               	incf	___fldiv@new_exp+1,f
  3492  026D  3000               	movlw	0
  3493  026E  07C8               	addwf	___fldiv@new_exp+1,f
  3494  026F                     l1619:	
  3495  026F  0848               	movf	___fldiv@new_exp+1,w
  3496  0270  3A80               	xorlw	128
  3497  0271  00FF               	movwf	127
  3498  0272  3080               	movlw	128
  3499  0273  027F               	subwf	127,w
  3500  0274  1D03               	skipz
  3501  0275  2A78               	goto	u2275
  3502  0276  30FF               	movlw	255
  3503  0277  0247               	subwf	___fldiv@new_exp,w
  3504  0278                     u2275:	
  3505  0278  1C03               	skipc
  3506  0279  2A88               	goto	l1623
  3507  027A  30FF               	movlw	255
  3508  027B  1283               	bcf	3,5	;RP0=0, select bank0
  3509  027C  1303               	bcf	3,6	;RP1=0, select bank0
  3510  027D  00C7               	movwf	___fldiv@new_exp
  3511  027E  3000               	movlw	0
  3512  027F  00C8               	movwf	___fldiv@new_exp+1
  3513  0280  3000               	movlw	0
  3514  0281  00BC               	movwf	___fldiv@b+3
  3515  0282  3000               	movlw	0
  3516  0283  00BB               	movwf	___fldiv@b+2
  3517  0284  3000               	movlw	0
  3518  0285  00BA               	movwf	___fldiv@b+1
  3519  0286  3000               	movlw	0
  3520  0287  00B9               	movwf	___fldiv@b
  3521  0288                     l1623:	
  3522  0288  1283               	bcf	3,5	;RP0=0, select bank0
  3523  0289  1303               	bcf	3,6	;RP1=0, select bank0
  3524  028A  0848               	movf	___fldiv@new_exp+1,w
  3525  028B  3A80               	xorlw	128
  3526  028C  00FF               	movwf	127
  3527  028D  3080               	movlw	128
  3528  028E  027F               	subwf	127,w
  3529  028F  1D03               	skipz
  3530  0290  2A93               	goto	u2285
  3531  0291  3001               	movlw	1
  3532  0292  0247               	subwf	___fldiv@new_exp,w
  3533  0293                     u2285:	
  3534  0293  1803               	skipnc
  3535  0294  2AA2               	goto	l496
  3536  0295  1283               	bcf	3,5	;RP0=0, select bank0
  3537  0296  1303               	bcf	3,6	;RP1=0, select bank0
  3538  0297  01C7               	clrf	___fldiv@new_exp
  3539  0298  01C8               	clrf	___fldiv@new_exp+1
  3540  0299  3000               	movlw	0
  3541  029A  00BC               	movwf	___fldiv@b+3
  3542  029B  3000               	movlw	0
  3543  029C  00BB               	movwf	___fldiv@b+2
  3544  029D  3000               	movlw	0
  3545  029E  00BA               	movwf	___fldiv@b+1
  3546  029F  3000               	movlw	0
  3547  02A0  00B9               	movwf	___fldiv@b
  3548  02A1  01C6               	clrf	___fldiv@sign
  3549  02A2                     l496:	
  3550  02A2  1283               	bcf	3,5	;RP0=0, select bank0
  3551  02A3  1303               	bcf	3,6	;RP1=0, select bank0
  3552  02A4  0847               	movf	___fldiv@new_exp,w
  3553  02A5  00BD               	movwf	??___fldiv
  3554  02A6  083D               	movf	??___fldiv,w
  3555  02A7  00CD               	movwf	___fldiv@bexp
  3556  02A8  1C4D               	btfss	___fldiv@bexp,0
  3557  02A9  2AAC               	goto	l1635
  3558  02AA  17BB               	bsf	___fldiv@b+2,7
  3559  02AB  2AB0               	goto	l498
  3560  02AC                     l1635:	
  3561  02AC  307F               	movlw	127
  3562  02AD  00BD               	movwf	??___fldiv
  3563  02AE  083D               	movf	??___fldiv,w
  3564  02AF  05BB               	andwf	___fldiv@b+2,f
  3565  02B0                     l498:	
  3566  02B0  084D               	movf	___fldiv@bexp,w
  3567  02B1  00BD               	movwf	??___fldiv
  3568  02B2  1003               	clrc
  3569  02B3  0C3D               	rrf	??___fldiv,w
  3570  02B4  00BE               	movwf	??___fldiv+1
  3571  02B5  083E               	movf	??___fldiv+1,w
  3572  02B6  00BC               	movwf	___fldiv@b+3
  3573  02B7  2975               	goto	L2
  3574  02B8                     __end_of___fldiv:	
  3575                           
  3576                           	psect	text9
  3577  0D7A                     __ptext9:	
  3578 ;; *************** function ___init_pwm *****************
  3579 ;; Defined at:
  3580 ;;		line 48 in file "main.c"
  3581 ;; Parameters:    Size  Location     Type
  3582 ;;		None
  3583 ;; Auto vars:     Size  Location     Type
  3584 ;;		None
  3585 ;; Return value:  Size  Location     Type
  3586 ;;                  1    wreg      void 
  3587 ;; Registers used:
  3588 ;;		wreg, status,2, status,0
  3589 ;; Tracked objects:
  3590 ;;		On entry : 0/0
  3591 ;;		On exit  : 0/0
  3592 ;;		Unchanged: 0/0
  3593 ;; Data sizes:     COMMON   BANK0   BANK1   BANK3   BANK2
  3594 ;;      Params:         0       0       0       0       0
  3595 ;;      Locals:         0       0       0       0       0
  3596 ;;      Temps:          0       0       0       0       0
  3597 ;;      Totals:         0       0       0       0       0
  3598 ;;Total ram usage:        0 bytes
  3599 ;; Hardware stack levels used:    1
  3600 ;; This function calls:
  3601 ;;		Nothing
  3602 ;; This function is called by:
  3603 ;;		_main
  3604 ;; This function uses a non-reentrant model
  3605 ;;
  3606                           
  3607                           
  3608                           ;psect for function ___init_pwm
  3609  0D7A                     ___init_pwm:	
  3610                           
  3611                           ;main.c: 49:     TRISCbits.TRISC2 = 0;
  3612                           
  3613                           ;incstack = 0
  3614                           ; Regs used in ___init_pwm: [wreg+status,2+status,0]
  3615  0D7A  1683               	bsf	3,5	;RP0=1, select bank1
  3616  0D7B  1303               	bcf	3,6	;RP1=0, select bank1
  3617  0D7C  1107               	bcf	7,2	;volatile
  3618                           
  3619                           ;main.c: 50:     T2CONbits.TMR2ON = 1;
  3620  0D7D  1283               	bcf	3,5	;RP0=0, select bank0
  3621  0D7E  1303               	bcf	3,6	;RP1=0, select bank0
  3622  0D7F  1512               	bsf	18,2	;volatile
  3623                           
  3624                           ;main.c: 51:     T2CONbits.T2CKPS = 0b10;
  3625  0D80  0812               	movf	18,w	;volatile
  3626  0D81  39FC               	andlw	-4
  3627  0D82  3802               	iorlw	2
  3628  0D83  0092               	movwf	18	;volatile
  3629                           
  3630                           ;main.c: 52:     CCP1CONbits.CCP1M = 0b1100;
  3631  0D84  0817               	movf	23,w	;volatile
  3632  0D85  39F0               	andlw	-16
  3633  0D86  380C               	iorlw	12
  3634  0D87  0097               	movwf	23	;volatile
  3635  0D88  0008               	return
  3636  0D89                     __end_of___init_pwm:	
  3637  007E                     btemp	set	126	;btemp
  3638  007E                     wtemp0	set	126


Data Sizes:
    Strings     0
    Constant    0
    Data        0
    BSS         0
    Persistent  10
    Stack       0

Auto Spaces:
    Space          Size  Autos    Used
    COMMON           14     14      14
    BANK0            80     80      80
    BANK1            80     14      24
    BANK3            96      0       0
    BANK2            96      0       0

Pointer List with Targets:

    None.

Critical Paths under _main in COMMON

    ___set_pwm_freq->___flmul
    ___set_pwm_freq->___xxtofl
    ___fladd->___flmul
    ___set_duty_cycle->___flmul
    ___set_duty_cycle->___xxtofl
    ___fltol->___flmul
    ___flmul->__Umul8_16
    ___fldiv->___flmul
    ___fldiv->___xxtofl

Critical Paths under _main in BANK0

    _main->___set_duty_cycle
    _main->___set_pwm_freq
    ___set_pwm_freq->___fltol
    ___fladd->___fldiv
    ___set_duty_cycle->___fltol
    ___fltol->___fladd
    ___fldiv->___flmul

Critical Paths under _main in BANK1

    _main->___set_duty_cycle

Critical Paths under _main in BANK3

    None.

Critical Paths under _main in BANK2

    None.

Call Graph Tables:

 ---------------------------------------------------------------------------------
 (Depth) Function   	        Calls       Base Space   Used Autos Params    Refs
 ---------------------------------------------------------------------------------
 (0) _main                                                 2     2      0   13356
                                             12 BANK1      2     2      0
                         ___init_pwm
                   ___set_duty_cycle
                     ___set_pwm_freq
 ---------------------------------------------------------------------------------
 (1) ___set_pwm_freq                                       4     2      2    7688
                                             78 BANK0      2     0      2
                                              0 BANK1      2     2      0
                            ___fladd
                            ___fldiv
                            ___flmul
                            ___fltol
                           ___xxtofl
 ---------------------------------------------------------------------------------
 (2) ___fladd                                             20    12      8    2262
                                             47 BANK0     20    12      8
                            ___fldiv (ARG)
                            ___flmul (ARG)
 ---------------------------------------------------------------------------------
 (1) ___set_duty_cycle                                    14    12      2    5668
                                             78 BANK0      2     0      2
                                              0 BANK1     12    12      0
                            ___fldiv
                            ___flmul
                            ___fltol
                           ___xxtofl
 ---------------------------------------------------------------------------------
 (2) ___xxtofl                                            14    10      4     474
                                              0 COMMON    14    10      4
 ---------------------------------------------------------------------------------
 (2) ___fltol                                             11     7      4     381
                                             67 BANK0     11     7      4
                            ___fladd (ARG)
                            ___fldiv (ARG)
                            ___flmul (ARG)
 ---------------------------------------------------------------------------------
 (2) ___flmul                                             26    18      8    2721
                                              9 COMMON     5     5      0
                                              0 BANK0     21    13      8
                          __Umul8_16
 ---------------------------------------------------------------------------------
 (3) __Umul8_16                                            9     7      2     799
                                              0 COMMON     9     7      2
 ---------------------------------------------------------------------------------
 (2) ___fldiv                                             26    18      8    1729
                                             21 BANK0     26    18      8
                            ___flmul (ARG)
                           ___xxtofl (ARG)
 ---------------------------------------------------------------------------------
 (1) ___init_pwm                                           0     0      0       0
 ---------------------------------------------------------------------------------
 Estimated maximum stack depth 3
 ---------------------------------------------------------------------------------

 Call Graph Graphs:

 _main (ROOT)
   ___init_pwm
   ___set_duty_cycle
     ___fldiv
       ___flmul (ARG)
         __Umul8_16
       ___xxtofl (ARG)
     ___flmul
       __Umul8_16
     ___fltol
       ___fladd (ARG)
         ___fldiv (ARG)
           ___flmul (ARG)
             __Umul8_16
           ___xxtofl (ARG)
         ___flmul (ARG)
           __Umul8_16
       ___fldiv (ARG)
         ___flmul (ARG)
           __Umul8_16
         ___xxtofl (ARG)
       ___flmul (ARG)
         __Umul8_16
     ___xxtofl
   ___set_pwm_freq
     ___fladd
       ___fldiv (ARG)
         ___flmul (ARG)
           __Umul8_16
         ___xxtofl (ARG)
       ___flmul (ARG)
         __Umul8_16
     ___fldiv
       ___flmul (ARG)
         __Umul8_16
       ___xxtofl (ARG)
     ___flmul
       __Umul8_16
     ___fltol
       ___fladd (ARG)
         ___fldiv (ARG)
           ___flmul (ARG)
             __Umul8_16
           ___xxtofl (ARG)
         ___flmul (ARG)
           __Umul8_16
       ___fldiv (ARG)
         ___flmul (ARG)
           __Umul8_16
         ___xxtofl (ARG)
       ___flmul (ARG)
         __Umul8_16
     ___xxtofl

 Address spaces:
Name               Size   Autos  Total    Cost      Usage
BITCOMMON            E      0       0       0        0.0%
EEDATA             100      0       0       0        0.0%
NULL                 0      0       0       0        0.0%
CODE                 0      0       0       0        0.0%
COMMON               E      E       E       1      100.0%
BITSFR0              0      0       0       1        0.0%
SFR0                 0      0       0       1        0.0%
BITSFR1              0      0       0       2        0.0%
SFR1                 0      0       0       2        0.0%
STACK                0      0       0       2        0.0%
ABS                  0      0      76       3        0.0%
BITBANK0            50      0       0       4        0.0%
BITSFR3              0      0       0       4        0.0%
SFR3                 0      0       0       4        0.0%
BANK0               50     50      50       5      100.0%
BITSFR2              0      0       0       5        0.0%
SFR2                 0      0       0       5        0.0%
BITBANK1            50      0       0       6        0.0%
BANK1               50      E      18       7       30.0%
BITBANK3            60      0       0       8        0.0%
BANK3               60      0       0       9        0.0%
BITBANK2            60      0       0      10        0.0%
BANK2               60      0       0      11        0.0%
DATA                 0      0      76      12        0.0%


Microchip Technology PIC Macro Assembler V2.05 build -831301201 
Symbol Table                                                                                   Thu Mar  7 20:58:25 2019

   ___set_pwm_freq@PR2_value 00A0                 ___fldiv@aexp 004E                 ___fldiv@bexp 004D  
               ___fldiv@sign 0046                  __CFG_CP$OFF 0000          __Umul8_16@word_mpld 0076  
        ___set_duty_cycle@dc 00A2                          l318 0DFB                          l422 03A3  
                        l424 0381                          l418 030A                          l460 04DC  
                        l452 04C4                          l526 07EF                          l439 045C  
                        l552 0EB7                          l474 0163                          l571 0D9B  
                        l565 0F0D                          l566 0F17                          l558 0EF7  
                        l496 02A2                          l498 02B0                          _PR2 0092  
               __CFG_CPD$OFF 0000                 __CFG_FOSC$HS 0000                 ___flmul@aexp 002D  
               ___flmul@bexp 002E                 ___flmul@sign 0028                 ___flmul@temp 0033  
               ___flmul@prod 002F                 __CFG_LVP$OFF 0000                 ___fltol@exp1 006D  
                       l1301 0E0A                         l1401 039D                         l1323 02D8  
                       l1325 02E0                         l1271 0DB7                         l1343 02FF  
                       l1319 02D5                         l1513 0132                         l1417 03D2  
                       l1409 03B1                         l1353 0314                         l1259 0D93  
                       l1291 0DE7                         l1275 0DC0                         l1419 03D4  
                       l1427 03E4                         l1347 0302                         l1605 023B  
                       l1533 0158                         l1517 0135                         l1293 0DF7  
                       l1453 047D                         l1445 046E                         l1437 044E  
                       l1461 0486                         l1623 0288                         l1519 013D  
                       l1471 0491                         l1391 038C                         l1383 0350  
                       l1609 023D                         l1553 018E                         l1537 015B  
                       l1393 038E                         l1635 02AC                         l1619 026F  
                       l1547 0182                         l1467 048F                         l1459 0484  
                       l1573 01DD                         l1581 01B9                         l1821 0F34  
                       l1493 04D8                         l1583 0201                         l1655 0504  
                       l1807 0F0B                         l1745 0775                         l1737 0741  
                       l1673 0529                         l1657 0506                         l1809 0EFC  
                       l1489 04D4                         l1579 01FC                         l1763 07BF  
                       l1739 075E                         l1675 052B                         l1659 050E  
                       l1851 0E33                         l1597 0207                         l1749 0777  
                       l1685 0541                         l1677 0533                         l1599 0224  
                       l1759 07A9                         l1871 0E6B                         l1769 07D8  
                       l1793 0EC6                         l1857 0E37                         l1787 0EAF  
                       l1797 0ECA                         l1799 0EDC                         u2105 01C2  
                       u2115 01CB                         u2135 01D6                         u2145 01EB  
                       u1435 0D9C                         u1525 0E00                         u2175 020B  
                       u1800 0423                         u2265 025A                         u2425 05F1  
                       u1465 0DC9                         u1801 0424                         u1802 0429  
                       u1650 0370                         u2275 0278                         u2195 0216  
                       u2515 070F                         u1803 042A                         u1660 0371  
                       u2285 0293                         u1645 0364                         u2535 072D  
                       u2455 064E                         u1495 0DE8                         u2545 0745  
                       u2705 0ED3                         u2635 0794                         u2645 07B2  
                       u2565 0750                         u2725 0EEF                         u1845 0470  
                       u2655 07CA                         u2495 06EA                         u1791 040F  
                       u1783 03F6                         u1775 03D8                         u1695 0392  
                       u2815 0E63                         u1792 0410                         u2745 0F04  
                       u1945 04AE                         u1793 0415                         u2825 0E97  
                       u1794 0416                         u1795 041B                         u1796 041C  
                       u2837 0E4E                         u2847 0E82                         u2785 0F1F  
               __CFG_WRT$OFF 0000                         _main 0E19                         btemp 007E  
              __CFG_BOREN$ON 0000                         start 0000              ___fldiv@new_exp 0047  
              ___fltol@sign1 006C              __end_of___fladd 04E7                        ?_main 0070  
            __end_of___fldiv 02B8                __CFG_WDTE$OFF 0000              __end_of___flmul 07FC  
            __end_of___fltol 0E19     __end_of___set_duty_cycle 0115                        status 0003  
                      wtemp0 007E              __initialization 07FC                 __end_of_main 0E9A  
                     ??_main 00AC                       _CCPR1L 0015             __end_of___xxtofl 0F3D  
             __CFG_PWRTE$OFF 0000                    ??___fladd 0057                    ??___fldiv 003D  
                  ??___flmul 0079                    ??___fltol 0067           __size_of__Umul8_16 0023  
               ___xxtofl@arg 007A                 ___xxtofl@exp 0079                 ___xxtofl@val 0070  
    __end_of__initialization 07FC   ___set_duty_cycle@dc_period 00A6                   ___fltol@f1 0063  
                 ___init_pwm 0D7A               __pcstackCOMMON 0070      __size_of___set_pwm_freq 00C3  
 ___set_duty_cycle@reg_value 00AA            __end_of__Umul8_16 0DAC                   __pmaintext 0E19  
                  ?___xxtofl 0070            ?___set_duty_cycle 006E           ??___set_duty_cycle 00A0  
                ?___init_pwm 0070                      ___fladd 02B8                      ___fldiv 0115  
                    ___flmul 04E7                      ___fltol 0DAC                      __ptext1 0F3D  
                    __ptext2 02B8                      __ptext3 0003                      __ptext4 0E9A  
                    __ptext5 0DAC                      __ptext6 04E7                      __ptext7 0D89  
                    __ptext8 0115                      __ptext9 0D7A                      _counter 00B2  
                  _T2CONbits 0012                   ??___xxtofl 0074         end_of_initialization 07FC  
             ___set_pwm_freq 0F3D                  ___fladd@grs 0062                ___xxtofl@sign 0078  
                  _TRISCbits 0087                  ___fldiv@grs 0049                  ___fldiv@rem 0042  
        __size_of___init_pwm 000F                  ___flmul@grs 0029                  _CCP1CONbits 0017  
     __end_of___set_pwm_freq 1000          start_initialization 07FC                    __Umul8_16 0D89  
            ?___set_pwm_freq 006E                    ___fladd@a 0053                    ___fladd@b 004F  
                  ___fldiv@a 0035                    ___fldiv@b 0039                    ___flmul@a 0024  
                  ___flmul@b 0020                    ___latbits 0002                __pcstackBANK0 0020  
              __pcstackBANK1 00A0  ___set_duty_cycle@duty_cycle 006E            __size_of___xxtofl 00A3  
                  __pnvBANK1 00AE                 ??___init_pwm 0070                     ?___fladd 004F  
                   ?___fldiv 0035                     ?___flmul 0020                     ?___fltol 0063  
                 ?__Umul8_16 0070    __size_of___set_duty_cycle 0112           __end_of___init_pwm 0D89  
                   _PWM_FREQ 00B4                  ??__Umul8_16 0072             __size_of___fladd 022F  
           __size_of___fldiv 01A3             __size_of___flmul 0315             __size_of___fltol 006D  
                   ___xxtofl 0E9A                __size_of_main 0081             ??___set_pwm_freq 007E  
           ___set_duty_cycle 0003             ___set_pwm_freq@f 006E       __Umul8_16@multiplicand 0070  
              ___fladd@signs 005F                 ___fladd@aexp 0060                 ___fladd@bexp 0061  
       __Umul8_16@multiplier 0078                   _PWM_PERIOD 00AE            __Umul8_16@product 0074  
