Microchip MPLAB XC8 Compiler V2.45

Linker command line:

-W-3 --edf=/opt/microchip/xc8/v2.45/pic/dat/20230818022343_en.msgs -cn \
  -h+dist/default/debug/Serial_Communication__USART_.debug.sym \
  --cmf=dist/default/debug/Serial_Communication__USART_.debug.cmf -z \
  -Q16F877A -o/tmp/xcXppCNHI/driver_tmp_3.o --defsym=__MPLAB_BUILD=1 \
  --fixupoverflow=error \
  -Mdist/default/debug/Serial_Communication__USART_.debug.map \
  --md=/tmp/xcXppCNHI/driver_tmp_0.dat -E1 -ver=XC8 Compiler --acfsm=1493 \
  -ACODE=00h-07FFhx4 -ASTRCODE=00h-01FFFh -ASTRING=00h-0FFhx32 \
  -ACONST=00h-0FFhx32 -AENTRY=00h-0FFhx32 -ACOMMON=070h-07Fh \
  -ABANK0=020h-06Fh -ABANK1=0A0h-0EFh -ABANK2=0110h-016Fh \
  -ABANK3=0190h-01EFh -ARAM=020h-06Fh,0A0h-0EFh,0110h-016Fh,0190h-01EFh \
  -AABS1=020h-07Fh,0A0h-0EFh,0110h-016Fh,0190h-01EFh -ASFR0=00h-01Fh \
  -ASFR1=080h-09Fh -ASFR2=0100h-010Fh -ASFR3=0180h-018Fh \
  -ACONFIG=02007h-02007h -DCONFIG=2 -AIDLOC=02000h-02003h -DIDLOC=2 \
  -AEEDATA=00h-0FFh/02100h -peeprom_data=EEDATA -DEEDATA=2 -DCODE=2 \
  -DSTRCODE=2 -DSTRING=2 -DCONST=2 -DENTRY=2 \
  -preset_vec=00h,intentry,init,end_init -ppowerup=CODE -pcinit=CODE \
  -pfunctab=ENTRY -k /tmp/xcXppCNHI/driver_tmp_17.o \
  dist/default/debug/Serial_Communication__USART_.debug.o 

Object code version is 3.11

Machine type is 16F877A



                Name                               Link     Load   Length Selector   Space Scale
/tmp/xcXppCNHI/driver_tmp_17.o
                end_init                              0        0        3        0       0
                config                             2007     2007        1        0       4
                idloc                              2000     2000        4        0       5
dist/default/debug/Serial_Communication__USART_.debug.o
                cinit                               7EB      7EB       15      FD6       0
                config                             2007     2007        1        0       4
                idloc                              2000     2000        4        0       5
                text16                              4AD      4AD       28      95A       0
                text15                              419      419        E      832       0
                text14                              40D      40D        C      81A       0
                text13                              661      661       9D      CC2       0
                text12                              44F      44F       1E      89E       0
                text11                              403      403        A      806       0
                text10                              438      438       17      870       0
                text9                               4D5      4D5       2D      9AA       0
                text8                               5FA      5FA       67      BF4       0
                text7                               5A1      5A1       59      B42       0
                text6                               427      427       11      84E       0
                text5                               3FA      3FA        1      7F4       0
                text4                               54B      54B       56      A96       0
                text3                               6FE      6FE       ED      DFC       0
                text2                               48C      48C       21      918       0
                text1                               46D      46D       1F      8DA       0
                maintext                            502      502       49      A04       0
                cstackBANK0                          45       45       23       20       1
                cstackCOMMON                         70       70        E       70       1
                clrtext                             3FB      3FB        8      7F6       0
                bssBANK1                             A0       A0       32       A0       1
                bssBANK0                             20       20       25       20       1
                strings                               3        3       18        6       0

TOTAL           Name                               Link     Load   Length     Space
        CLASS   CODE           
                end_init                              0        0        3         0
                cinit                               7EB      7EB       15         0
                text16                              4AD      4AD       28         0
                text15                              419      419        E         0
                text14                              40D      40D        C         0
                text13                              661      661       9D         0
                text12                              44F      44F       1E         0
                text11                              403      403        A         0
                text10                              438      438       17         0
                text9                               4D5      4D5       2D         0
                text8                               5FA      5FA       67         0
                text7                               5A1      5A1       59         0
                text6                               427      427       11         0
                text5                               3FA      3FA        1         0
                text4                               54B      54B       56         0
                text3                               6FE      6FE       ED         0
                text2                               48C      48C       21         0
                text1                               46D      46D       1F         0
                maintext                            502      502       49         0
                clrtext                             3FB      3FB        8         0

        CLASS   STRCODE        

        CLASS   STRING         
                strings                               3        3       18         0

        CLASS   CONST          

        CLASS   ENTRY          

        CLASS   COMMON         
                cstackCOMMON                         70       70        E         1

        CLASS   BANK0          
                cstackBANK0                          45       45       23         1
                bssBANK0                             20       20       25         1

        CLASS   BANK1          
                bssBANK1                             A0       A0       32         1

        CLASS   BANK2          

        CLASS   BANK3          

        CLASS   RAM            

        CLASS   ABS1           
                abs_s1                               7E       7E        2         1

        CLASS   SFR0           

        CLASS   SFR1           

        CLASS   SFR2           

        CLASS   SFR3           

        CLASS   CONFIG         
                config                             2007     2007        1         4

        CLASS   IDLOC          
                idloc                              2000     2000        4         5

        CLASS   EEDATA         

        CLASS   HEAP           

        CLASS   STACK          



SEGMENTS        Name                           Load    Length   Top    Selector   Space  Class     Delta

                text15                         000419  00000E  000427       832       0  CODE        2
                text6                          000427  000011  000438       84E       0  CODE        2
                text1                          00046D  00001F  00048C       8DA       0  CODE        2
                text2                          00048C  000021  0004AD       918       0  CODE        2
                text16                         0004AD  000028  0004D5       95A       0  CODE        2
                text10                         000438  000017  00044F       870       0  CODE        2
                strings                        000003  000018  00001B         6       0  STRING      2
                text12                         00044F  00001E  00046D       89E       0  CODE        2
                clrtext                        0003FB  000008  000403       7F6       0  CODE        2
                reset_vec                      000000  000003  000003         0       0  CODE        2
                text5                          0003FA  000001  0003FB       7F4       0  CODE        2
                text11                         000403  00000A  00040D       806       0  CODE        2
                text14                         00040D  00000C  000419       81A       0  CODE        2
                bssBANK0                       000020  000048  000068        20       1  BANK0       1
                text3                          0006FE  0000ED  0007EB       DFC       0  CODE        2
                cinit                          0007EB  000015  000800       FD6       0  CODE        2
                cstackCOMMON                   000070  00000E  00007E        70       1  COMMON      1
                bssBANK1                       0000A0  000032  0000D2        A0       1  BANK1       1
                text4                          00054B  000056  0005A1       A96       0  CODE        2
                maintext                       000502  000049  00054B       A04       0  CODE        2
                text9                          0004D5  00002D  000502       9AA       0  CODE        2
                text13                         000661  00009D  0006FE       CC2       0  CODE        2
                text8                          0005FA  000067  000661       BF4       0  CODE        2
                text7                          0005A1  000059  0005FA       B42       0  CODE        2


UNUSED ADDRESS RANGES

        Name                Unused          Largest block    Delta
        BANK0            0068-006F              8           1
        BANK1            00D2-00EF             1E           1
        BANK2            0110-016F             60           1
        BANK3            0190-01EF             60           1
        CODE             001B-03F9            3DF           2
                         0800-1FFF            800
        CONST            001B-03F9            100           2
                         0800-1FFF            100
        EEDATA           2100-21FF            100           2
        ENTRY            001B-03F9            100           2
                         0800-1FFF            100
        RAM              0068-006F              8           1
                         00D2-00EF             1E
                         0110-016F             60
                         0190-01EF             60
        SFR0             0000-001F             20           1
        SFR1             0080-009F             20           1
        SFR2             0100-010F             10           1
        SFR3             0180-018F             10           1
        STRCODE          001B-03F9            3DF           2
                         0800-1FFF           1800
        STRING           001B-03F9            100           2
                         0800-1FFF            100

                                  Symbol Table

?___adc_read               cstackCOMMON 0070
?___aldiv                  cstackCOMMON 0070
?___awdiv                  cstackCOMMON 0070
?___awmod                  cstackCOMMON 0070
?_abs                      cstackCOMMON 0077
?_sprintf                  cstackBANK0  0053
?_strlen                   cstackCOMMON 0070
?_vfprintf                 cstackBANK0  004F
_ADCON0bits                (abs)        001F
_ADCON1bits                (abs)        009F
_ADRESH                    (abs)        001E
_ADRESL                    (abs)        009E
_RCSTAbits                 (abs)        0018
_SPBRG                     (abs)        0099
_TXIF                      (abs)        0064
_TXREG                     (abs)        0019
_TXSTAbits                 (abs)        0098
__H__absolute__            __absolute__ 0000
__Habs1                    abs1         0000
__Hbank0                   bank0        0000
__Hbank1                   bank1        0000
__Hbank2                   bank2        0000
__Hbank3                   bank3        0000
__HbssBANK0                bssBANK0     0000
__HbssBANK1                bssBANK1     0000
__Hcinit                   cinit        0800
__Hclrtext                 clrtext      0000
__Hcode                    code         0000
__Hcommon                  common       0000
__Hconfig                  config       2008
__HcstackBANK0             cstackBANK0  0000
__HcstackCOMMON            cstackCOMMON 0000
__Heeprom_data             eeprom_data  0000
__Hend_init                end_init     0003
__Hfunctab                 functab      0000
__Hheap                    heap         0000
__Hidloc                   idloc        2004
__Hinit                    init         0000
__Hintentry                intentry     0000
__Hmaintext                maintext     0000
__Hpowerup                 powerup      0000
__Hram                     ram          0000
__Hreset_vec               reset_vec    0000
__Hsfr0                    sfr0         0000
__Hsfr1                    sfr1         0000
__Hsfr2                    sfr2         0000
__Hsfr3                    sfr3         0000
__Hspace_0                 (abs)        0800
__Hspace_1                 (abs)        00D2
__Hspace_2                 (abs)        0000
__Hspace_3                 (abs)        0000
__Hspace_4                 (abs)        400F
__Hstack                   stack        0000
__Hstrings                 strings      0000
__Htext                    text         0000
__L__absolute__            __absolute__ 0000
__Labs1                    abs1         0000
__Lbank0                   bank0        0000
__Lbank1                   bank1        0000
__Lbank2                   bank2        0000
__Lbank3                   bank3        0000
__LbssBANK0                bssBANK0     0000
__LbssBANK1                bssBANK1     0000
__Lcinit                   cinit        07EB
__Lclrtext                 clrtext      0000
__Lcode                    code         0000
__Lcommon                  common       0000
__Lconfig                  config       0000
__LcstackBANK0             cstackBANK0  0000
__LcstackCOMMON            cstackCOMMON 0000
__Leeprom_data             eeprom_data  0000
__Lend_init                end_init     0000
__Lfunctab                 functab      0000
__Lheap                    heap         0000
__Lidloc                   idloc        0000
__Linit                    init         0000
__Lintentry                intentry     0000
__Lmaintext                maintext     0000
__Lpowerup                 powerup      0000
__Lram                     ram          0000
__Lreset_vec               reset_vec    0000
__Lsfr0                    sfr0         0000
__Lsfr1                    sfr1         0000
__Lsfr2                    sfr2         0000
__Lsfr3                    sfr3         0000
__Lspace_0                 (abs)        0000
__Lspace_1                 (abs)        0000
__Lspace_2                 (abs)        0000
__Lspace_3                 (abs)        0000
__Lspace_4                 (abs)        0000
__Lstack                   stack        0000
__Lstrings                 strings      0000
__Ltext                    text         0000
__S0                       (abs)        0800
__S1                       (abs)        00D2
__S3                       (abs)        0000
___adc_read                text16       04AD
___adc_read@adc_channel    cstackCOMMON 0070
___adc_read@adc_value      cstackCOMMON 0074
___aldiv                   text13       0661
___aldiv@counter           cstackBANK0  0045
___aldiv@dividend          cstackCOMMON 0074
___aldiv@divisor           cstackCOMMON 0070
___aldiv@quotient          cstackBANK0  0047
___aldiv@sign              cstackBANK0  0046
___awdiv                   text8        05FA
___awdiv@counter           cstackCOMMON 0075
___awdiv@dividend          cstackCOMMON 0072
___awdiv@divisor           cstackCOMMON 0070
___awdiv@quotient          cstackCOMMON 0077
___awdiv@sign              cstackCOMMON 0076
___awmod                   text7        05A1
___awmod@counter           cstackCOMMON 0075
___awmod@dividend          cstackCOMMON 0072
___awmod@divisor           cstackCOMMON 0070
___awmod@sign              cstackCOMMON 0076
___heap_hi                 (abs)        0000
___heap_lo                 (abs)        0000
___init_adc                text15       0419
___init_usart              text14       040D
___int_sp                  stack        0000
___int_stack_hi            stack        0000
___int_stack_lo            stack        0000
___latbits                 (abs)        0002
___set_baud_rate           text12       044F
___set_baud_rate@baud_rate cstackBANK0  004B
___sp                      stack        0000
___stack_hi                stack        0000
___stack_lo                stack        0000
___stackhi                 (abs)        0000
___stacklo                 (abs)        0000
___usart_write_ln          text9        04D5
___usart_write_ln@data     cstackCOMMON 0078
___usart_write_ln@i        cstackCOMMON 0076
___write_char              text11       0403
___write_char@c            cstackCOMMON 0070
__end_of___adc_read        text16       04D5
__end_of___aldiv           text13       06FE
__end_of___awdiv           text8        0661
__end_of___awmod           text7        05FA
__end_of___init_adc        text15       0427
__end_of___init_usart      text14       0419
__end_of___set_baud_rate   text12       046D
__end_of___usart_write_ln  text9        0502
__end_of___write_char      text11       040D
__end_of__initialization   cinit        07FC
__end_of__stringtab        strings      0009
__end_of_abs               text6        0438
__end_of_fputc             text4        05A1
__end_of_main              maintext     054B
__end_of_putch             text5        03FB
__end_of_sprintf           text1        048C
__end_of_strlen            text10       044F
__end_of_vfpfcnvrt         text3        07EB
__end_of_vfprintf          text2        04AD
__initialization           cinit        07EB
__pbssBANK0                bssBANK0     0020
__pbssBANK1                bssBANK1     00A0
__pcstackBANK0             cstackBANK0  0045
__pcstackCOMMON            cstackCOMMON 0070
__pmaintext                maintext     0502
__pstrings                 strings      0003
__ptext1                   text1        046D
__ptext10                  text10       0438
__ptext11                  text11       0403
__ptext12                  text12       044F
__ptext13                  text13       0661
__ptext14                  text14       040D
__ptext15                  text15       0419
__ptext16                  text16       04AD
__ptext2                   text2        048C
__ptext3                   text3        06FE
__ptext4                   text4        054B
__ptext5                   text5        03FA
__ptext6                   text6        0427
__ptext7                   text7        05A1
__ptext8                   text8        05FA
__ptext9                   text9        04D5
__stringbase               strings      0008
__stringtab                strings      0003
_abs                       text6        0427
_buffer                    bssBANK1     00A0
_dbuf                      bssBANK0     0020
_flags                     bssBANK0     0044
_fputc                     text4        054B
_main                      maintext     0502
_prec                      bssBANK0     0042
_putch                     text5        03FA
_sprintf                   text1        046D
_strlen                    text10       0438
_vfpfcnvrt                 text3        06FE
_vfprintf                  text2        048C
_width                     bssBANK0     0040
abs@a                      cstackCOMMON 0077
btemp                      (abs)        007E
clear_ram0                 clrtext      03FB
end_of_initialization      cinit        07FC
fputc@c                    cstackCOMMON 0070
fputc@fp                   cstackCOMMON 0072
intlevel0                  functab      0000
intlevel1                  functab      0000
intlevel2                  functab      0000
intlevel3                  functab      0000
intlevel4                  functab      0000
intlevel5                  functab      0000
main@adc_value             cstackBANK0  0066
reset_vec                  reset_vec    0000
sprintf@ap                 cstackBANK0  0056
sprintf@f                  cstackBANK0  0058
sprintf@fmt                cstackBANK0  0053
sprintf@s                  cstackBANK0  0057
start                      init         0000
start_initialization       cinit        07EB
strlen@a                   cstackCOMMON 0073
strlen@s                   cstackCOMMON 0074
vfpfcnvrt@ap               cstackCOMMON 007C
vfpfcnvrt@c                cstackBANK0  004E
vfpfcnvrt@convarg          cstackBANK0  004A
vfpfcnvrt@cp               cstackBANK0  0049
vfpfcnvrt@done             cstackBANK0  0047
vfpfcnvrt@fmt              cstackCOMMON 007B
vfpfcnvrt@fp               cstackBANK0  0048
vfprintf@ap                cstackBANK0  0050
vfprintf@cfmt              cstackBANK0  0052
vfprintf@fmt               cstackBANK0  004F
vfprintf@fp                cstackBANK0  0051
wtemp0                     (abs)        007E


MODULE INFORMATION

Module		Function		Class		Link	Load	Size
/opt/microchip/xc8/v2.45/pic/sources/c99/common/strlen.c
		_strlen        		CODE           	0438	0000	23

/opt/microchip/xc8/v2.45/pic/sources/c99/common/strlen.c estimated size: 23

/opt/microchip/xc8/v2.45/pic/sources/c99/common/awdiv.c
		___awdiv       		CODE           	05FA	0000	103

/opt/microchip/xc8/v2.45/pic/sources/c99/common/awdiv.c estimated size: 103

/opt/microchip/xc8/v2.45/pic/sources/c99/common/aldiv.c
		___aldiv       		CODE           	0661	0000	157

/opt/microchip/xc8/v2.45/pic/sources/c99/common/aldiv.c estimated size: 157

/opt/microchip/xc8/v2.45/pic/sources/c99/common/nf_sprintf.c
		_sprintf       		CODE           	046D	0000	31

/opt/microchip/xc8/v2.45/pic/sources/c99/common/nf_sprintf.c estimated size: 31

/opt/microchip/xc8/v2.45/pic/sources/c99/common/doprnt.c
		_vfpfcnvrt     		CODE           	06FE	0000	237
		_vfprintf      		CODE           	048C	0000	33

/opt/microchip/xc8/v2.45/pic/sources/c99/common/doprnt.c estimated size: 270

/opt/microchip/xc8/v2.45/pic/sources/c99/common/abs.c
		_abs           		CODE           	0427	0000	17

/opt/microchip/xc8/v2.45/pic/sources/c99/common/abs.c estimated size: 17

/opt/microchip/xc8/v2.45/pic/sources/c99/common/nf_fputc.c
		_fputc         		CODE           	054B	0000	86

/opt/microchip/xc8/v2.45/pic/sources/c99/common/nf_fputc.c estimated size: 86

shared
		__stringtab    		STRING         	0003	0000	6
		__initialization		CODE           	07EB	0000	17

shared estimated size: 23

/opt/microchip/xc8/v2.45/pic/sources/c99/common/awmod.c
		___awmod       		CODE           	05A1	0000	89

/opt/microchip/xc8/v2.45/pic/sources/c99/common/awmod.c estimated size: 89

/opt/microchip/xc8/v2.45/pic/sources/c99/common/putch.c
		_putch         		CODE           	03FA	0000	1

/opt/microchip/xc8/v2.45/pic/sources/c99/common/putch.c estimated size: 1

main.c
		___adc_read    		CODE           	04AD	0000	40
		_main          		CODE           	0502	0000	73
		___set_baud_rate		CODE           	044F	0000	30
		___init_adc    		CODE           	0419	0000	14
		___init_usart  		CODE           	040D	0000	12
		___write_char  		CODE           	0403	0000	10
		___usart_write_ln		CODE           	04D5	0000	45

main.c estimated size: 224

